(ima_dataset
Dataset
p0
(dp1
S'num_outcomes'
p2
I0
sS'title'
p3
Vaminoglycosides
p4
sS'outcome_names_to_follow_ups'
p5
(dp6
Vnephrotoxic
p7
ccopy_reg
_reconstructor
p8
(ctwo_way_dict
TwoWayDict
p9
c__builtin__
dict
p10
(dp11
I0
S'first'
p12
stp13
Rp14
(dp15
S'_reverse_map'
p16
(dp17
g12
I0
ssbsVclinical failure
p18
g8
(g9
g10
(dp19
I0
S'first'
p20
stp21
Rp22
(dp23
g16
(dp24
g20
I0
ssbssS'notes'
p25
S''
p26
sS'num_follow_ups'
p27
I0
sS'num_treatments'
p28
I0
sS'is_diag'
p29
I00
sS'summary'
p30
NsS'studies'
p31
(lp32
(ima_dataset
Study
p33
(dp34
S'include'
p35
I01
sS'name'
p36
VGonzalez
p37
sS'covariate_dict'
p38
(dp39
sg25
g26
sS'N'
p40
NsS'outcomes_to_follow_ups'
p41
(dp42
g7
(dp43
g12
(ima_dataset
MetaAnalyticUnit
p44
(dp45
S'effects_dict'
p46
(dp47
S'YUY'
p48
(dp49
Vtx B-tx A
p50
(dp51
S'upper'
p52
NsS'lower'
p53
NsS'est'
p54
NsS'display_upper'
p55
NsS'display_est'
p56
NsS'display_lower'
p57
NsS'SE'
p58
NssVtx A-tx B
p59
(dp60
g52
Nsg53
Nsg54
Nsg55
Nsg56
Nsg57
Nsg58
NsssS'PR'
p61
(dp62
Vtx A
p63
(dp64
g52
Nsg53
Nsg54
Nsg55
Nsg56
Nsg57
Nsg58
NssVtx B
p65
(dp66
g52
Nsg53
Nsg54
Nsg55
Nsg56
Nsg57
Nsg58
NsssS'PAS'
p67
(dp68
g63
(dp69
g52
Nsg53
Nsg54
Nsg55
Nsg56
Nsg57
Nsg58
Nssg65
(dp70
g52
Nsg53
Nsg54
Nsg55
Nsg56
Nsg57
Nsg58
NsssS'RR'
p71
(dp72
Vtx B-tx A
p73
(dp74
g52
Nsg53
Nsg54
Nsg55
Nsg56
Nsg57
Nsg58
NssVtx A-tx B
p75
(dp76
g52
F1.4248523197251561
sg53
F-0.97856521709673672
sg54
F0.22314355131420971
sg55
F4.1572438545051202
sg56
F1.25
sg57
F0.37584997529234437
sg58
NsssS'YUQ'
p77
(dp78
Vtx B-tx A
p79
(dp80
g52
Nsg53
Nsg54
Nsg55
Nsg56
Nsg57
Nsg58
NssVtx A-tx B
p81
(dp82
g52
Nsg53
Nsg54
Nsg55
Nsg56
Nsg57
Nsg58
NsssS'PETO'
p83
(dp84
Vtx B-tx A
p85
(dp86
g52
Nsg53
Nsg54
Nsg55
Nsg56
Nsg57
Nsg58
NssVtx A-tx B
p87
(dp88
g52
Nsg53
Nsg54
Nsg55
Nsg56
Nsg57
Nsg58
NsssS'RD'
p89
(dp90
Vtx B-tx A
p91
(dp92
g52
Nsg53
Nsg54
Nsg55
Nsg56
Nsg57
Nsg58
NssVtx A-tx B
p93
(dp94
g52
Nsg53
Nsg54
Nsg55
Nsg56
Nsg57
Nsg58
NsssS'AS'
p95
(dp96
Vtx B-tx A
p97
(dp98
g52
Nsg53
Nsg54
Nsg55
Nsg56
Nsg57
Nsg58
NssVtx A-tx B
p99
(dp100
g52
Nsg53
Nsg54
Nsg55
Nsg56
Nsg57
Nsg58
NsssS'PFT'
p101
(dp102
g63
(dp103
g52
Nsg53
Nsg54
Nsg55
Nsg56
Nsg57
Nsg58
Nssg65
(dp104
g52
Nsg53
Nsg54
Nsg55
Nsg56
Nsg57
Nsg58
NsssS'PLO'
p105
(dp106
g63
(dp107
g52
Nsg53
Nsg54
Nsg55
Nsg56
Nsg57
Nsg58
Nssg65
(dp108
g52
Nsg53
Nsg54
Nsg55
Nsg56
Nsg57
Nsg58
NsssS'PLN'
p109
(dp110
g63
(dp111
g52
Nsg53
Nsg54
Nsg55
Nsg56
Nsg57
Nsg58
Nssg65
(dp112
g52
Nsg53
Nsg54
Nsg55
Nsg56
Nsg57
Nsg58
NsssS'OR'
p113
(dp114
Vtx B-tx A
p115
(dp116
g52
F1.1712542900052285
sg53
F-1.7064449177753156
sg54
F-0.26759531388504354
sg55
F3.2260364872412746
sg56
F0.76521739130434785
sg57
F0.18150992968320936
sg58
NssVtx A-tx B
p117
(dp118
g52
F1.7064449177753156
sg53
F-1.1712542900052285
sg54
F0.26759531388504354
sg55
F5.5093404627796811
sg56
F1.3068181818181817
sg57
F0.30997789515243329
sg58
NssssS'tx_groups'
p119
(dp120
g63
(ima_dataset
TreatmentGroup
p121
(dp122
S'raw_data'
p123
(lp124
F5.0
aF27.0
asS'id'
p125
I0
sS'name'
p126
S'tx A'
p127
sbsg65
(ima_dataset
TreatmentGroup
p128
(dp129
g123
(lp130
F4.0
aF27.0
asg125
I1
sg126
S'tx B'
p131
sbssS'outcome'
p132
(ima_dataset
Outcome
p133
(dp134
S'links'
p135
Nsg126
g7
sS'data_type'
p136
I0
sbsS'is_diag'
p137
I00
sS'raw_data_length'
p138
I2
sbssg18
(dp139
g20
(ima_dataset
MetaAnalyticUnit
p140
(dp141
S'effects_dict'
p142
(dp143
S'YUY'
p144
(dp145
Vtx B-tx A
p146
(dp147
S'upper'
p148
NsS'lower'
p149
NsS'est'
p150
NsS'display_upper'
p151
NsS'display_est'
p152
NsS'display_lower'
p153
NsS'SE'
p154
NssVtx A-tx B
p155
(dp156
g148
Nsg149
Nsg150
Nsg151
Nsg152
Nsg153
Nsg154
NsssS'PR'
p157
(dp158
g63
(dp159
g148
Nsg149
Nsg150
Nsg151
Nsg152
Nsg153
Nsg154
Nssg65
(dp160
g148
Nsg149
Nsg150
Nsg151
Nsg152
Nsg153
Nsg154
NsssS'PAS'
p161
(dp162
g63
(dp163
g148
Nsg149
Nsg150
Nsg151
Nsg152
Nsg153
Nsg154
Nssg65
(dp164
g148
Nsg149
Nsg150
Nsg151
Nsg152
Nsg153
Nsg154
NsssS'RR'
p165
(dp166
Vtx B-tx A
p167
(dp168
g148
F1.290066368225204
sg149
F-0.47913615200887538
sg150
F0.40546510810816438
sg151
F3.6330276653499789
sg152
F1.5
sg153
F0.61931815754099173
sg154
NssVtx A-tx B
p169
(dp170
g148
F0.47913615200887538
sg149
F-1.290066368225204
sg150
F-0.40546510810816438
sg151
F1.6146789623777686
sg152
F0.66666666666666663
sg153
F0.27525251446266302
sg154
NsssS'YUQ'
p171
(dp172
Vtx B-tx A
p173
(dp174
g148
Nsg149
Nsg150
Nsg151
Nsg152
Nsg153
Nsg154
NssVtx A-tx B
p175
(dp176
g148
Nsg149
Nsg150
Nsg151
Nsg152
Nsg153
Nsg154
NsssS'PETO'
p177
(dp178
Vtx B-tx A
p179
(dp180
g148
Nsg149
Nsg150
Nsg151
Nsg152
Nsg153
Nsg154
NssVtx A-tx B
p181
(dp182
g148
Nsg149
Nsg150
Nsg151
Nsg152
Nsg153
Nsg154
NsssS'RD'
p183
(dp184
Vtx B-tx A
p185
(dp186
g148
Nsg149
Nsg150
Nsg151
Nsg152
Nsg153
Nsg154
NssVtx A-tx B
p187
(dp188
g148
Nsg149
Nsg150
Nsg151
Nsg152
Nsg153
Nsg154
NsssS'AS'
p189
(dp190
Vtx B-tx A
p191
(dp192
g148
Nsg149
Nsg150
Nsg151
Nsg152
Nsg153
Nsg154
NssVtx A-tx B
p193
(dp194
g148
Nsg149
Nsg150
Nsg151
Nsg152
Nsg153
Nsg154
NsssS'PFT'
p195
(dp196
g63
(dp197
g148
Nsg149
Nsg150
Nsg151
Nsg152
Nsg153
Nsg154
Nssg65
(dp198
g148
Nsg149
Nsg150
Nsg151
Nsg152
Nsg153
Nsg154
NsssS'PLO'
p199
(dp200
g63
(dp201
g148
Nsg149
Nsg150
Nsg151
Nsg152
Nsg153
Nsg154
Nssg65
(dp202
g148
Nsg149
Nsg150
Nsg151
Nsg152
Nsg153
Nsg154
NsssS'PLN'
p203
(dp204
g63
(dp205
g148
Nsg149
Nsg150
Nsg151
Nsg152
Nsg153
Nsg154
Nssg65
(dp206
g148
Nsg149
Nsg150
Nsg151
Nsg152
Nsg153
Nsg154
NsssS'OR'
p207
(dp208
Vtx B-tx A
p209
(dp210
g148
F1.7693318224137426
sg149
F-0.65010024654289744
sg150
F0.55961578793542255
sg151
F5.8669318990168495
sg152
F1.7499999999999998
sg153
F0.52199344609968934
sg154
NssVtx A-tx B
p211
(dp212
g148
F0.65010024654289744
sg149
F-1.7693318224137426
sg150
F-0.55961578793542255
sg151
F1.915732864985094
sg152
F0.57142857142857151
sg153
F0.17044683954275572
sg154
NssssS'tx_groups'
p213
(dp214
g63
(ima_dataset
TreatmentGroup
p215
(dp216
S'raw_data'
p217
(lp218
F6.0
aF27.0
asS'id'
p219
I0
sg36
g127
sbsg65
(ima_dataset
TreatmentGroup
p220
(dp221
g217
(lp222
F9.0
aF27.0
asg219
I1
sg36
g131
sbssS'outcome'
p223
(ima_dataset
Outcome
p224
(dp225
S'links'
p226
Nsg36
g18
sS'data_type'
p227
I0
sbsg29
I00
sS'raw_data_length'
p228
I2
sbsssS'manually_excluded'
p229
I00
sS'year'
p230
I1993
sS'outcomes'
p231
(lp232
g224
ag133
asg219
I0
sba(ima_dataset
Study
p233
(dp234
g35
I01
sg36
VPrins
p235
sg38
(dp236
sg25
g26
sg40
Nsg41
(dp237
g7
(dp238
g12
(ima_dataset
MetaAnalyticUnit
p239
(dp240
g46
(dp241
g48
(dp242
Vtx B-tx A
p243
(dp244
g52
Nsg53
Nsg54
Nsg55
Nsg56
Nsg57
Nsg58
NssVtx A-tx B
p245
(dp246
g52
Nsg53
Nsg54
Nsg55
Nsg56
Nsg57
Nsg58
Nsssg61
(dp247
g63
(dp248
g52
Nsg53
Nsg54
Nsg55
Nsg56
Nsg57
Nsg58
Nssg65
(dp249
g52
Nsg53
Nsg54
Nsg55
Nsg56
Nsg57
Nsg58
Nsssg67
(dp250
g63
(dp251
g52
Nsg53
Nsg54
Nsg55
Nsg56
Nsg57
Nsg58
Nssg65
(dp252
g52
Nsg53
Nsg54
Nsg55
Nsg56
Nsg57
Nsg58
Nsssg71
(dp253
Vtx B-tx A
p254
(dp255
g52
Nsg53
Nsg54
Nsg55
Nsg56
Nsg57
Nsg58
NssVtx A-tx B
p256
(dp257
g52
F-0.15888182340073564
sg53
F-3.0879230821682104
sg54
F-1.623402452784473
sg55
F0.85309716913460332
sg56
F0.19722650231124803
sg57
F0.045596556431417815
sg58
Nsssg77
(dp258
Vtx B-tx A
p259
(dp260
g52
Nsg53
Nsg54
Nsg55
Nsg56
Nsg57
Nsg58
NssVtx A-tx B
p261
(dp262
g52
Nsg53
Nsg54
Nsg55
Nsg56
Nsg57
Nsg58
Nsssg83
(dp263
Vtx B-tx A
p264
(dp265
g52
Nsg53
Nsg54
Nsg55
Nsg56
Nsg57
Nsg58
NssVtx A-tx B
p266
(dp267
g52
Nsg53
Nsg54
Nsg55
Nsg56
Nsg57
Nsg58
Nsssg89
(dp268
Vtx B-tx A
p269
(dp270
g52
Nsg53
Nsg54
Nsg55
Nsg56
Nsg57
Nsg58
NssVtx A-tx B
p271
(dp272
g52
Nsg53
Nsg54
Nsg55
Nsg56
Nsg57
Nsg58
Nsssg95
(dp273
Vtx B-tx A
p274
(dp275
g52
Nsg53
Nsg54
Nsg55
Nsg56
Nsg57
Nsg58
NssVtx A-tx B
p276
(dp277
g52
Nsg53
Nsg54
Nsg55
Nsg56
Nsg57
Nsg58
Nsssg101
(dp278
g63
(dp279
g52
Nsg53
Nsg54
Nsg55
Nsg56
Nsg57
Nsg58
Nssg65
(dp280
g52
Nsg53
Nsg54
Nsg55
Nsg56
Nsg57
Nsg58
Nsssg105
(dp281
g63
(dp282
g52
Nsg53
Nsg54
Nsg55
Nsg56
Nsg57
Nsg58
Nssg65
(dp283
g52
Nsg53
Nsg54
Nsg55
Nsg56
Nsg57
Nsg58
Nsssg109
(dp284
g63
(dp285
g52
Nsg53
Nsg54
Nsg55
Nsg56
Nsg57
Nsg58
Nssg65
(dp286
g52
Nsg53
Nsg54
Nsg55
Nsg56
Nsg57
Nsg58
Nsssg113
(dp287
Vtx B-tx A
p288
(dp289
g52
F3.3298692951266005
sg53
F0.22514559791510669
sg54
F1.7775074465208536
sg55
F27.934690264456812
sg56
F5.9150943396226419
sg57
F1.2525050650428668
sg58
NssVtx A-tx B
p290
(dp291
g52
F-0.22514559791510669
sg53
F-3.3298692951266005
sg54
F-1.7775074465208536
sg55
F0.7983999649261101
sg56
F0.16905901116427433
sg57
F0.035797783706675544
sg58
Nssssg119
(dp292
g63
(ima_dataset
TreatmentGroup
p293
(dp294
g123
(lp295
F2.0
aF59.0
asg125
I0
sg126
g127
sbsg65
(ima_dataset
TreatmentGroup
p296
(dp297
g123
(lp298
F11.0
aF64.0
asg125
I1
sg126
g131
sbssg132
g133
sg137
I00
sg138
I2
sbssg18
(dp299
g20
(ima_dataset
MetaAnalyticUnit
p300
(dp301
g142
(dp302
g144
(dp303
Vtx B-tx A
p304
(dp305
g148
Nsg149
Nsg150
Nsg151
Nsg152
Nsg153
Nsg154
NssVtx A-tx B
p306
(dp307
g148
Nsg149
Nsg150
Nsg151
Nsg152
Nsg153
Nsg154
Nsssg157
(dp308
g63
(dp309
g148
Nsg149
Nsg150
Nsg151
Nsg152
Nsg153
Nsg154
Nssg65
(dp310
g148
Nsg149
Nsg150
Nsg151
Nsg152
Nsg153
Nsg154
Nsssg161
(dp311
g63
(dp312
g148
Nsg149
Nsg150
Nsg151
Nsg152
Nsg153
Nsg154
Nssg65
(dp313
g148
Nsg149
Nsg150
Nsg151
Nsg152
Nsg153
Nsg154
Nsssg165
(dp314
Vtx B-tx A
p315
(dp316
g148
F2.0713769945153624
sg149
F-0.53947255264885974
sg150
F0.76595222093325122
sg151
F7.9357430724513245
sg152
F2.1510416666666665
sg153
F0.58305570247082783
sg154
NssVtx A-tx B
p317
(dp318
g148
F0.53947255264885974
sg149
F-2.0713769945153624
sg150
F-0.76595222093325122
sg151
F1.7151019975660615
sg152
F0.46489104116222763
sg153
F0.12601214415212958
sg154
Nsssg171
(dp319
Vtx B-tx A
p320
(dp321
g148
Nsg149
Nsg150
Nsg151
Nsg152
Nsg153
Nsg154
NssVtx A-tx B
p322
(dp323
g148
Nsg149
Nsg150
Nsg151
Nsg152
Nsg153
Nsg154
Nsssg177
(dp324
Vtx B-tx A
p325
(dp326
g148
Nsg149
Nsg150
Nsg151
Nsg152
Nsg153
Nsg154
NssVtx A-tx B
p327
(dp328
g148
Nsg149
Nsg150
Nsg151
Nsg152
Nsg153
Nsg154
Nsssg183
(dp329
Vtx B-tx A
p330
(dp331
g148
Nsg149
Nsg150
Nsg151
Nsg152
Nsg153
Nsg154
NssVtx A-tx B
p332
(dp333
g148
Nsg149
Nsg150
Nsg151
Nsg152
Nsg153
Nsg154
Nsssg189
(dp334
Vtx B-tx A
p335
(dp336
g148
Nsg149
Nsg150
Nsg151
Nsg152
Nsg153
Nsg154
NssVtx A-tx B
p337
(dp338
g148
Nsg149
Nsg150
Nsg151
Nsg152
Nsg153
Nsg154
Nsssg195
(dp339
g63
(dp340
g148
Nsg149
Nsg150
Nsg151
Nsg152
Nsg153
Nsg154
Nssg65
(dp341
g148
Nsg149
Nsg150
Nsg151
Nsg152
Nsg153
Nsg154
Nsssg199
(dp342
g63
(dp343
g148
Nsg149
Nsg150
Nsg151
Nsg152
Nsg153
Nsg154
Nssg65
(dp344
g148
Nsg149
Nsg150
Nsg151
Nsg152
Nsg153
Nsg154
Nsssg203
(dp345
g63
(dp346
g148
Nsg149
Nsg150
Nsg151
Nsg152
Nsg153
Nsg154
Nssg65
(dp347
g148
Nsg149
Nsg150
Nsg151
Nsg152
Nsg153
Nsg154
Nsssg207
(dp348
Vtx B-tx A
p349
(dp350
g148
F2.2314747394819814
sg149
F-0.57227817290637573
sg150
F0.82959828328780283
sg151
F9.3135910770785699
sg152
F2.2923976608187138
sg153
F0.56423854041222243
sg154
NssVtx A-tx B
p351
(dp352
g148
F0.57227817290637573
sg149
F-2.2314747394819814
sg150
F-0.82959828328780283
sg151
F1.7723000617246354
sg152
F0.43622448979591832
sg153
F0.10736997058643398
sg154
Nssssg213
(dp353
g63
(ima_dataset
TreatmentGroup
p354
(dp355
g217
(lp356
F3.0
aF59.0
asg219
I0
sg36
g127
sbsg65
(ima_dataset
TreatmentGroup
p357
(dp358
g217
(lp359
F7.0
aF64.0
asg219
I1
sg36
g131
sbssg223
g224
sg29
I00
sg228
I2
sbsssg229
I00
sg230
I1993
sg231
(lp360
g224
ag133
asg219
I1
sba(ima_dataset
Study
p361
(dp362
g35
I01
sg36
VGiamarellou
p363
sg38
(dp364
sg25
g26
sg40
Nsg41
(dp365
g7
(dp366
g12
(ima_dataset
MetaAnalyticUnit
p367
(dp368
g46
(dp369
g48
(dp370
Vtx B-tx A
p371
(dp372
g52
Nsg53
Nsg54
Nsg55
Nsg56
Nsg57
Nsg58
NssVtx A-tx B
p373
(dp374
g52
Nsg53
Nsg54
Nsg55
Nsg56
Nsg57
Nsg58
Nsssg61
(dp375
g63
(dp376
g52
Nsg53
Nsg54
Nsg55
Nsg56
Nsg57
Nsg58
Nssg65
(dp377
g52
Nsg53
Nsg54
Nsg55
Nsg56
Nsg57
Nsg58
Nsssg67
(dp378
g63
(dp379
g52
Nsg53
Nsg54
Nsg55
Nsg56
Nsg57
Nsg58
Nssg65
(dp380
g52
Nsg53
Nsg54
Nsg55
Nsg56
Nsg57
Nsg58
Nsssg71
(dp381
Vtx B-tx A
p382
(dp383
g52
Nsg53
Nsg54
Nsg55
Nsg56
Nsg57
Nsg58
NssVtx A-tx B
p384
(dp385
g52
F3.3044789753801358
sg53
F-1.1072543980439158
sg54
F1.09861228866811
sg55
F27.234348125670888
sg56
F3.0000000000000009
sg57
F0.33046504210308875
sg58
Nsssg77
(dp386
Vtx B-tx A
p387
(dp388
g52
Nsg53
Nsg54
Nsg55
Nsg56
Nsg57
Nsg58
NssVtx A-tx B
p389
(dp390
g52
Nsg53
Nsg54
Nsg55
Nsg56
Nsg57
Nsg58
Nsssg83
(dp391
Vtx B-tx A
p392
(dp393
g52
Nsg53
Nsg54
Nsg55
Nsg56
Nsg57
Nsg58
NssVtx A-tx B
p394
(dp395
g52
Nsg53
Nsg54
Nsg55
Nsg56
Nsg57
Nsg58
Nsssg89
(dp396
Vtx B-tx A
p397
(dp398
g52
Nsg53
Nsg54
Nsg55
Nsg56
Nsg57
Nsg58
NssVtx A-tx B
p399
(dp400
g52
Nsg53
Nsg54
Nsg55
Nsg56
Nsg57
Nsg58
Nsssg95
(dp401
Vtx B-tx A
p402
(dp403
g52
Nsg53
Nsg54
Nsg55
Nsg56
Nsg57
Nsg58
NssVtx A-tx B
p404
(dp405
g52
Nsg53
Nsg54
Nsg55
Nsg56
Nsg57
Nsg58
Nsssg101
(dp406
g63
(dp407
g52
Nsg53
Nsg54
Nsg55
Nsg56
Nsg57
Nsg58
Nssg65
(dp408
g52
Nsg53
Nsg54
Nsg55
Nsg56
Nsg57
Nsg58
Nsssg105
(dp409
g63
(dp410
g52
Nsg53
Nsg54
Nsg55
Nsg56
Nsg57
Nsg58
Nssg65
(dp411
g52
Nsg53
Nsg54
Nsg55
Nsg56
Nsg57
Nsg58
Nsssg109
(dp412
g63
(dp413
g52
Nsg53
Nsg54
Nsg55
Nsg56
Nsg57
Nsg58
Nssg65
(dp414
g52
Nsg53
Nsg54
Nsg55
Nsg56
Nsg57
Nsg58
Nsssg113
(dp415
Vtx B-tx A
p416
(dp417
g52
F1.153005466733426
sg53
F-3.493147972033936
sg54
F-1.170071252650255
sg55
F3.1676990314283091
sg56
F0.3103448275862068
sg57
F0.030405007247827034
sg58
NssVtx A-tx B
p418
(dp419
g52
F3.493147972033936
sg53
F-1.153005466733426
sg54
F1.170071252650255
sg55
F32.88931957322481
sg56
F3.2222222222222237
sg57
F0.31568655673361179
sg58
Nssssg119
(dp420
g63
(ima_dataset
TreatmentGroup
p421
(dp422
g123
(lp423
F3.0
aF30.0
asg125
I0
sg126
g127
sbsg65
(ima_dataset
TreatmentGroup
p424
(dp425
g123
(lp426
F1.0
aF30.0
asg125
I1
sg126
g131
sbssg132
g133
sg137
I00
sg138
I2
sbssg18
(dp427
g20
(ima_dataset
MetaAnalyticUnit
p428
(dp429
g142
(dp430
g144
(dp431
Vtx B-tx A
p432
(dp433
g148
Nsg149
Nsg150
Nsg151
Nsg152
Nsg153
Nsg154
NssVtx A-tx B
p434
(dp435
g148
Nsg149
Nsg150
Nsg151
Nsg152
Nsg153
Nsg154
Nsssg157
(dp436
g63
(dp437
g148
Nsg149
Nsg150
Nsg151
Nsg152
Nsg153
Nsg154
Nssg65
(dp438
g148
Nsg149
Nsg150
Nsg151
Nsg152
Nsg153
Nsg154
Nsssg161
(dp439
g63
(dp440
g148
Nsg149
Nsg150
Nsg151
Nsg152
Nsg153
Nsg154
Nssg65
(dp441
g148
Nsg149
Nsg150
Nsg151
Nsg152
Nsg153
Nsg154
Nsssg165
(dp442
Vtx B-tx A
p443
(dp444
g148
F5.24982946677064
sg149
F-0.4540389211738991
sg150
F2.3978952727983707
sg151
F190.53377334828946
sg152
F11.000000000000002
sg153
F0.63505801556145092
sg154
NssVtx A-tx B
p445
(dp446
g148
F0.4540389211738991
sg149
F-5.24982946677064
sg150
F-2.3978952727983707
sg151
F1.5746592838701612
sg152
F0.090909090909090898
sg153
F0.0052484133517475291
sg154
Nsssg171
(dp447
Vtx B-tx A
p448
(dp449
g148
Nsg149
Nsg150
Nsg151
Nsg152
Nsg153
Nsg154
NssVtx A-tx B
p450
(dp451
g148
Nsg149
Nsg150
Nsg151
Nsg152
Nsg153
Nsg154
Nsssg177
(dp452
Vtx B-tx A
p453
(dp454
g148
Nsg149
Nsg150
Nsg151
Nsg152
Nsg153
Nsg154
NssVtx A-tx B
p455
(dp456
g148
Nsg149
Nsg150
Nsg151
Nsg152
Nsg153
Nsg154
Nsssg183
(dp457
Vtx B-tx A
p458
(dp459
g148
Nsg149
Nsg150
Nsg151
Nsg152
Nsg153
Nsg154
NssVtx A-tx B
p460
(dp461
g148
Nsg149
Nsg150
Nsg151
Nsg152
Nsg153
Nsg154
Nsssg189
(dp462
Vtx B-tx A
p463
(dp464
g148
Nsg149
Nsg150
Nsg151
Nsg152
Nsg153
Nsg154
NssVtx A-tx B
p465
(dp466
g148
Nsg149
Nsg150
Nsg151
Nsg152
Nsg153
Nsg154
Nsssg195
(dp467
g63
(dp468
g148
Nsg149
Nsg150
Nsg151
Nsg152
Nsg153
Nsg154
Nssg65
(dp469
g148
Nsg149
Nsg150
Nsg151
Nsg152
Nsg153
Nsg154
Nsssg199
(dp470
g63
(dp471
g148
Nsg149
Nsg150
Nsg151
Nsg152
Nsg153
Nsg154
Nssg65
(dp472
g148
Nsg149
Nsg150
Nsg151
Nsg152
Nsg153
Nsg154
Nsssg203
(dp473
g63
(dp474
g148
Nsg149
Nsg150
Nsg151
Nsg152
Nsg153
Nsg154
Nssg65
(dp475
g148
Nsg149
Nsg150
Nsg151
Nsg152
Nsg153
Nsg154
Nsssg207
(dp476
Vtx B-tx A
p477
(dp478
g148
F5.5193846019035213
sg149
F-0.36549759340880827
sg150
F2.5769435042473563
sg151
F249.48145952354145
sg152
F13.156862745098042
sg153
F0.69385130912710025
sg154
NssVtx A-tx B
p479
(dp480
g148
F0.36549759340880783
sg149
F-5.5193846019035204
sg150
F-2.5769435042473563
sg151
F1.441230976789609
sg152
F0.076005961251862875
sg153
F0.004008313891981378
sg154
Nssssg213
(dp481
g63
(ima_dataset
TreatmentGroup
p482
(dp483
g217
(lp484
F0.0
aF30.0
asg219
I0
sg36
g127
sbsg65
(ima_dataset
TreatmentGroup
p485
(dp486
g217
(lp487
F5.0
aF30.0
asg219
I1
sg36
g131
sbssg223
g224
sg29
I00
sg228
I2
sbsssg229
I00
sg230
I1991
sg231
(lp488
g224
ag133
asg219
I2
sba(ima_dataset
Study
p489
(dp490
g35
I01
sg36
VMaller
p491
sg38
(dp492
sg25
g26
sg40
Nsg41
(dp493
g7
(dp494
g12
(ima_dataset
MetaAnalyticUnit
p495
(dp496
g46
(dp497
g48
(dp498
Vtx B-tx A
p499
(dp500
g52
Nsg53
Nsg54
Nsg55
Nsg56
Nsg57
Nsg58
NssVtx A-tx B
p501
(dp502
g52
Nsg53
Nsg54
Nsg55
Nsg56
Nsg57
Nsg58
Nsssg61
(dp503
g63
(dp504
g52
Nsg53
Nsg54
Nsg55
Nsg56
Nsg57
Nsg58
Nssg65
(dp505
g52
Nsg53
Nsg54
Nsg55
Nsg56
Nsg57
Nsg58
Nsssg67
(dp506
g63
(dp507
g52
Nsg53
Nsg54
Nsg55
Nsg56
Nsg57
Nsg58
Nssg65
(dp508
g52
Nsg53
Nsg54
Nsg55
Nsg56
Nsg57
Nsg58
Nsssg71
(dp509
Vtx B-tx A
p510
(dp511
g52
Nsg53
Nsg54
Nsg55
Nsg56
Nsg57
Nsg58
NssVtx A-tx B
p512
(dp513
g52
F0.57619508584759949
sg53
F-1.1295082907277463
sg54
F-0.2766566024400734
sg55
F1.7792556200375218
sg56
F0.75831485587583136
sg57
F0.32319213392725216
sg58
Nsssg77
(dp514
Vtx B-tx A
p515
(dp516
g52
Nsg53
Nsg54
Nsg55
Nsg56
Nsg57
Nsg58
NssVtx A-tx B
p517
(dp518
g52
Nsg53
Nsg54
Nsg55
Nsg56
Nsg57
Nsg58
Nsssg83
(dp519
Vtx B-tx A
p520
(dp521
g52
Nsg53
Nsg54
Nsg55
Nsg56
Nsg57
Nsg58
NssVtx A-tx B
p522
(dp523
g52
Nsg53
Nsg54
Nsg55
Nsg56
Nsg57
Nsg58
Nsssg89
(dp524
Vtx B-tx A
p525
(dp526
g52
Nsg53
Nsg54
Nsg55
Nsg56
Nsg57
Nsg58
NssVtx A-tx B
p527
(dp528
g52
Nsg53
Nsg54
Nsg55
Nsg56
Nsg57
Nsg58
Nsssg95
(dp529
Vtx B-tx A
p530
(dp531
g52
Nsg53
Nsg54
Nsg55
Nsg56
Nsg57
Nsg58
NssVtx A-tx B
p532
(dp533
g52
Nsg53
Nsg54
Nsg55
Nsg56
Nsg57
Nsg58
Nsssg101
(dp534
g63
(dp535
g52
Nsg53
Nsg54
Nsg55
Nsg56
Nsg57
Nsg58
Nssg65
(dp536
g52
Nsg53
Nsg54
Nsg55
Nsg56
Nsg57
Nsg58
Nsssg105
(dp537
g63
(dp538
g52
Nsg53
Nsg54
Nsg55
Nsg56
Nsg57
Nsg58
Nssg65
(dp539
g52
Nsg53
Nsg54
Nsg55
Nsg56
Nsg57
Nsg58
Nsssg109
(dp540
g63
(dp541
g52
Nsg53
Nsg54
Nsg55
Nsg56
Nsg57
Nsg58
Nssg65
(dp542
g52
Nsg53
Nsg54
Nsg55
Nsg56
Nsg57
Nsg58
Nsssg113
(dp543
Vtx B-tx A
p544
(dp545
g52
F1.2053250873799186
sg53
F-0.61465324337345983
sg54
F0.29533592200322945
sg55
F3.3378439926699914
sg56
F1.3435776201733647
sg57
F0.54082839862947429
sg58
NssVtx A-tx B
p546
(dp547
g52
F0.61465324337345995
sg53
F-1.2053250873799188
sg54
F-0.29533592200322945
sg55
F1.8490153300642556
sg56
F0.74428152492668631
sg57
F0.29959458926062171
sg58
Nssssg119
(dp548
g63
(ima_dataset
TreatmentGroup
p549
(dp550
g123
(lp551
F9.0
aF164.0
asg125
I0
sg126
g127
sbsg65
(ima_dataset
TreatmentGroup
p552
(dp553
g123
(lp554
F11.0
aF152.0
asg125
I1
sg126
g131
sbssg132
g133
sg137
I00
sg138
I2
sbssg18
(dp555
g20
(ima_dataset
MetaAnalyticUnit
p556
(dp557
g142
(dp558
g144
(dp559
Vtx B-tx A
p560
(dp561
g148
Nsg149
Nsg150
Nsg151
Nsg152
Nsg153
Nsg154
NssVtx A-tx B
p562
(dp563
g148
Nsg149
Nsg150
Nsg151
Nsg152
Nsg153
Nsg154
Nsssg157
(dp564
g63
(dp565
g148
Nsg149
Nsg150
Nsg151
Nsg152
Nsg153
Nsg154
Nssg65
(dp566
g148
Nsg149
Nsg150
Nsg151
Nsg152
Nsg153
Nsg154
Nsssg161
(dp567
g63
(dp568
g148
Nsg149
Nsg150
Nsg151
Nsg152
Nsg153
Nsg154
Nssg65
(dp569
g148
Nsg149
Nsg150
Nsg151
Nsg152
Nsg153
Nsg154
Nsssg165
(dp570
Vtx B-tx A
p571
(dp572
g148
F0.36655791733512511
sg149
F-0.97356534678908846
sg150
F-0.30350371472698168
sg151
F1.4427599589425772
sg152
F0.73822714681440449
sg153
F0.37773388214430392
sg154
NssVtx A-tx B
p573
(dp574
g148
F0.97356534678908846
sg149
F-0.36655791733512511
sg150
F0.30350371472698168
sg151
F2.6473664324821531
sg152
F1.3545966228893058
sg153
F0.69311599188884931
sg154
Nsssg171
(dp575
Vtx B-tx A
p576
(dp577
g148
Nsg149
Nsg150
Nsg151
Nsg152
Nsg153
Nsg154
NssVtx A-tx B
p578
(dp579
g148
Nsg149
Nsg150
Nsg151
Nsg152
Nsg153
Nsg154
Nsssg177
(dp580
Vtx B-tx A
p581
(dp582
g148
Nsg149
Nsg150
Nsg151
Nsg152
Nsg153
Nsg154
NssVtx A-tx B
p583
(dp584
g148
Nsg149
Nsg150
Nsg151
Nsg152
Nsg153
Nsg154
Nsssg183
(dp585
Vtx B-tx A
p586
(dp587
g148
Nsg149
Nsg150
Nsg151
Nsg152
Nsg153
Nsg154
NssVtx A-tx B
p588
(dp589
g148
Nsg149
Nsg150
Nsg151
Nsg152
Nsg153
Nsg154
Nsssg189
(dp590
Vtx B-tx A
p591
(dp592
g148
Nsg149
Nsg150
Nsg151
Nsg152
Nsg153
Nsg154
NssVtx A-tx B
p593
(dp594
g148
Nsg149
Nsg150
Nsg151
Nsg152
Nsg153
Nsg154
Nsssg195
(dp595
g63
(dp596
g148
Nsg149
Nsg150
Nsg151
Nsg152
Nsg153
Nsg154
Nssg65
(dp597
g148
Nsg149
Nsg150
Nsg151
Nsg152
Nsg153
Nsg154
Nsssg199
(dp598
g63
(dp599
g148
Nsg149
Nsg150
Nsg151
Nsg152
Nsg153
Nsg154
Nssg65
(dp600
g148
Nsg149
Nsg150
Nsg151
Nsg152
Nsg153
Nsg154
Nsssg203
(dp601
g63
(dp602
g148
Nsg149
Nsg150
Nsg151
Nsg152
Nsg153
Nsg154
Nssg65
(dp603
g148
Nsg149
Nsg150
Nsg151
Nsg152
Nsg153
Nsg154
Nsssg207
(dp604
Vtx B-tx A
p605
(dp606
g148
F0.40560804970703013
sg149
F-1.0800676745370725
sg150
F-0.33722981241502126
sg151
F1.5002144277232543
sg152
F0.71374479363877308
sg153
F0.33957254445257878
sg154
NssVtx A-tx B
p607
(dp608
g148
F1.0800676745370725
sg149
F-0.40560804970703013
sg150
F0.33722981241502126
sg151
F2.9448788376342061
sg152
F1.4010610079575598
sg153
F0.66657137907786523
sg154
Nssssg213
(dp609
g63
(ima_dataset
TreatmentGroup
p610
(dp611
g217
(lp612
F19.0
aF164.0
asg219
I0
sg36
g127
sbsg65
(ima_dataset
TreatmentGroup
p613
(dp614
g217
(lp615
F13.0
aF152.0
asg219
I1
sg36
g131
sbssg223
g224
sg29
I00
sg228
I2
sbsssg229
I00
sg230
I1993
sg231
(lp616
g224
ag133
asg219
I3
sba(ima_dataset
Study
p617
(dp618
g35
I01
sg36
VSturm
p619
sg38
(dp620
sg25
g26
sg40
Nsg41
(dp621
g7
(dp622
g12
(ima_dataset
MetaAnalyticUnit
p623
(dp624
g46
(dp625
g48
(dp626
Vtx B-tx A
p627
(dp628
g52
Nsg53
Nsg54
Nsg55
Nsg56
Nsg57
Nsg58
NssVtx A-tx B
p629
(dp630
g52
Nsg53
Nsg54
Nsg55
Nsg56
Nsg57
Nsg58
Nsssg61
(dp631
g63
(dp632
g52
Nsg53
Nsg54
Nsg55
Nsg56
Nsg57
Nsg58
Nssg65
(dp633
g52
Nsg53
Nsg54
Nsg55
Nsg56
Nsg57
Nsg58
Nsssg67
(dp634
g63
(dp635
g52
Nsg53
Nsg54
Nsg55
Nsg56
Nsg57
Nsg58
Nssg65
(dp636
g52
Nsg53
Nsg54
Nsg55
Nsg56
Nsg57
Nsg58
Nsssg71
(dp637
Vtx B-tx A
p638
(dp639
g52
Nsg53
Nsg54
Nsg55
Nsg56
Nsg57
Nsg58
NssVtx A-tx B
p640
(dp641
g52
F4.2666154082652854
sg53
F-2.0693908309290672
sg54
F1.0986122886681091
sg55
F71.279973277327713
sg56
F2.9999999999999982
sg57
F0.12626267359814869
sg58
Nsssg77
(dp642
Vtx B-tx A
p643
(dp644
g52
Nsg53
Nsg54
Nsg55
Nsg56
Nsg57
Nsg58
NssVtx A-tx B
p645
(dp646
g52
Nsg53
Nsg54
Nsg55
Nsg56
Nsg57
Nsg58
Nsssg83
(dp647
Vtx B-tx A
p648
(dp649
g52
Nsg53
Nsg54
Nsg55
Nsg56
Nsg57
Nsg58
NssVtx A-tx B
p650
(dp651
g52
Nsg53
Nsg54
Nsg55
Nsg56
Nsg57
Nsg58
Nsssg89
(dp652
Vtx B-tx A
p653
(dp654
g52
Nsg53
Nsg54
Nsg55
Nsg56
Nsg57
Nsg58
NssVtx A-tx B
p655
(dp656
g52
Nsg53
Nsg54
Nsg55
Nsg56
Nsg57
Nsg58
Nsssg95
(dp657
Vtx B-tx A
p658
(dp659
g52
Nsg53
Nsg54
Nsg55
Nsg56
Nsg57
Nsg58
NssVtx A-tx B
p660
(dp661
g52
Nsg53
Nsg54
Nsg55
Nsg56
Nsg57
Nsg58
Nsssg101
(dp662
g63
(dp663
g52
Nsg53
Nsg54
Nsg55
Nsg56
Nsg57
Nsg58
Nssg65
(dp664
g52
Nsg53
Nsg54
Nsg55
Nsg56
Nsg57
Nsg58
Nsssg105
(dp665
g63
(dp666
g52
Nsg53
Nsg54
Nsg55
Nsg56
Nsg57
Nsg58
Nssg65
(dp667
g52
Nsg53
Nsg54
Nsg55
Nsg56
Nsg57
Nsg58
Nsssg109
(dp668
g63
(dp669
g52
Nsg53
Nsg54
Nsg55
Nsg56
Nsg57
Nsg58
Nssg65
(dp670
g52
Nsg53
Nsg54
Nsg55
Nsg56
Nsg57
Nsg58
Nsssg113
(dp671
Vtx B-tx A
p672
(dp673
g52
F2.107390103894923
sg53
F-4.3601738094452944
sg54
F-1.1263918527751855
sg55
F8.2267422990869541
sg56
F0.32420091324200911
sg57
F0.012776166838071238
sg58
NssVtx A-tx B
p674
(dp675
g52
F4.3601738094452944
sg53
F-2.107390103894923
sg54
F1.1263918527751855
sg55
F78.270737434340333
sg56
F3.0845070422535215
sg57
F0.12155479819891589
sg58
Nssssg119
(dp676
g63
(ima_dataset
TreatmentGroup
p677
(dp678
g123
(lp679
F1.0
aF36.0
asg125
I0
sg126
g127
sbsg65
(ima_dataset
TreatmentGroup
p680
(dp681
g123
(lp682
F0.0
aF36.0
asg125
I1
sg126
g131
sbssg132
g133
sg137
I00
sg138
I2
sbssg18
(dp683
g20
(ima_dataset
MetaAnalyticUnit
p684
(dp685
g142
(dp686
g144
(dp687
Vtx B-tx A
p688
(dp689
g148
Nsg149
Nsg150
Nsg151
Nsg152
Nsg153
Nsg154
NssVtx A-tx B
p690
(dp691
g148
Nsg149
Nsg150
Nsg151
Nsg152
Nsg153
Nsg154
Nsssg157
(dp692
g63
(dp693
g148
Nsg149
Nsg150
Nsg151
Nsg152
Nsg153
Nsg154
Nssg65
(dp694
g148
Nsg149
Nsg150
Nsg151
Nsg152
Nsg153
Nsg154
Nsssg161
(dp695
g63
(dp696
g148
Nsg149
Nsg150
Nsg151
Nsg152
Nsg153
Nsg154
Nssg65
(dp697
g148
Nsg149
Nsg150
Nsg151
Nsg152
Nsg153
Nsg154
Nsssg165
(dp698
Vtx B-tx A
p699
(dp700
g148
F4.6114130533914119
sg149
F-1.3925372285232118
sg150
F1.6094379124341001
sg151
F100.62623947143506
sg152
F4.9999999999999982
sg153
F0.24844414470141041
sg154
NssVtx A-tx B
p701
(dp702
g148
F1.3925372285232118
sg149
F-4.6114130533914119
sg150
F-1.6094379124341001
sg151
F4.0250495788574048
sg152
F0.20000000000000007
sg153
F0.0099377657880564216
sg154
Nsssg171
(dp703
Vtx B-tx A
p704
(dp705
g148
Nsg149
Nsg150
Nsg151
Nsg152
Nsg153
Nsg154
NssVtx A-tx B
p706
(dp707
g148
Nsg149
Nsg150
Nsg151
Nsg152
Nsg153
Nsg154
Nsssg177
(dp708
Vtx B-tx A
p709
(dp710
g148
Nsg149
Nsg150
Nsg151
Nsg152
Nsg153
Nsg154
NssVtx A-tx B
p711
(dp712
g148
Nsg149
Nsg150
Nsg151
Nsg152
Nsg153
Nsg154
Nsssg183
(dp713
Vtx B-tx A
p714
(dp715
g148
Nsg149
Nsg150
Nsg151
Nsg152
Nsg153
Nsg154
NssVtx A-tx B
p716
(dp717
g148
Nsg149
Nsg150
Nsg151
Nsg152
Nsg153
Nsg154
Nsssg189
(dp718
Vtx B-tx A
p719
(dp720
g148
Nsg149
Nsg150
Nsg151
Nsg152
Nsg153
Nsg154
NssVtx A-tx B
p721
(dp722
g148
Nsg149
Nsg150
Nsg151
Nsg152
Nsg153
Nsg154
Nsssg195
(dp723
g63
(dp724
g148
Nsg149
Nsg150
Nsg151
Nsg152
Nsg153
Nsg154
Nssg65
(dp725
g148
Nsg149
Nsg150
Nsg151
Nsg152
Nsg153
Nsg154
Nsssg199
(dp726
g63
(dp727
g148
Nsg149
Nsg150
Nsg151
Nsg152
Nsg153
Nsg154
Nssg65
(dp728
g148
Nsg149
Nsg150
Nsg151
Nsg152
Nsg153
Nsg154
Nsssg203
(dp729
g63
(dp730
g148
Nsg149
Nsg150
Nsg151
Nsg152
Nsg153
Nsg154
Nssg65
(dp731
g148
Nsg149
Nsg150
Nsg151
Nsg152
Nsg153
Nsg154
Nsssg207
(dp732
Vtx B-tx A
p733
(dp734
g148
F4.7376133128154727
sg149
F-1.4060316148450087
sg150
F1.6657908489852318
sg151
F114.16140870278059
sg152
F5.2898550724637659
sg153
F0.24511406267351962
sg154
NssVtx A-tx B
p735
(dp736
g148
F1.4060316148450087
sg149
F-4.7376133128154727
sg150
F-1.6657908489852318
sg151
F4.0797332845482339
sg152
F0.18904109589041102
sg153
F0.0087595275090157788
sg154
Nssssg213
(dp737
g63
(ima_dataset
TreatmentGroup
p738
(dp739
g217
(lp740
F0.0
aF36.0
asg219
I0
sg36
g127
sbsg65
(ima_dataset
TreatmentGroup
p741
(dp742
g217
(lp743
F2.0
aF36.0
asg219
I1
sg36
g131
sbssg223
g224
sg29
I00
sg228
I2
sbsssg229
I00
sg230
I1989
sg231
(lp744
g224
ag133
asg219
I4
sba(ima_dataset
Study
p745
(dp746
g35
I01
sg36
VMarik
p747
sg38
(dp748
sg25
g26
sg40
Nsg41
(dp749
g7
(dp750
g12
(ima_dataset
MetaAnalyticUnit
p751
(dp752
g46
(dp753
g48
(dp754
Vtx B-tx A
p755
(dp756
g52
Nsg53
Nsg54
Nsg55
Nsg56
Nsg57
Nsg58
NssVtx A-tx B
p757
(dp758
g52
Nsg53
Nsg54
Nsg55
Nsg56
Nsg57
Nsg58
Nsssg61
(dp759
g63
(dp760
g52
Nsg53
Nsg54
Nsg55
Nsg56
Nsg57
Nsg58
Nssg65
(dp761
g52
Nsg53
Nsg54
Nsg55
Nsg56
Nsg57
Nsg58
Nsssg67
(dp762
g63
(dp763
g52
Nsg53
Nsg54
Nsg55
Nsg56
Nsg57
Nsg58
Nssg65
(dp764
g52
Nsg53
Nsg54
Nsg55
Nsg56
Nsg57
Nsg58
Nsssg71
(dp765
Vtx B-tx A
p766
(dp767
g52
Nsg53
Nsg54
Nsg55
Nsg56
Nsg57
Nsg58
NssVtx A-tx B
p768
(dp769
g52
F0.72658924614274145
sg53
F-3.6325607173798673
sg54
F-1.4529857356185629
sg55
F2.0680150747338271
sg56
F0.23387096774193547
sg57
F0.026448370817407731
sg58
Nsssg77
(dp770
Vtx B-tx A
p771
(dp772
g52
Nsg53
Nsg54
Nsg55
Nsg56
Nsg57
Nsg58
NssVtx A-tx B
p773
(dp774
g52
Nsg53
Nsg54
Nsg55
Nsg56
Nsg57
Nsg58
Nsssg83
(dp775
Vtx B-tx A
p776
(dp777
g52
Nsg53
Nsg54
Nsg55
Nsg56
Nsg57
Nsg58
NssVtx A-tx B
p778
(dp779
g52
Nsg53
Nsg54
Nsg55
Nsg56
Nsg57
Nsg58
Nsssg89
(dp780
Vtx B-tx A
p781
(dp782
g52
Nsg53
Nsg54
Nsg55
Nsg56
Nsg57
Nsg58
NssVtx A-tx B
p783
(dp784
g52
Nsg53
Nsg54
Nsg55
Nsg56
Nsg57
Nsg58
Nsssg95
(dp785
Vtx B-tx A
p786
(dp787
g52
Nsg53
Nsg54
Nsg55
Nsg56
Nsg57
Nsg58
NssVtx A-tx B
p788
(dp789
g52
Nsg53
Nsg54
Nsg55
Nsg56
Nsg57
Nsg58
Nsssg101
(dp790
g63
(dp791
g52
Nsg53
Nsg54
Nsg55
Nsg56
Nsg57
Nsg58
Nssg65
(dp792
g52
Nsg53
Nsg54
Nsg55
Nsg56
Nsg57
Nsg58
Nsssg105
(dp793
g63
(dp794
g52
Nsg53
Nsg54
Nsg55
Nsg56
Nsg57
Nsg58
Nssg65
(dp795
g52
Nsg53
Nsg54
Nsg55
Nsg56
Nsg57
Nsg58
Nsssg109
(dp796
g63
(dp797
g52
Nsg53
Nsg54
Nsg55
Nsg56
Nsg57
Nsg58
Nssg65
(dp798
g52
Nsg53
Nsg54
Nsg55
Nsg56
Nsg57
Nsg58
Nsssg113
(dp799
Vtx B-tx A
p800
(dp801
g52
F3.6776694197766249
sg53
F-0.72869527346592111
sg54
F1.4744870731553519
sg55
F39.55410255878158
sg56
F4.3687943262411366
sg57
F0.48253815989459981
sg58
NssVtx A-tx B
p802
(dp803
g52
F0.72869527346592111
sg53
F-3.6776694197766249
sg54
F-1.4744870731553519
sg55
F2.0723749603936583
sg56
F0.22889610389610382
sg57
F0.025281827555407036
sg58
Nssssg119
(dp804
g63
(ima_dataset
TreatmentGroup
p805
(dp806
g123
(lp807
F1.0
aF155.0
asg125
I0
sg126
g127
sbsg65
(ima_dataset
TreatmentGroup
p808
(dp809
g123
(lp810
F4.0
aF145.0
asg125
I1
sg126
g131
sbssg132
g133
sg137
I00
sg138
I2
sbssg18
(dp811
g20
(ima_dataset
MetaAnalyticUnit
p812
(dp813
g142
(dp814
g144
(dp815
Vtx B-tx A
p816
(dp817
g148
Nsg149
Nsg150
Nsg151
Nsg152
Nsg153
Nsg154
NssVtx A-tx B
p818
(dp819
g148
Nsg149
Nsg150
Nsg151
Nsg152
Nsg153
Nsg154
Nsssg157
(dp820
g63
(dp821
g148
Nsg149
Nsg150
Nsg151
Nsg152
Nsg153
Nsg154
Nssg65
(dp822
g148
Nsg149
Nsg150
Nsg151
Nsg152
Nsg153
Nsg154
Nsssg161
(dp823
g63
(dp824
g148
Nsg149
Nsg150
Nsg151
Nsg152
Nsg153
Nsg154
Nssg65
(dp825
g148
Nsg149
Nsg150
Nsg151
Nsg152
Nsg153
Nsg154
Nsssg165
(dp826
Vtx B-tx A
p827
(dp828
g148
F1.1185886753844045
sg149
F0.28224159379122887
sg150
F0.70041513458781668
sg151
F3.060531750022502
sg152
F2.0145888594164454
sg153
F1.3260990585884347
sg154
NssVtx A-tx B
p829
(dp830
g148
F-0.28224159379122887
sg149
F-1.1185886753844045
sg150
F-0.70041513458781668
sg151
F0.75409147870480309
sg152
F0.4963791968400264
sg153
F0.32674060642979691
sg154
Nsssg171
(dp831
Vtx B-tx A
p832
(dp833
g148
Nsg149
Nsg150
Nsg151
Nsg152
Nsg153
Nsg154
NssVtx A-tx B
p834
(dp835
g148
Nsg149
Nsg150
Nsg151
Nsg152
Nsg153
Nsg154
Nsssg177
(dp836
Vtx B-tx A
p837
(dp838
g148
Nsg149
Nsg150
Nsg151
Nsg152
Nsg153
Nsg154
NssVtx A-tx B
p839
(dp840
g148
Nsg149
Nsg150
Nsg151
Nsg152
Nsg153
Nsg154
Nsssg183
(dp841
Vtx B-tx A
p842
(dp843
g148
Nsg149
Nsg150
Nsg151
Nsg152
Nsg153
Nsg154
NssVtx A-tx B
p844
(dp845
g148
Nsg149
Nsg150
Nsg151
Nsg152
Nsg153
Nsg154
Nsssg189
(dp846
Vtx B-tx A
p847
(dp848
g148
Nsg149
Nsg150
Nsg151
Nsg152
Nsg153
Nsg154
NssVtx A-tx B
p849
(dp850
g148
Nsg149
Nsg150
Nsg151
Nsg152
Nsg153
Nsg154
Nsssg195
(dp851
g63
(dp852
g148
Nsg149
Nsg150
Nsg151
Nsg152
Nsg153
Nsg154
Nssg65
(dp853
g148
Nsg149
Nsg150
Nsg151
Nsg152
Nsg153
Nsg154
Nsssg199
(dp854
g63
(dp855
g148
Nsg149
Nsg150
Nsg151
Nsg152
Nsg153
Nsg154
Nssg65
(dp856
g148
Nsg149
Nsg150
Nsg151
Nsg152
Nsg153
Nsg154
Nsssg203
(dp857
g63
(dp858
g148
Nsg149
Nsg150
Nsg151
Nsg152
Nsg153
Nsg154
Nssg65
(dp859
g148
Nsg149
Nsg150
Nsg151
Nsg152
Nsg153
Nsg154
Nsssg207
(dp860
Vtx B-tx A
p861
(dp862
g148
F1.4731911729433602
sg149
F0.38518477302260079
sg150
F0.9291879729829805
sg151
F4.3631364715469578
sg152
F2.5324519230769234
sg153
F1.4698858916100221
sg154
NssVtx A-tx B
p863
(dp864
g148
F-0.38518477302260079
sg149
F-1.4731911729433602
sg150
F-0.9291879729829805
sg151
F0.68032491889874647
sg152
F0.39487422876127193
sg153
F0.22919292268789571
sg154
Nssssg213
(dp865
g63
(ima_dataset
TreatmentGroup
p866
(dp867
g217
(lp868
F26.0
aF155.0
asg219
I0
sg36
g127
sbsg65
(ima_dataset
TreatmentGroup
p869
(dp870
g217
(lp871
F49.0
aF145.0
asg219
I1
sg36
g131
sbssg223
g224
sg29
I00
sg228
I2
sbsssg229
I00
sg230
I1991
sg231
(lp872
g224
ag133
asg219
I5
sba(ima_dataset
Study
p873
(dp874
g35
I01
sg36
VMuijsken
p875
sg38
(dp876
sg25
g26
sg40
Nsg41
(dp877
g7
(dp878
g12
(ima_dataset
MetaAnalyticUnit
p879
(dp880
g46
(dp881
g48
(dp882
Vtx B-tx A
p883
(dp884
g52
Nsg53
Nsg54
Nsg55
Nsg56
Nsg57
Nsg58
NssVtx A-tx B
p885
(dp886
g52
Nsg53
Nsg54
Nsg55
Nsg56
Nsg57
Nsg58
Nsssg61
(dp887
g63
(dp888
g52
Nsg53
Nsg54
Nsg55
Nsg56
Nsg57
Nsg58
Nssg65
(dp889
g52
Nsg53
Nsg54
Nsg55
Nsg56
Nsg57
Nsg58
Nsssg67
(dp890
g63
(dp891
g52
Nsg53
Nsg54
Nsg55
Nsg56
Nsg57
Nsg58
Nssg65
(dp892
g52
Nsg53
Nsg54
Nsg55
Nsg56
Nsg57
Nsg58
Nsssg71
(dp893
Vtx B-tx A
p894
(dp895
g52
Nsg53
Nsg54
Nsg55
Nsg56
Nsg57
Nsg58
NssVtx A-tx B
p896
(dp897
g52
F0.86513200851367356
sg53
F-2.265267255322712
sg54
F-0.70006762340451911
sg55
F2.3753196276951201
sg56
F0.49655172413793103
sg57
F0.10380228911912949
sg58
Nsssg77
(dp898
Vtx B-tx A
p899
(dp900
g52
Nsg53
Nsg54
Nsg55
Nsg56
Nsg57
Nsg58
NssVtx A-tx B
p901
(dp902
g52
Nsg53
Nsg54
Nsg55
Nsg56
Nsg57
Nsg58
Nsssg83
(dp903
Vtx B-tx A
p904
(dp905
g52
Nsg53
Nsg54
Nsg55
Nsg56
Nsg57
Nsg58
NssVtx A-tx B
p906
(dp907
g52
Nsg53
Nsg54
Nsg55
Nsg56
Nsg57
Nsg58
Nsssg89
(dp908
Vtx B-tx A
p909
(dp910
g52
Nsg53
Nsg54
Nsg55
Nsg56
Nsg57
Nsg58
NssVtx A-tx B
p911
(dp912
g52
Nsg53
Nsg54
Nsg55
Nsg56
Nsg57
Nsg58
Nsssg95
(dp913
Vtx B-tx A
p914
(dp915
g52
Nsg53
Nsg54
Nsg55
Nsg56
Nsg57
Nsg58
NssVtx A-tx B
p916
(dp917
g52
Nsg53
Nsg54
Nsg55
Nsg56
Nsg57
Nsg58
Nsssg101
(dp918
g63
(dp919
g52
Nsg53
Nsg54
Nsg55
Nsg56
Nsg57
Nsg58
Nssg65
(dp920
g52
Nsg53
Nsg54
Nsg55
Nsg56
Nsg57
Nsg58
Nsssg105
(dp921
g63
(dp922
g52
Nsg53
Nsg54
Nsg55
Nsg56
Nsg57
Nsg58
Nssg65
(dp923
g52
Nsg53
Nsg54
Nsg55
Nsg56
Nsg57
Nsg58
Nsssg109
(dp924
g63
(dp925
g52
Nsg53
Nsg54
Nsg55
Nsg56
Nsg57
Nsg58
Nssg65
(dp926
g52
Nsg53
Nsg54
Nsg55
Nsg56
Nsg57
Nsg58
Nsssg113
(dp927
Vtx B-tx A
p928
(dp929
g52
F2.497214403893814
sg53
F-0.94093361710713852
sg54
F0.77814039339333774
sg55
F12.148605674415208
sg56
F2.1774193548387095
sg57
F0.39026330871953702
sg58
NssVtx A-tx B
p930
(dp931
g52
F0.9409336171071383
sg53
F-2.497214403893814
sg54
F-0.77814039339333774
sg55
F2.5623725768149281
sg56
F0.45925925925925931
sg57
F0.082313973043506211
sg58
Nssssg119
(dp932
g63
(ima_dataset
TreatmentGroup
p933
(dp934
g123
(lp935
F2.0
aF29.0
asg125
I0
sg126
g127
sbsg65
(ima_dataset
TreatmentGroup
p936
(dp937
g123
(lp938
F5.0
aF36.0
asg125
I1
sg126
g131
sbssg132
g133
sg137
I00
sg138
I2
sbssg18
(dp939
g20
(ima_dataset
MetaAnalyticUnit
p940
(dp941
g142
(dp942
g144
(dp943
Vtx B-tx A
p944
(dp945
g148
Nsg149
Nsg150
Nsg151
Nsg152
Nsg153
Nsg154
NssVtx A-tx B
p946
(dp947
g148
Nsg149
Nsg150
Nsg151
Nsg152
Nsg153
Nsg154
Nsssg157
(dp948
g63
(dp949
g148
Nsg149
Nsg150
Nsg151
Nsg152
Nsg153
Nsg154
Nssg65
(dp950
g148
Nsg149
Nsg150
Nsg151
Nsg152
Nsg153
Nsg154
Nsssg161
(dp951
g63
(dp952
g148
Nsg149
Nsg150
Nsg151
Nsg152
Nsg153
Nsg154
Nssg65
(dp953
g148
Nsg149
Nsg150
Nsg151
Nsg152
Nsg153
Nsg154
Nsssg165
(dp954
Vtx B-tx A
p955
(dp956
g148
F0.56643450897238534
sg149
F-1.3210229712553216
sg150
F-0.37729423114146821
sg151
F1.7619735375284109
sg152
F0.68571428571428561
sg153
F0.26686216995757306
sg154
NssVtx A-tx B
p957
(dp958
g148
F1.3210229712553216
sg149
F-0.56643450897238534
sg150
F0.37729423114146821
sg151
F3.7472527490838607
sg152
F1.4583333333333335
sg153
F0.56754541353824139
sg154
Nsssg171
(dp959
Vtx B-tx A
p960
(dp961
g148
Nsg149
Nsg150
Nsg151
Nsg152
Nsg153
Nsg154
NssVtx A-tx B
p962
(dp963
g148
Nsg149
Nsg150
Nsg151
Nsg152
Nsg153
Nsg154
Nsssg177
(dp964
Vtx B-tx A
p965
(dp966
g148
Nsg149
Nsg150
Nsg151
Nsg152
Nsg153
Nsg154
NssVtx A-tx B
p967
(dp968
g148
Nsg149
Nsg150
Nsg151
Nsg152
Nsg153
Nsg154
Nsssg183
(dp969
Vtx B-tx A
p970
(dp971
g148
Nsg149
Nsg150
Nsg151
Nsg152
Nsg153
Nsg154
NssVtx A-tx B
p972
(dp973
g148
Nsg149
Nsg150
Nsg151
Nsg152
Nsg153
Nsg154
Nsssg189
(dp974
Vtx B-tx A
p975
(dp976
g148
Nsg149
Nsg150
Nsg151
Nsg152
Nsg153
Nsg154
NssVtx A-tx B
p977
(dp978
g148
Nsg149
Nsg150
Nsg151
Nsg152
Nsg153
Nsg154
Nsssg195
(dp979
g63
(dp980
g148
Nsg149
Nsg150
Nsg151
Nsg152
Nsg153
Nsg154
Nssg65
(dp981
g148
Nsg149
Nsg150
Nsg151
Nsg152
Nsg153
Nsg154
Nsssg199
(dp982
g63
(dp983
g148
Nsg149
Nsg150
Nsg151
Nsg152
Nsg153
Nsg154
Nssg65
(dp984
g148
Nsg149
Nsg150
Nsg151
Nsg152
Nsg153
Nsg154
Nsssg203
(dp985
g63
(dp986
g148
Nsg149
Nsg150
Nsg151
Nsg152
Nsg153
Nsg154
Nssg65
(dp987
g148
Nsg149
Nsg150
Nsg151
Nsg152
Nsg153
Nsg154
Nsssg207
(dp988
Vtx B-tx A
p989
(dp990
g148
F0.7117518176416322
sg149
F-1.6655999618222506
sg150
F-0.47692407209030918
sg151
F2.0375575632622018
sg152
F0.62068965517241392
sg153
F0.18907718485324268
sg154
NssVtx A-tx B
p991
(dp992
g148
F1.6655999618222506
sg149
F-0.7117518176416322
sg150
F0.47692407209030918
sg151
F5.2888454034058991
sg152
F1.6111111111111109
sg153
F0.49078368043696619
sg154
Nssssg213
(dp993
g63
(ima_dataset
TreatmentGroup
p994
(dp995
g217
(lp996
F8.0
aF32.0
asg219
I0
sg36
g127
sbsg65
(ima_dataset
TreatmentGroup
p997
(dp998
g217
(lp999
F6.0
aF35.0
asg219
I1
sg36
g131
sbssg223
g224
sg29
I00
sg228
I2
sbsssg229
I00
sg230
I1988
sg231
(lp1000
g224
ag133
asg219
I6
sba(ima_dataset
Study
p1001
(dp1002
g35
I01
sg36
VVigano
p1003
sg38
(dp1004
sg25
g26
sg40
Nsg41
(dp1005
g7
(dp1006
g12
(ima_dataset
MetaAnalyticUnit
p1007
(dp1008
g46
(dp1009
g48
(dp1010
Vtx B-tx A
p1011
(dp1012
g52
Nsg53
Nsg54
Nsg55
Nsg56
Nsg57
Nsg58
NssVtx A-tx B
p1013
(dp1014
g52
Nsg53
Nsg54
Nsg55
Nsg56
Nsg57
Nsg58
Nsssg61
(dp1015
g63
(dp1016
g52
Nsg53
Nsg54
Nsg55
Nsg56
Nsg57
Nsg58
Nssg65
(dp1017
g52
Nsg53
Nsg54
Nsg55
Nsg56
Nsg57
Nsg58
Nsssg67
(dp1018
g63
(dp1019
g52
Nsg53
Nsg54
Nsg55
Nsg56
Nsg57
Nsg58
Nssg65
(dp1020
g52
Nsg53
Nsg54
Nsg55
Nsg56
Nsg57
Nsg58
Nsssg71
(dp1021
Vtx B-tx A
p1022
(dp1023
g52
Nsg53
Nsg54
Nsg55
Nsg56
Nsg57
Nsg58
NssVtx A-tx B
p1024
(dp1025
g52
F1.8769593806697158
sg53
F-1.9880990829793375
sg54
F-0.055569851154810834
sg55
F6.5336084127196523
sg56
F0.94594594594594583
sg57
F0.13695551923643659
sg58
Nsssg77
(dp1026
Vtx B-tx A
p1027
(dp1028
g52
Nsg53
Nsg54
Nsg55
Nsg56
Nsg57
Nsg58
NssVtx A-tx B
p1029
(dp1030
g52
Nsg53
Nsg54
Nsg55
Nsg56
Nsg57
Nsg58
Nsssg83
(dp1031
Vtx B-tx A
p1032
(dp1033
g52
Nsg53
Nsg54
Nsg55
Nsg56
Nsg57
Nsg58
NssVtx A-tx B
p1034
(dp1035
g52
Nsg53
Nsg54
Nsg55
Nsg56
Nsg57
Nsg58
Nsssg89
(dp1036
Vtx B-tx A
p1037
(dp1038
g52
Nsg53
Nsg54
Nsg55
Nsg56
Nsg57
Nsg58
NssVtx A-tx B
p1039
(dp1040
g52
Nsg53
Nsg54
Nsg55
Nsg56
Nsg57
Nsg58
Nsssg95
(dp1041
Vtx B-tx A
p1042
(dp1043
g52
Nsg53
Nsg54
Nsg55
Nsg56
Nsg57
Nsg58
NssVtx A-tx B
p1044
(dp1045
g52
Nsg53
Nsg54
Nsg55
Nsg56
Nsg57
Nsg58
Nsssg101
(dp1046
g63
(dp1047
g52
Nsg53
Nsg54
Nsg55
Nsg56
Nsg57
Nsg58
Nssg65
(dp1048
g52
Nsg53
Nsg54
Nsg55
Nsg56
Nsg57
Nsg58
Nsssg105
(dp1049
g63
(dp1050
g52
Nsg53
Nsg54
Nsg55
Nsg56
Nsg57
Nsg58
Nssg65
(dp1051
g52
Nsg53
Nsg54
Nsg55
Nsg56
Nsg57
Nsg58
Nsssg109
(dp1052
g63
(dp1053
g52
Nsg53
Nsg54
Nsg55
Nsg56
Nsg57
Nsg58
Nssg65
(dp1054
g52
Nsg53
Nsg54
Nsg55
Nsg56
Nsg57
Nsg58
Nsssg113
(dp1055
Vtx B-tx A
p1056
(dp1057
g52
F2.0449472499356691
sg53
F-1.9306304222557726
sg54
F0.057158413839948352
sg55
F7.7287508350530532
sg56
F1.0588235294117645
sg57
F0.14505672266613956
sg58
NssVtx A-tx B
p1058
(dp1059
g52
F1.9306304222557726
sg53
F-2.0449472499356691
sg54
F-0.057158413839948352
sg55
F6.893854911513376
sg56
F0.94444444444444464
sg57
F0.12938701497072336
sg58
Nssssg119
(dp1060
g63
(ima_dataset
TreatmentGroup
p1061
(dp1062
g123
(lp1063
F2.0
aF74.0
asg125
I0
sg126
g127
sbsg65
(ima_dataset
TreatmentGroup
p1064
(dp1065
g123
(lp1066
F2.0
aF70.0
asg125
I1
sg126
g131
sbssg132
g133
sg137
I00
sg138
I2
sbssg18
(dp1067
g20
(ima_dataset
MetaAnalyticUnit
p1068
(dp1069
g142
(dp1070
g144
(dp1071
Vtx B-tx A
p1072
(dp1073
g148
Nsg149
Nsg150
Nsg151
Nsg152
Nsg153
Nsg154
NssVtx A-tx B
p1074
(dp1075
g148
Nsg149
Nsg150
Nsg151
Nsg152
Nsg153
Nsg154
Nsssg157
(dp1076
g63
(dp1077
g148
Nsg149
Nsg150
Nsg151
Nsg152
Nsg153
Nsg154
Nssg65
(dp1078
g148
Nsg149
Nsg150
Nsg151
Nsg152
Nsg153
Nsg154
Nsssg161
(dp1079
g63
(dp1080
g148
Nsg149
Nsg150
Nsg151
Nsg152
Nsg153
Nsg154
Nssg65
(dp1081
g148
Nsg149
Nsg150
Nsg151
Nsg152
Nsg153
Nsg154
Nsssg165
(dp1082
Vtx B-tx A
p1083
(dp1084
g148
F2.1403073911910275
sg149
F-4.2279154955372569
sg150
F-1.0438040521731149
sg151
F8.5020506827362237
sg152
F0.35211267605633795
sg153
F0.014582756709661719
sg154
NssVtx A-tx B
p1085
(dp1086
g148
F4.2279154955372569
sg149
F-2.1403073911910275
sg150
F1.0438040521731149
sg151
F68.574139986677281
sg152
F2.8400000000000007
sg153
F0.11761868251744756
sg154
Nsssg171
(dp1087
Vtx B-tx A
p1088
(dp1089
g148
Nsg149
Nsg150
Nsg151
Nsg152
Nsg153
Nsg154
NssVtx A-tx B
p1090
(dp1091
g148
Nsg149
Nsg150
Nsg151
Nsg152
Nsg153
Nsg154
Nsssg177
(dp1092
Vtx B-tx A
p1093
(dp1094
g148
Nsg149
Nsg150
Nsg151
Nsg152
Nsg153
Nsg154
NssVtx A-tx B
p1095
(dp1096
g148
Nsg149
Nsg150
Nsg151
Nsg152
Nsg153
Nsg154
Nsssg183
(dp1097
Vtx B-tx A
p1098
(dp1099
g148
Nsg149
Nsg150
Nsg151
Nsg152
Nsg153
Nsg154
NssVtx A-tx B
p1100
(dp1101
g148
Nsg149
Nsg150
Nsg151
Nsg152
Nsg153
Nsg154
Nsssg189
(dp1102
Vtx B-tx A
p1103
(dp1104
g148
Nsg149
Nsg150
Nsg151
Nsg152
Nsg153
Nsg154
NssVtx A-tx B
p1105
(dp1106
g148
Nsg149
Nsg150
Nsg151
Nsg152
Nsg153
Nsg154
Nsssg195
(dp1107
g63
(dp1108
g148
Nsg149
Nsg150
Nsg151
Nsg152
Nsg153
Nsg154
Nssg65
(dp1109
g148
Nsg149
Nsg150
Nsg151
Nsg152
Nsg153
Nsg154
Nsssg199
(dp1110
g63
(dp1111
g148
Nsg149
Nsg150
Nsg151
Nsg152
Nsg153
Nsg154
Nssg65
(dp1112
g148
Nsg149
Nsg150
Nsg151
Nsg152
Nsg153
Nsg154
Nsssg203
(dp1113
g63
(dp1114
g148
Nsg149
Nsg150
Nsg151
Nsg152
Nsg153
Nsg154
Nssg65
(dp1115
g148
Nsg149
Nsg150
Nsg151
Nsg152
Nsg153
Nsg154
Nsssg207
(dp1116
Vtx B-tx A
p1117
(dp1118
g148
F2.160302038691492
sg149
F-4.2741812232265755
sg150
F-1.056939592267542
sg151
F8.673757073097935
sg152
F0.34751773049645379
sg153
F0.013923444245859196
sg154
NssVtx A-tx B
p1119
(dp1120
g148
F4.2741812232265755
sg149
F-2.160302038691492
sg150
F1.056939592267542
sg151
F71.821309608604778
sg152
F2.877551020408164
sg153
F0.11529029364928227
sg154
Nssssg213
(dp1121
g63
(ima_dataset
TreatmentGroup
p1122
(dp1123
g217
(lp1124
F1.0
aF74.0
asg219
I0
sg36
g127
sbsg65
(ima_dataset
TreatmentGroup
p1125
(dp1126
g217
(lp1127
F0.0
aF70.0
asg219
I1
sg36
g131
sbssg223
g224
sg29
I00
sg228
I2
sbsssg229
I00
sg230
I1992
sg231
(lp1128
g224
ag133
asg219
I7
sba(ima_dataset
Study
p1129
(dp1130
g35
I01
sg36
VHansen
p1131
sg38
(dp1132
sg25
g26
sg40
Nsg41
(dp1133
g7
(dp1134
g12
(ima_dataset
MetaAnalyticUnit
p1135
(dp1136
g46
(dp1137
g48
(dp1138
Vtx B-tx A
p1139
(dp1140
g52
Nsg53
Nsg54
Nsg55
Nsg56
Nsg57
Nsg58
NssVtx A-tx B
p1141
(dp1142
g52
Nsg53
Nsg54
Nsg55
Nsg56
Nsg57
Nsg58
Nsssg61
(dp1143
g63
(dp1144
g52
Nsg53
Nsg54
Nsg55
Nsg56
Nsg57
Nsg58
Nssg65
(dp1145
g52
Nsg53
Nsg54
Nsg55
Nsg56
Nsg57
Nsg58
Nsssg67
(dp1146
g63
(dp1147
g52
Nsg53
Nsg54
Nsg55
Nsg56
Nsg57
Nsg58
Nssg65
(dp1148
g52
Nsg53
Nsg54
Nsg55
Nsg56
Nsg57
Nsg58
Nsssg71
(dp1149
Vtx B-tx A
p1150
(dp1151
g52
Nsg53
Nsg54
Nsg55
Nsg56
Nsg57
Nsg58
NssVtx A-tx B
p1152
(dp1153
g52
F1.0383162981360186
sg53
F-4.808887352613775
sg54
F-1.885285527238878
sg55
F2.8244574643468798
sg56
F0.15178571428571436
sg57
F0.0081569304378077984
sg58
Nsssg77
(dp1154
Vtx B-tx A
p1155
(dp1156
g52
Nsg53
Nsg54
Nsg55
Nsg56
Nsg57
Nsg58
NssVtx A-tx B
p1157
(dp1158
g52
Nsg53
Nsg54
Nsg55
Nsg56
Nsg57
Nsg58
Nsssg83
(dp1159
Vtx B-tx A
p1160
(dp1161
g52
Nsg53
Nsg54
Nsg55
Nsg56
Nsg57
Nsg58
NssVtx A-tx B
p1162
(dp1163
g52
Nsg53
Nsg54
Nsg55
Nsg56
Nsg57
Nsg58
Nsssg89
(dp1164
Vtx B-tx A
p1165
(dp1166
g52
Nsg53
Nsg54
Nsg55
Nsg56
Nsg57
Nsg58
NssVtx A-tx B
p1167
(dp1168
g52
Nsg53
Nsg54
Nsg55
Nsg56
Nsg57
Nsg58
Nsssg95
(dp1169
Vtx B-tx A
p1170
(dp1171
g52
Nsg53
Nsg54
Nsg55
Nsg56
Nsg57
Nsg58
NssVtx A-tx B
p1172
(dp1173
g52
Nsg53
Nsg54
Nsg55
Nsg56
Nsg57
Nsg58
Nsssg101
(dp1174
g63
(dp1175
g52
Nsg53
Nsg54
Nsg55
Nsg56
Nsg57
Nsg58
Nssg65
(dp1176
g52
Nsg53
Nsg54
Nsg55
Nsg56
Nsg57
Nsg58
Nsssg105
(dp1177
g63
(dp1178
g52
Nsg53
Nsg54
Nsg55
Nsg56
Nsg57
Nsg58
Nssg65
(dp1179
g52
Nsg53
Nsg54
Nsg55
Nsg56
Nsg57
Nsg58
Nsssg109
(dp1180
g63
(dp1181
g52
Nsg53
Nsg54
Nsg55
Nsg56
Nsg57
Nsg58
Nssg65
(dp1182
g52
Nsg53
Nsg54
Nsg55
Nsg56
Nsg57
Nsg58
Nsssg113
(dp1183
Vtx B-tx A
p1184
(dp1185
g52
F4.9828969301632249
sg53
F-1.026554907616156
sg54
F1.9781710112735347
sg55
F145.89642179304994
sg56
F7.2295081967213113
sg57
F0.35823900356239152
sg58
NssVtx A-tx B
p1186
(dp1187
g52
F1.026554907616156
sg53
F-4.9828969301632249
sg54
F-1.9781710112735347
sg55
F2.7914325075042763
sg56
F0.1383219954648526
sg57
F0.006854177694765348
sg58
Nssssg119
(dp1188
g63
(ima_dataset
TreatmentGroup
p1189
(dp1190
g123
(lp1191
F0.0
aF31.0
asg125
I0
sg126
g127
sbsg65
(ima_dataset
TreatmentGroup
p1192
(dp1193
g123
(lp1194
F3.0
aF33.0
asg125
I1
sg126
g131
sbssg132
g133
sg137
I00
sg138
I2
sbssg18
(dp1195
g20
(ima_dataset
MetaAnalyticUnit
p1196
(dp1197
g142
(dp1198
g144
(dp1199
Vtx B-tx A
p1200
(dp1201
g148
Nsg149
Nsg150
Nsg151
Nsg152
Nsg153
Nsg154
NssVtx A-tx B
p1202
(dp1203
g148
Nsg149
Nsg150
Nsg151
Nsg152
Nsg153
Nsg154
Nsssg157
(dp1204
g63
(dp1205
g148
Nsg149
Nsg150
Nsg151
Nsg152
Nsg153
Nsg154
Nssg65
(dp1206
g148
Nsg149
Nsg150
Nsg151
Nsg152
Nsg153
Nsg154
Nsssg161
(dp1207
g63
(dp1208
g148
Nsg149
Nsg150
Nsg151
Nsg152
Nsg153
Nsg154
Nssg65
(dp1209
g148
Nsg149
Nsg150
Nsg151
Nsg152
Nsg153
Nsg154
Nsssg165
(dp1210
Vtx B-tx A
p1211
(dp1212
g148
F3.0203009104819278
sg149
F0.18562988537503844
sg150
F1.6029653979284832
sg151
F20.49745865645572
sg152
F4.9677419354838728
sg153
F1.2039765685680508
sg154
NssVtx A-tx B
p1213
(dp1214
g148
F-0.18562988537503822
sg149
F-3.0203009104819283
sg150
F-1.6029653979284832
sg151
F0.83058094825661755
sg152
F0.20129870129870123
sg153
F0.048786535773060205
sg154
Nsssg171
(dp1215
Vtx B-tx A
p1216
(dp1217
g148
Nsg149
Nsg150
Nsg151
Nsg152
Nsg153
Nsg154
NssVtx A-tx B
p1218
(dp1219
g148
Nsg149
Nsg150
Nsg151
Nsg152
Nsg153
Nsg154
Nsssg177
(dp1220
Vtx B-tx A
p1221
(dp1222
g148
Nsg149
Nsg150
Nsg151
Nsg152
Nsg153
Nsg154
NssVtx A-tx B
p1223
(dp1224
g148
Nsg149
Nsg150
Nsg151
Nsg152
Nsg153
Nsg154
Nsssg183
(dp1225
Vtx B-tx A
p1226
(dp1227
g148
Nsg149
Nsg150
Nsg151
Nsg152
Nsg153
Nsg154
NssVtx A-tx B
p1228
(dp1229
g148
Nsg149
Nsg150
Nsg151
Nsg152
Nsg153
Nsg154
Nsssg189
(dp1230
Vtx B-tx A
p1231
(dp1232
g148
Nsg149
Nsg150
Nsg151
Nsg152
Nsg153
Nsg154
NssVtx A-tx B
p1233
(dp1234
g148
Nsg149
Nsg150
Nsg151
Nsg152
Nsg153
Nsg154
Nsssg195
(dp1235
g63
(dp1236
g148
Nsg149
Nsg150
Nsg151
Nsg152
Nsg153
Nsg154
Nssg65
(dp1237
g148
Nsg149
Nsg150
Nsg151
Nsg152
Nsg153
Nsg154
Nsssg199
(dp1238
g63
(dp1239
g148
Nsg149
Nsg150
Nsg151
Nsg152
Nsg153
Nsg154
Nssg65
(dp1240
g148
Nsg149
Nsg150
Nsg151
Nsg152
Nsg153
Nsg154
Nsssg203
(dp1241
g63
(dp1242
g148
Nsg149
Nsg150
Nsg151
Nsg152
Nsg153
Nsg154
Nssg65
(dp1243
g148
Nsg149
Nsg150
Nsg151
Nsg152
Nsg153
Nsg154
Nsssg207
(dp1244
Vtx B-tx A
p1245
(dp1246
g148
F3.5825919439233846
sg149
F0.35163276948844779
sg150
F1.9671123567059163
sg151
F35.966643659783038
sg152
F7.1500000000000004
sg153
F1.4213864513903431
sg154
NssVtx A-tx B
p1247
(dp1248
g148
F-0.35163276948844779
sg149
F-3.5825919439233846
sg150
F-1.9671123567059163
sg151
F0.70353843532266702
sg152
F0.13986013986013984
sg153
F0.027803539564581998
sg154
Nssssg213
(dp1249
g63
(ima_dataset
TreatmentGroup
p1250
(dp1251
g217
(lp1252
F2.0
aF28.0
asg219
I0
sg36
g127
sbsg65
(ima_dataset
TreatmentGroup
p1253
(dp1254
g217
(lp1255
F11.0
aF31.0
asg219
I1
sg36
g131
sbssg223
g224
sg29
I00
sg228
I2
sbsssg229
I00
sg230
I1988
sg231
(lp1256
g224
ag133
asg219
I8
sba(ima_dataset
Study
p1257
(dp1258
g35
I01
sg36
VDe Vries
p1259
sg38
(dp1260
sg25
g26
sg40
Nsg41
(dp1261
g7
(dp1262
g12
(ima_dataset
MetaAnalyticUnit
p1263
(dp1264
g46
(dp1265
g48
(dp1266
Vtx B-tx A
p1267
(dp1268
g52
Nsg53
Nsg54
Nsg55
Nsg56
Nsg57
Nsg58
NssVtx A-tx B
p1269
(dp1270
g52
Nsg53
Nsg54
Nsg55
Nsg56
Nsg57
Nsg58
Nsssg61
(dp1271
g63
(dp1272
g52
Nsg53
Nsg54
Nsg55
Nsg56
Nsg57
Nsg58
Nssg65
(dp1273
g52
Nsg53
Nsg54
Nsg55
Nsg56
Nsg57
Nsg58
Nsssg67
(dp1274
g63
(dp1275
g52
Nsg53
Nsg54
Nsg55
Nsg56
Nsg57
Nsg58
Nssg65
(dp1276
g52
Nsg53
Nsg54
Nsg55
Nsg56
Nsg57
Nsg58
Nsssg71
(dp1277
Vtx B-tx A
p1278
(dp1279
g52
Nsg53
Nsg54
Nsg55
Nsg56
Nsg57
Nsg58
NssVtx A-tx B
p1280
(dp1281
g52
F1.1269703140938612
sg53
F-0.68068321146544164
sg54
F0.22314355131420971
sg55
F3.0862918264291834
sg56
F1.25
sg57
F0.50627098403970461
sg58
Nsssg77
(dp1282
Vtx B-tx A
p1283
(dp1284
g52
Nsg53
Nsg54
Nsg55
Nsg56
Nsg57
Nsg58
NssVtx A-tx B
p1285
(dp1286
g52
Nsg53
Nsg54
Nsg55
Nsg56
Nsg57
Nsg58
Nsssg83
(dp1287
Vtx B-tx A
p1288
(dp1289
g52
Nsg53
Nsg54
Nsg55
Nsg56
Nsg57
Nsg58
NssVtx A-tx B
p1290
(dp1291
g52
Nsg53
Nsg54
Nsg55
Nsg56
Nsg57
Nsg58
Nsssg89
(dp1292
Vtx B-tx A
p1293
(dp1294
g52
Nsg53
Nsg54
Nsg55
Nsg56
Nsg57
Nsg58
NssVtx A-tx B
p1295
(dp1296
g52
Nsg53
Nsg54
Nsg55
Nsg56
Nsg57
Nsg58
Nsssg95
(dp1297
Vtx B-tx A
p1298
(dp1299
g52
Nsg53
Nsg54
Nsg55
Nsg56
Nsg57
Nsg58
NssVtx A-tx B
p1300
(dp1301
g52
Nsg53
Nsg54
Nsg55
Nsg56
Nsg57
Nsg58
Nsssg101
(dp1302
g63
(dp1303
g52
Nsg53
Nsg54
Nsg55
Nsg56
Nsg57
Nsg58
Nssg65
(dp1304
g52
Nsg53
Nsg54
Nsg55
Nsg56
Nsg57
Nsg58
Nsssg105
(dp1305
g63
(dp1306
g52
Nsg53
Nsg54
Nsg55
Nsg56
Nsg57
Nsg58
Nssg65
(dp1307
g52
Nsg53
Nsg54
Nsg55
Nsg56
Nsg57
Nsg58
Nsssg109
(dp1308
g63
(dp1309
g52
Nsg53
Nsg54
Nsg55
Nsg56
Nsg57
Nsg58
Nssg65
(dp1310
g52
Nsg53
Nsg54
Nsg55
Nsg56
Nsg57
Nsg58
Nsssg113
(dp1311
Vtx B-tx A
p1312
(dp1313
g52
F0.75576324022162855
sg53
F-1.2514355680307914
sg54
F-0.24783616390458141
sg55
F2.1292360219083806
sg56
F0.7804878048780487
sg57
F0.28609379481443264
sg58
NssVtx A-tx B
p1314
(dp1315
g52
F1.2514355680307914
sg53
F-0.75576324022162855
sg54
F0.24783616390458141
sg55
F3.4953571804960823
sg56
F1.2812500000000002
sg57
F0.46965202058892713
sg58
Nssssg119
(dp1316
g63
(ima_dataset
TreatmentGroup
p1317
(dp1318
g123
(lp1319
F9.0
aF81.0
asg125
I0
sg126
g127
sbsg65
(ima_dataset
TreatmentGroup
p1320
(dp1321
g123
(lp1322
F8.0
aF90.0
asg125
I1
sg126
g131
sbssg132
g133
sg137
I00
sg138
I2
sbssg18
(dp1323
g20
(ima_dataset
MetaAnalyticUnit
p1324
(dp1325
g142
(dp1326
g144
(dp1327
Vtx B-tx A
p1328
(dp1329
g148
Nsg149
Nsg150
Nsg151
Nsg152
Nsg153
Nsg154
NssVtx A-tx B
p1330
(dp1331
g148
Nsg149
Nsg150
Nsg151
Nsg152
Nsg153
Nsg154
Nsssg157
(dp1332
g63
(dp1333
g148
Nsg149
Nsg150
Nsg151
Nsg152
Nsg153
Nsg154
Nssg65
(dp1334
g148
Nsg149
Nsg150
Nsg151
Nsg152
Nsg153
Nsg154
Nsssg161
(dp1335
g63
(dp1336
g148
Nsg149
Nsg150
Nsg151
Nsg152
Nsg153
Nsg154
Nssg65
(dp1337
g148
Nsg149
Nsg150
Nsg151
Nsg152
Nsg153
Nsg154
Nsssg165
(dp1338
Vtx B-tx A
p1339
(dp1340
g148
F0.70802228010723045
sg149
F-1.9917300524520201
sg150
F-0.64185388617239481
sg151
F2.0299725689040127
sg152
F0.52631578947368418
sg153
F0.13645913964190409
sg154
NssVtx A-tx B
p1341
(dp1342
g148
F1.9917300524520201
sg149
F-0.70802228010723045
sg150
F0.64185388617239481
sg151
F7.3282009737434866
sg152
F1.9000000000000001
sg153
F0.49261749410727379
sg154
Nsssg171
(dp1343
Vtx B-tx A
p1344
(dp1345
g148
Nsg149
Nsg150
Nsg151
Nsg152
Nsg153
Nsg154
NssVtx A-tx B
p1346
(dp1347
g148
Nsg149
Nsg150
Nsg151
Nsg152
Nsg153
Nsg154
Nsssg177
(dp1348
Vtx B-tx A
p1349
(dp1350
g148
Nsg149
Nsg150
Nsg151
Nsg152
Nsg153
Nsg154
NssVtx A-tx B
p1351
(dp1352
g148
Nsg149
Nsg150
Nsg151
Nsg152
Nsg153
Nsg154
Nsssg183
(dp1353
Vtx B-tx A
p1354
(dp1355
g148
Nsg149
Nsg150
Nsg151
Nsg152
Nsg153
Nsg154
NssVtx A-tx B
p1356
(dp1357
g148
Nsg149
Nsg150
Nsg151
Nsg152
Nsg153
Nsg154
Nsssg189
(dp1358
Vtx B-tx A
p1359
(dp1360
g148
Nsg149
Nsg150
Nsg151
Nsg152
Nsg153
Nsg154
NssVtx A-tx B
p1361
(dp1362
g148
Nsg149
Nsg150
Nsg151
Nsg152
Nsg153
Nsg154
Nsssg195
(dp1363
g63
(dp1364
g148
Nsg149
Nsg150
Nsg151
Nsg152
Nsg153
Nsg154
Nssg65
(dp1365
g148
Nsg149
Nsg150
Nsg151
Nsg152
Nsg153
Nsg154
Nsssg199
(dp1366
g63
(dp1367
g148
Nsg149
Nsg150
Nsg151
Nsg152
Nsg153
Nsg154
Nssg65
(dp1368
g148
Nsg149
Nsg150
Nsg151
Nsg152
Nsg153
Nsg154
Nsssg203
(dp1369
g63
(dp1370
g148
Nsg149
Nsg150
Nsg151
Nsg152
Nsg153
Nsg154
Nssg65
(dp1371
g148
Nsg149
Nsg150
Nsg151
Nsg152
Nsg153
Nsg154
Nsssg207
(dp1372
Vtx B-tx A
p1373
(dp1374
g148
F0.74357608420508159
sg149
F-2.1026591412134148
sg150
F-0.6795415285041666
sg151
F2.1034441741803063
sg152
F0.50684931506849318
sg153
F0.12213123188092734
sg154
NssVtx A-tx B
p1375
(dp1376
g148
F2.1026591412134148
sg149
F-0.74357608420508159
sg150
F0.6795415285041666
sg151
F8.1879138087705261
sg152
F1.9729729729729728
sg153
F0.47541076310698438
sg154
Nssssg213
(dp1377
g63
(ima_dataset
TreatmentGroup
p1378
(dp1379
g217
(lp1380
F6.0
aF80.0
asg219
I0
sg36
g127
sbsg65
(ima_dataset
TreatmentGroup
p1381
(dp1382
g217
(lp1383
F3.0
aF76.0
asg219
I1
sg36
g131
sbssg223
g224
sg29
I00
sg228
I2
sbsssg229
I00
sg230
I1990
sg231
(lp1384
g224
ag133
asg219
I9
sba(ima_dataset
Study
p1385
(dp1386
g35
I01
sg36
VMauracher
p1387
sg38
(dp1388
sg25
g26
sg40
Nsg41
(dp1389
g7
(dp1390
g12
(ima_dataset
MetaAnalyticUnit
p1391
(dp1392
g46
(dp1393
g48
(dp1394
Vtx B-tx A
p1395
(dp1396
g52
Nsg53
Nsg54
Nsg55
Nsg56
Nsg57
Nsg58
NssVtx A-tx B
p1397
(dp1398
g52
Nsg53
Nsg54
Nsg55
Nsg56
Nsg57
Nsg58
Nsssg61
(dp1399
g63
(dp1400
g52
Nsg53
Nsg54
Nsg55
Nsg56
Nsg57
Nsg58
Nssg65
(dp1401
g52
Nsg53
Nsg54
Nsg55
Nsg56
Nsg57
Nsg58
Nsssg67
(dp1402
g63
(dp1403
g52
Nsg53
Nsg54
Nsg55
Nsg56
Nsg57
Nsg58
Nssg65
(dp1404
g52
Nsg53
Nsg54
Nsg55
Nsg56
Nsg57
Nsg58
Nsssg71
(dp1405
Vtx B-tx A
p1406
(dp1407
g52
Nsg53
Nsg54
Nsg55
Nsg56
Nsg57
Nsg58
NssVtx A-tx B
p1408
(dp1409
g52
F1.9494696856374196
sg53
F-1.9278478534289889
sg54
F0.010810916104215362
sg55
F7.0249611547911099
sg56
F1.0108695652173911
sg57
F0.14546091506653783
sg58
Nsssg77
(dp1410
Vtx B-tx A
p1411
(dp1412
g52
Nsg53
Nsg54
Nsg55
Nsg56
Nsg57
Nsg58
NssVtx A-tx B
p1413
(dp1414
g52
Nsg53
Nsg54
Nsg55
Nsg56
Nsg57
Nsg58
Nsssg83
(dp1415
Vtx B-tx A
p1416
(dp1417
g52
Nsg53
Nsg54
Nsg55
Nsg56
Nsg57
Nsg58
NssVtx A-tx B
p1418
(dp1419
g52
Nsg53
Nsg54
Nsg55
Nsg56
Nsg57
Nsg58
Nsssg89
(dp1420
Vtx B-tx A
p1421
(dp1422
g52
Nsg53
Nsg54
Nsg55
Nsg56
Nsg57
Nsg58
NssVtx A-tx B
p1423
(dp1424
g52
Nsg53
Nsg54
Nsg55
Nsg56
Nsg57
Nsg58
Nsssg95
(dp1425
Vtx B-tx A
p1426
(dp1427
g52
Nsg53
Nsg54
Nsg55
Nsg56
Nsg57
Nsg58
NssVtx A-tx B
p1428
(dp1429
g52
Nsg53
Nsg54
Nsg55
Nsg56
Nsg57
Nsg58
Nsssg101
(dp1430
g63
(dp1431
g52
Nsg53
Nsg54
Nsg55
Nsg56
Nsg57
Nsg58
Nssg65
(dp1432
g52
Nsg53
Nsg54
Nsg55
Nsg56
Nsg57
Nsg58
Nsssg105
(dp1433
g63
(dp1434
g52
Nsg53
Nsg54
Nsg55
Nsg56
Nsg57
Nsg58
Nssg65
(dp1435
g52
Nsg53
Nsg54
Nsg55
Nsg56
Nsg57
Nsg58
Nsssg109
(dp1436
g63
(dp1437
g52
Nsg53
Nsg54
Nsg55
Nsg56
Nsg57
Nsg58
Nssg65
(dp1438
g52
Nsg53
Nsg54
Nsg55
Nsg56
Nsg57
Nsg58
Nsssg113
(dp1439
Vtx B-tx A
p1440
(dp1441
g52
F1.9704535147250544
sg53
F-1.9925531870982238
sg54
F-0.011049836186584727
sg55
F7.1739292332507842
sg56
F0.98901098901098927
sg57
F0.13634686161258117
sg58
NssVtx A-tx B
p1442
(dp1443
g52
F1.9925531870982238
sg53
F-1.9704535147250544
sg54
F0.011049836186584727
sg55
F7.3342355531542855
sg56
F1.0111111111111108
sg57
F0.13939362481651654
sg58
Nssssg119
(dp1444
g63
(ima_dataset
TreatmentGroup
p1445
(dp1446
g123
(lp1447
F2.0
aF92.0
asg125
I0
sg126
g127
sbsg65
(ima_dataset
TreatmentGroup
p1448
(dp1449
g123
(lp1450
F2.0
aF93.0
asg125
I1
sg126
g131
sbssg132
g133
sg137
I00
sg138
I2
sbssg18
(dp1451
g20
(ima_dataset
MetaAnalyticUnit
p1452
(dp1453
g142
(dp1454
g144
(dp1455
Vtx B-tx A
p1456
(dp1457
g148
Nsg149
Nsg150
Nsg151
Nsg152
Nsg153
Nsg154
NssVtx A-tx B
p1458
(dp1459
g148
Nsg149
Nsg150
Nsg151
Nsg152
Nsg153
Nsg154
Nsssg157
(dp1460
g63
(dp1461
g148
Nsg149
Nsg150
Nsg151
Nsg152
Nsg153
Nsg154
Nssg65
(dp1462
g148
Nsg149
Nsg150
Nsg151
Nsg152
Nsg153
Nsg154
Nsssg161
(dp1463
g63
(dp1464
g148
Nsg149
Nsg150
Nsg151
Nsg152
Nsg153
Nsg154
Nssg65
(dp1465
g148
Nsg149
Nsg150
Nsg151
Nsg152
Nsg153
Nsg154
Nsssg165
(dp1466
Vtx B-tx A
p1467
(dp1468
g148
F5.4163754344099804
sg149
F-0.30786729772040333
sg150
F2.5542540683447883
sg151
F225.06189075683659
sg152
F12.861702127659568
sg153
F0.73501284941825606
sg154
NssVtx A-tx B
p1469
(dp1470
g148
F0.30786729772040333
sg149
F-5.4163754344099804
sg150
F-2.5542540683447883
sg151
F1.3605204327944396
sg152
F0.077750206782464887
sg153
F0.0044432222471659094
sg154
Nsssg171
(dp1471
Vtx B-tx A
p1472
(dp1473
g148
Nsg149
Nsg150
Nsg151
Nsg152
Nsg153
Nsg154
NssVtx A-tx B
p1474
(dp1475
g148
Nsg149
Nsg150
Nsg151
Nsg152
Nsg153
Nsg154
Nsssg177
(dp1476
Vtx B-tx A
p1477
(dp1478
g148
Nsg149
Nsg150
Nsg151
Nsg152
Nsg153
Nsg154
NssVtx A-tx B
p1479
(dp1480
g148
Nsg149
Nsg150
Nsg151
Nsg152
Nsg153
Nsg154
Nsssg183
(dp1481
Vtx B-tx A
p1482
(dp1483
g148
Nsg149
Nsg150
Nsg151
Nsg152
Nsg153
Nsg154
NssVtx A-tx B
p1484
(dp1485
g148
Nsg149
Nsg150
Nsg151
Nsg152
Nsg153
Nsg154
Nsssg189
(dp1486
Vtx B-tx A
p1487
(dp1488
g148
Nsg149
Nsg150
Nsg151
Nsg152
Nsg153
Nsg154
NssVtx A-tx B
p1489
(dp1490
g148
Nsg149
Nsg150
Nsg151
Nsg152
Nsg153
Nsg154
Nsssg195
(dp1491
g63
(dp1492
g148
Nsg149
Nsg150
Nsg151
Nsg152
Nsg153
Nsg154
Nssg65
(dp1493
g148
Nsg149
Nsg150
Nsg151
Nsg152
Nsg153
Nsg154
Nsssg199
(dp1494
g63
(dp1495
g148
Nsg149
Nsg150
Nsg151
Nsg152
Nsg153
Nsg154
Nssg65
(dp1496
g148
Nsg149
Nsg150
Nsg151
Nsg152
Nsg153
Nsg154
Nsssg203
(dp1497
g63
(dp1498
g148
Nsg149
Nsg150
Nsg151
Nsg152
Nsg153
Nsg154
Nssg65
(dp1499
g148
Nsg149
Nsg150
Nsg151
Nsg152
Nsg153
Nsg154
Nsssg207
(dp1500
Vtx B-tx A
p1501
(dp1502
g148
F5.5117720472973026
sg149
F-0.27073363006460793
sg150
F2.6205192086163471
sg151
F247.58947882968926
sg152
F13.742857142857138
sg153
F0.76281966156928627
sg154
NssVtx A-tx B
p1503
(dp1504
g148
F0.27073363006460793
sg149
F-5.5117720472973026
sg150
F-2.6205192086163471
sg151
F1.3109258326440905
sg152
F0.072765072765072797
sg153
F0.0040389438385137338
sg154
Nssssg213
(dp1505
g63
(ima_dataset
TreatmentGroup
p1506
(dp1507
g217
(lp1508
F0.0
aF92.0
asg219
I0
sg36
g127
sbsg65
(ima_dataset
TreatmentGroup
p1509
(dp1510
g217
(lp1511
F6.0
aF93.0
asg219
I1
sg36
g131
sbssg223
g224
sg29
I00
sg228
I2
sbsssg229
I00
sg230
I1989
sg231
(lp1512
g224
ag133
asg219
I10
sba(ima_dataset
Study
p1513
(dp1514
g35
I01
sg36
VNordstrom
p1515
sg38
(dp1516
sg25
g26
sg40
Nsg41
(dp1517
g7
(dp1518
g12
(ima_dataset
MetaAnalyticUnit
p1519
(dp1520
g46
(dp1521
g48
(dp1522
Vtx B-tx A
p1523
(dp1524
g52
Nsg53
Nsg54
Nsg55
Nsg56
Nsg57
Nsg58
NssVtx A-tx B
p1525
(dp1526
g52
Nsg53
Nsg54
Nsg55
Nsg56
Nsg57
Nsg58
Nsssg61
(dp1527
g63
(dp1528
g52
Nsg53
Nsg54
Nsg55
Nsg56
Nsg57
Nsg58
Nssg65
(dp1529
g52
Nsg53
Nsg54
Nsg55
Nsg56
Nsg57
Nsg58
Nsssg67
(dp1530
g63
(dp1531
g52
Nsg53
Nsg54
Nsg55
Nsg56
Nsg57
Nsg58
Nssg65
(dp1532
g52
Nsg53
Nsg54
Nsg55
Nsg56
Nsg57
Nsg58
Nsssg71
(dp1533
Vtx B-tx A
p1534
(dp1535
g52
Nsg53
Nsg54
Nsg55
Nsg56
Nsg57
Nsg58
NssVtx A-tx B
p1536
(dp1537
g52
F0.66840477224189576
sg53
F-1.9868960300104235
sg54
F-0.65924562888426386
sg55
F1.9511223522187486
sg56
F0.51724137931034486
sg57
F0.13712038313057734
sg58
Nsssg77
(dp1538
Vtx B-tx A
p1539
(dp1540
g52
Nsg53
Nsg54
Nsg55
Nsg56
Nsg57
Nsg58
NssVtx A-tx B
p1541
(dp1542
g52
Nsg53
Nsg54
Nsg55
Nsg56
Nsg57
Nsg58
Nsssg83
(dp1543
Vtx B-tx A
p1544
(dp1545
g52
Nsg53
Nsg54
Nsg55
Nsg56
Nsg57
Nsg58
NssVtx A-tx B
p1546
(dp1547
g52
Nsg53
Nsg54
Nsg55
Nsg56
Nsg57
Nsg58
Nsssg89
(dp1548
Vtx B-tx A
p1549
(dp1550
g52
Nsg53
Nsg54
Nsg55
Nsg56
Nsg57
Nsg58
NssVtx A-tx B
p1551
(dp1552
g52
Nsg53
Nsg54
Nsg55
Nsg56
Nsg57
Nsg58
Nsssg95
(dp1553
Vtx B-tx A
p1554
(dp1555
g52
Nsg53
Nsg54
Nsg55
Nsg56
Nsg57
Nsg58
NssVtx A-tx B
p1556
(dp1557
g52
Nsg53
Nsg54
Nsg55
Nsg56
Nsg57
Nsg58
Nsssg101
(dp1558
g63
(dp1559
g52
Nsg53
Nsg54
Nsg55
Nsg56
Nsg57
Nsg58
Nssg65
(dp1560
g52
Nsg53
Nsg54
Nsg55
Nsg56
Nsg57
Nsg58
Nsssg105
(dp1561
g63
(dp1562
g52
Nsg53
Nsg54
Nsg55
Nsg56
Nsg57
Nsg58
Nssg65
(dp1563
g52
Nsg53
Nsg54
Nsg55
Nsg56
Nsg57
Nsg58
Nsssg109
(dp1564
g63
(dp1565
g52
Nsg53
Nsg54
Nsg55
Nsg56
Nsg57
Nsg58
Nssg65
(dp1566
g52
Nsg53
Nsg54
Nsg55
Nsg56
Nsg57
Nsg58
Nsssg113
(dp1567
Vtx B-tx A
p1568
(dp1569
g52
F2.3186993171658266
sg53
F-0.77231954069886255
sg54
F0.773189888233482
sg55
F10.16244758492658
sg56
F2.1666666666666674
sg57
F0.46194033526012646
sg58
NssVtx A-tx B
p1570
(dp1571
g52
F0.77231954069886255
sg53
F-2.3186993171658266
sg54
F-0.773189888233482
sg55
F2.1647817340671995
sg56
F0.4615384615384614
sg57
F0.098401491534701443
sg58
Nssssg119
(dp1572
g63
(ima_dataset
TreatmentGroup
p1573
(dp1574
g123
(lp1575
F3.0
aF29.0
asg125
I0
sg126
g127
sbsg65
(ima_dataset
TreatmentGroup
p1576
(dp1577
g123
(lp1578
F5.0
aF25.0
asg125
I1
sg126
g131
sbssg132
g133
sg137
I00
sg138
I2
sbssg18
(dp1579
g20
(ima_dataset
MetaAnalyticUnit
p1580
(dp1581
g142
(dp1582
g144
(dp1583
Vtx B-tx A
p1584
(dp1585
g148
Nsg149
Nsg150
Nsg151
Nsg152
Nsg153
Nsg154
NssVtx A-tx B
p1586
(dp1587
g148
Nsg149
Nsg150
Nsg151
Nsg152
Nsg153
Nsg154
Nsssg157
(dp1588
g63
(dp1589
g148
Nsg149
Nsg150
Nsg151
Nsg152
Nsg153
Nsg154
Nssg65
(dp1590
g148
Nsg149
Nsg150
Nsg151
Nsg152
Nsg153
Nsg154
Nsssg161
(dp1591
g63
(dp1592
g148
Nsg149
Nsg150
Nsg151
Nsg152
Nsg153
Nsg154
Nssg65
(dp1593
g148
Nsg149
Nsg150
Nsg151
Nsg152
Nsg153
Nsg154
Nsssg165
(dp1594
Vtx B-tx A
p1595
(dp1596
g148
F1.7613217055542154
sg149
F-1.0430396326863642
sg150
F0.35914103643392559
sg151
F5.820124804317393
sg152
F1.4320987654320982
sg153
F0.35238194074992502
sg154
NssVtx A-tx B
p1597
(dp1598
g148
F1.043039632686364
sg149
F-1.7613217055542152
sg150
F-0.35914103643392559
sg151
F2.837829878204996
sg152
F0.69827586206896575
sg153
F0.17181762137784332
sg154
Nsssg171
(dp1599
Vtx B-tx A
p1600
(dp1601
g148
Nsg149
Nsg150
Nsg151
Nsg152
Nsg153
Nsg154
NssVtx A-tx B
p1602
(dp1603
g148
Nsg149
Nsg150
Nsg151
Nsg152
Nsg153
Nsg154
Nsssg177
(dp1604
Vtx B-tx A
p1605
(dp1606
g148
Nsg149
Nsg150
Nsg151
Nsg152
Nsg153
Nsg154
NssVtx A-tx B
p1607
(dp1608
g148
Nsg149
Nsg150
Nsg151
Nsg152
Nsg153
Nsg154
Nsssg183
(dp1609
Vtx B-tx A
p1610
(dp1611
g148
Nsg149
Nsg150
Nsg151
Nsg152
Nsg153
Nsg154
NssVtx A-tx B
p1612
(dp1613
g148
Nsg149
Nsg150
Nsg151
Nsg152
Nsg153
Nsg154
Nsssg189
(dp1614
Vtx B-tx A
p1615
(dp1616
g148
Nsg149
Nsg150
Nsg151
Nsg152
Nsg153
Nsg154
NssVtx A-tx B
p1617
(dp1618
g148
Nsg149
Nsg150
Nsg151
Nsg152
Nsg153
Nsg154
Nsssg195
(dp1619
g63
(dp1620
g148
Nsg149
Nsg150
Nsg151
Nsg152
Nsg153
Nsg154
Nssg65
(dp1621
g148
Nsg149
Nsg150
Nsg151
Nsg152
Nsg153
Nsg154
Nsssg199
(dp1622
g63
(dp1623
g148
Nsg149
Nsg150
Nsg151
Nsg152
Nsg153
Nsg154
Nssg65
(dp1624
g148
Nsg149
Nsg150
Nsg151
Nsg152
Nsg153
Nsg154
Nsssg203
(dp1625
g63
(dp1626
g148
Nsg149
Nsg150
Nsg151
Nsg152
Nsg153
Nsg154
Nssg65
(dp1627
g148
Nsg149
Nsg150
Nsg151
Nsg152
Nsg153
Nsg154
Nsssg207
(dp1628
Vtx B-tx A
p1629
(dp1630
g148
F2.0089148532945442
sg149
F-1.1883460642063173
sg150
F0.41028439454411347
sg151
F7.4552229456889032
sg152
F1.5072463768115945
sg153
F0.30472484283322171
sg154
NssVtx A-tx B
p1631
(dp1632
g148
F1.1883460642063175
sg149
F-2.0089148532945442
sg150
F-0.41028439454411347
sg151
F3.2816490795511153
sg152
F0.66346153846153832
sg153
F0.13413415095497114
sg154
Nssssg213
(dp1633
g63
(ima_dataset
TreatmentGroup
p1634
(dp1635
g217
(lp1636
F3.0
aF29.0
asg219
I0
sg36
g127
sbsg65
(ima_dataset
TreatmentGroup
p1637
(dp1638
g217
(lp1639
F4.0
aF27.0
asg219
I1
sg36
g131
sbssg223
g224
sg29
I00
sg228
I2
sbsssg229
I00
sg230
I1990
sg231
(lp1640
g224
ag133
asg219
I11
sba(ima_dataset
Study
p1641
(dp1642
g35
I01
sg36
VRozdzinski
p1643
sg38
(dp1644
sg25
g26
sg40
Nsg41
(dp1645
g7
(dp1646
g12
(ima_dataset
MetaAnalyticUnit
p1647
(dp1648
g46
(dp1649
g48
(dp1650
Vtx B-tx A
p1651
(dp1652
g52
Nsg53
Nsg54
Nsg55
Nsg56
Nsg57
Nsg58
NssVtx A-tx B
p1653
(dp1654
g52
Nsg53
Nsg54
Nsg55
Nsg56
Nsg57
Nsg58
Nsssg61
(dp1655
g63
(dp1656
g52
Nsg53
Nsg54
Nsg55
Nsg56
Nsg57
Nsg58
Nssg65
(dp1657
g52
Nsg53
Nsg54
Nsg55
Nsg56
Nsg57
Nsg58
Nsssg67
(dp1658
g63
(dp1659
g52
Nsg53
Nsg54
Nsg55
Nsg56
Nsg57
Nsg58
Nssg65
(dp1660
g52
Nsg53
Nsg54
Nsg55
Nsg56
Nsg57
Nsg58
Nsssg71
(dp1661
Vtx B-tx A
p1662
(dp1663
g52
Nsg53
Nsg54
Nsg55
Nsg56
Nsg57
Nsg58
NssVtx A-tx B
p1664
(dp1665
g52
F1.1869178522583299
sg53
F-1.7343095132124118
sg54
F-0.27369583047704094
sg55
F3.2769655344702402
sg56
F0.76056338028169024
sg57
F0.17652204435498442
sg58
Nsssg77
(dp1666
Vtx B-tx A
p1667
(dp1668
g52
Nsg53
Nsg54
Nsg55
Nsg56
Nsg57
Nsg58
NssVtx A-tx B
p1669
(dp1670
g52
Nsg53
Nsg54
Nsg55
Nsg56
Nsg57
Nsg58
Nsssg83
(dp1671
Vtx B-tx A
p1672
(dp1673
g52
Nsg53
Nsg54
Nsg55
Nsg56
Nsg57
Nsg58
NssVtx A-tx B
p1674
(dp1675
g52
Nsg53
Nsg54
Nsg55
Nsg56
Nsg57
Nsg58
Nsssg89
(dp1676
Vtx B-tx A
p1677
(dp1678
g52
Nsg53
Nsg54
Nsg55
Nsg56
Nsg57
Nsg58
NssVtx A-tx B
p1679
(dp1680
g52
Nsg53
Nsg54
Nsg55
Nsg56
Nsg57
Nsg58
Nsssg95
(dp1681
Vtx B-tx A
p1682
(dp1683
g52
Nsg53
Nsg54
Nsg55
Nsg56
Nsg57
Nsg58
NssVtx A-tx B
p1684
(dp1685
g52
Nsg53
Nsg54
Nsg55
Nsg56
Nsg57
Nsg58
Nsssg101
(dp1686
g63
(dp1687
g52
Nsg53
Nsg54
Nsg55
Nsg56
Nsg57
Nsg58
Nssg65
(dp1688
g52
Nsg53
Nsg54
Nsg55
Nsg56
Nsg57
Nsg58
Nsssg105
(dp1689
g63
(dp1690
g52
Nsg53
Nsg54
Nsg55
Nsg56
Nsg57
Nsg58
Nssg65
(dp1691
g52
Nsg53
Nsg54
Nsg55
Nsg56
Nsg57
Nsg58
Nsssg109
(dp1692
g63
(dp1693
g52
Nsg53
Nsg54
Nsg55
Nsg56
Nsg57
Nsg58
Nssg65
(dp1694
g52
Nsg53
Nsg54
Nsg55
Nsg56
Nsg57
Nsg58
Nsssg113
(dp1695
Vtx B-tx A
p1696
(dp1697
g52
F1.8219033934155555
sg53
F-1.2465392485119939
sg54
F0.28768207245178079
sg55
F6.1836171117485428
sg56
F1.3333333333333333
sg57
F0.28749803644861749
sg58
NssVtx A-tx B
p1698
(dp1699
g52
F1.2465392485119939
sg53
F-1.8219033934155555
sg54
F-0.28768207245178079
sg55
F3.4782846253585564
sg56
F0.75000000000000011
sg57
F0.16171764550234738
sg58
Nssssg119
(dp1700
g63
(ima_dataset
TreatmentGroup
p1701
(dp1702
g123
(lp1703
F3.0
aF71.0
asg125
I0
sg126
g127
sbsg65
(ima_dataset
TreatmentGroup
p1704
(dp1705
g123
(lp1706
F4.0
aF72.0
asg125
I1
sg126
g131
sbssg132
g133
sg137
I00
sg138
I2
sbssg18
(dp1707
g20
(ima_dataset
MetaAnalyticUnit
p1708
(dp1709
g142
(dp1710
g144
(dp1711
Vtx B-tx A
p1712
(dp1713
g148
Nsg149
Nsg150
Nsg151
Nsg152
Nsg153
Nsg154
NssVtx A-tx B
p1714
(dp1715
g148
Nsg149
Nsg150
Nsg151
Nsg152
Nsg153
Nsg154
Nsssg157
(dp1716
g63
(dp1717
g148
Nsg149
Nsg150
Nsg151
Nsg152
Nsg153
Nsg154
Nssg65
(dp1718
g148
Nsg149
Nsg150
Nsg151
Nsg152
Nsg153
Nsg154
Nsssg161
(dp1719
g63
(dp1720
g148
Nsg149
Nsg150
Nsg151
Nsg152
Nsg153
Nsg154
Nssg65
(dp1721
g148
Nsg149
Nsg150
Nsg151
Nsg152
Nsg153
Nsg154
Nsssg165
(dp1722
Vtx B-tx A
p1723
(dp1724
g148
F0.5965247767974925
sg149
F-0.62449726074697265
sg150
F-0.013986241974740077
sg151
F1.8157975211477462
sg152
F0.98611111111111094
sg153
F0.53553059310387019
sg154
NssVtx A-tx B
p1725
(dp1726
g148
F0.62449726074697265
sg149
F-0.5965247767974925
sg150
F0.013986241974740077
sg151
F1.8673069529121047
sg152
F1.0140845070422537
sg153
F0.55072219691538671
sg154
Nsssg171
(dp1727
Vtx B-tx A
p1728
(dp1729
g148
Nsg149
Nsg150
Nsg151
Nsg152
Nsg153
Nsg154
NssVtx A-tx B
p1730
(dp1731
g148
Nsg149
Nsg150
Nsg151
Nsg152
Nsg153
Nsg154
Nsssg177
(dp1732
Vtx B-tx A
p1733
(dp1734
g148
Nsg149
Nsg150
Nsg151
Nsg152
Nsg153
Nsg154
NssVtx A-tx B
p1735
(dp1736
g148
Nsg149
Nsg150
Nsg151
Nsg152
Nsg153
Nsg154
Nsssg183
(dp1737
Vtx B-tx A
p1738
(dp1739
g148
Nsg149
Nsg150
Nsg151
Nsg152
Nsg153
Nsg154
NssVtx A-tx B
p1740
(dp1741
g148
Nsg149
Nsg150
Nsg151
Nsg152
Nsg153
Nsg154
Nsssg189
(dp1742
Vtx B-tx A
p1743
(dp1744
g148
Nsg149
Nsg150
Nsg151
Nsg152
Nsg153
Nsg154
NssVtx A-tx B
p1745
(dp1746
g148
Nsg149
Nsg150
Nsg151
Nsg152
Nsg153
Nsg154
Nsssg195
(dp1747
g63
(dp1748
g148
Nsg149
Nsg150
Nsg151
Nsg152
Nsg153
Nsg154
Nssg65
(dp1749
g148
Nsg149
Nsg150
Nsg151
Nsg152
Nsg153
Nsg154
Nsssg199
(dp1750
g63
(dp1751
g148
Nsg149
Nsg150
Nsg151
Nsg152
Nsg153
Nsg154
Nssg65
(dp1752
g148
Nsg149
Nsg150
Nsg151
Nsg152
Nsg153
Nsg154
Nsssg203
(dp1753
g63
(dp1754
g148
Nsg149
Nsg150
Nsg151
Nsg152
Nsg153
Nsg154
Nssg65
(dp1755
g148
Nsg149
Nsg150
Nsg151
Nsg152
Nsg153
Nsg154
Nsssg207
(dp1756
Vtx B-tx A
p1757
(dp1758
g148
F0.7685083772918857
sg149
F-0.80454538829724265
sg150
F-0.018018505502678472
sg151
F2.1565470988757007
sg152
F0.98214285714285698
sg153
F0.44729122417016703
sg154
NssVtx A-tx B
p1759
(dp1760
g148
F0.80454538829724265
sg149
F-0.7685083772918857
sg150
F0.018018505502678472
sg151
F2.2356799015121318
sg152
F1.0181818181818183
sg153
F0.46370422446203113
sg154
Nssssg213
(dp1761
g63
(ima_dataset
TreatmentGroup
p1762
(dp1763
g217
(lp1764
F16.0
aF71.0
asg219
I0
sg36
g127
sbsg65
(ima_dataset
TreatmentGroup
p1765
(dp1766
g217
(lp1767
F16.0
aF72.0
asg219
I1
sg36
g131
sbssg223
g224
sg29
I00
sg228
I2
sbsssg229
I00
sg230
I1993
sg231
(lp1768
g224
ag133
asg219
I12
sba(ima_dataset
Study
p1769
(dp1770
g35
I01
sg36
VTer Braak
p1771
sg38
(dp1772
sg25
g26
sg40
Nsg41
(dp1773
g7
(dp1774
g12
(ima_dataset
MetaAnalyticUnit
p1775
(dp1776
g46
(dp1777
g48
(dp1778
Vtx B-tx A
p1779
(dp1780
g52
Nsg53
Nsg54
Nsg55
Nsg56
Nsg57
Nsg58
NssVtx A-tx B
p1781
(dp1782
g52
Nsg53
Nsg54
Nsg55
Nsg56
Nsg57
Nsg58
Nsssg61
(dp1783
g63
(dp1784
g52
Nsg53
Nsg54
Nsg55
Nsg56
Nsg57
Nsg58
Nssg65
(dp1785
g52
Nsg53
Nsg54
Nsg55
Nsg56
Nsg57
Nsg58
Nsssg67
(dp1786
g63
(dp1787
g52
Nsg53
Nsg54
Nsg55
Nsg56
Nsg57
Nsg58
Nssg65
(dp1788
g52
Nsg53
Nsg54
Nsg55
Nsg56
Nsg57
Nsg58
Nsssg71
(dp1789
Vtx B-tx A
p1790
(dp1791
g52
Nsg53
Nsg54
Nsg55
Nsg56
Nsg57
Nsg58
NssVtx A-tx B
p1792
(dp1793
g52
F0.47396828145629533
sg53
F-0.77716108150061824
sg54
F-0.15159640002216146
sg55
F1.6063560349453021
sg56
F0.85933503836317138
sg57
F0.45970923761230709
sg58
Nsssg77
(dp1794
Vtx B-tx A
p1795
(dp1796
g52
Nsg53
Nsg54
Nsg55
Nsg56
Nsg57
Nsg58
NssVtx A-tx B
p1797
(dp1798
g52
Nsg53
Nsg54
Nsg55
Nsg56
Nsg57
Nsg58
Nsssg83
(dp1799
Vtx B-tx A
p1800
(dp1801
g52
Nsg53
Nsg54
Nsg55
Nsg56
Nsg57
Nsg58
NssVtx A-tx B
p1802
(dp1803
g52
Nsg53
Nsg54
Nsg55
Nsg56
Nsg57
Nsg58
Nsssg89
(dp1804
Vtx B-tx A
p1805
(dp1806
g52
Nsg53
Nsg54
Nsg55
Nsg56
Nsg57
Nsg58
NssVtx A-tx B
p1807
(dp1808
g52
Nsg53
Nsg54
Nsg55
Nsg56
Nsg57
Nsg58
Nsssg95
(dp1809
Vtx B-tx A
p1810
(dp1811
g52
Nsg53
Nsg54
Nsg55
Nsg56
Nsg57
Nsg58
NssVtx A-tx B
p1812
(dp1813
g52
Nsg53
Nsg54
Nsg55
Nsg56
Nsg57
Nsg58
Nsssg101
(dp1814
g63
(dp1815
g52
Nsg53
Nsg54
Nsg55
Nsg56
Nsg57
Nsg58
Nssg65
(dp1816
g52
Nsg53
Nsg54
Nsg55
Nsg56
Nsg57
Nsg58
Nsssg105
(dp1817
g63
(dp1818
g52
Nsg53
Nsg54
Nsg55
Nsg56
Nsg57
Nsg58
Nssg65
(dp1819
g52
Nsg53
Nsg54
Nsg55
Nsg56
Nsg57
Nsg58
Nsssg109
(dp1820
g63
(dp1821
g52
Nsg53
Nsg54
Nsg55
Nsg56
Nsg57
Nsg58
Nssg65
(dp1822
g52
Nsg53
Nsg54
Nsg55
Nsg56
Nsg57
Nsg58
Nsssg113
(dp1823
Vtx B-tx A
p1824
(dp1825
g52
F0.99418569723319861
sg53
F-0.60587366835128398
sg54
F0.19415601444095731
sg55
F2.7025227732580319
sg56
F1.2142857142857142
sg57
F0.54559754704334751
sg58
NssVtx A-tx B
p1826
(dp1827
g52
F0.60587366835128398
sg53
F-0.99418569723319861
sg54
F-0.19415601444095731
sg55
F1.8328528150815724
sg56
F0.82352941176470595
sg57
F0.37002463398095548
sg58
Nssssg119
(dp1828
g63
(ima_dataset
TreatmentGroup
p1829
(dp1830
g123
(lp1831
F14.0
aF69.0
asg125
I0
sg126
g127
sbsg65
(ima_dataset
TreatmentGroup
p1832
(dp1833
g123
(lp1834
F17.0
aF72.0
asg125
I1
sg126
g131
sbssg132
g133
sg137
I00
sg138
I2
sbssg18
(dp1835
g20
(ima_dataset
MetaAnalyticUnit
p1836
(dp1837
g142
(dp1838
g144
(dp1839
Vtx B-tx A
p1840
(dp1841
g148
Nsg149
Nsg150
Nsg151
Nsg152
Nsg153
Nsg154
NssVtx A-tx B
p1842
(dp1843
g148
Nsg149
Nsg150
Nsg151
Nsg152
Nsg153
Nsg154
Nsssg157
(dp1844
g63
(dp1845
g148
Nsg149
Nsg150
Nsg151
Nsg152
Nsg153
Nsg154
Nssg65
(dp1846
g148
Nsg149
Nsg150
Nsg151
Nsg152
Nsg153
Nsg154
Nsssg161
(dp1847
g63
(dp1848
g148
Nsg149
Nsg150
Nsg151
Nsg152
Nsg153
Nsg154
Nssg65
(dp1849
g148
Nsg149
Nsg150
Nsg151
Nsg152
Nsg153
Nsg154
Nsssg165
(dp1850
Vtx B-tx A
p1851
(dp1852
g148
F0.60337756911409157
sg149
F-1.1347839005801035
sg150
F-0.26570316573300601
sg151
F1.8282835376253588
sg152
F0.76666666666666639
sg153
F0.32149158797393357
sg154
NssVtx A-tx B
p1853
(dp1854
g148
F1.1347839005801037
sg149
F-0.60337756911409168
sg150
F0.26570316573300601
sg151
F3.1105012927463593
sg152
F1.304347826086957
sg153
F0.54696111375527467
sg154
Nsssg171
(dp1855
Vtx B-tx A
p1856
(dp1857
g148
Nsg149
Nsg150
Nsg151
Nsg152
Nsg153
Nsg154
NssVtx A-tx B
p1858
(dp1859
g148
Nsg149
Nsg150
Nsg151
Nsg152
Nsg153
Nsg154
Nsssg177
(dp1860
Vtx B-tx A
p1861
(dp1862
g148
Nsg149
Nsg150
Nsg151
Nsg152
Nsg153
Nsg154
NssVtx A-tx B
p1863
(dp1864
g148
Nsg149
Nsg150
Nsg151
Nsg152
Nsg153
Nsg154
Nsssg183
(dp1865
Vtx B-tx A
p1866
(dp1867
g148
Nsg149
Nsg150
Nsg151
Nsg152
Nsg153
Nsg154
NssVtx A-tx B
p1868
(dp1869
g148
Nsg149
Nsg150
Nsg151
Nsg152
Nsg153
Nsg154
Nsssg189
(dp1870
Vtx B-tx A
p1871
(dp1872
g148
Nsg149
Nsg150
Nsg151
Nsg152
Nsg153
Nsg154
NssVtx A-tx B
p1873
(dp1874
g148
Nsg149
Nsg150
Nsg151
Nsg152
Nsg153
Nsg154
Nsssg195
(dp1875
g63
(dp1876
g148
Nsg149
Nsg150
Nsg151
Nsg152
Nsg153
Nsg154
Nssg65
(dp1877
g148
Nsg149
Nsg150
Nsg151
Nsg152
Nsg153
Nsg154
Nsssg199
(dp1878
g63
(dp1879
g148
Nsg149
Nsg150
Nsg151
Nsg152
Nsg153
Nsg154
Nssg65
(dp1880
g148
Nsg149
Nsg150
Nsg151
Nsg152
Nsg153
Nsg154
Nsssg203
(dp1881
g63
(dp1882
g148
Nsg149
Nsg150
Nsg151
Nsg152
Nsg153
Nsg154
Nssg65
(dp1883
g148
Nsg149
Nsg150
Nsg151
Nsg152
Nsg153
Nsg154
Nsssg207
(dp1884
Vtx B-tx A
p1885
(dp1886
g148
F0.6902271005766174
sg149
F-1.2992054821129413
sg150
F-0.30448919076816194
sg151
F1.9941683586067973
sg152
F0.73750000000000016
sg153
F0.27274841046018505
sg154
NssVtx A-tx B
p1887
(dp1888
g148
F1.2992054821129413
sg149
F-0.6902271005766174
sg150
F0.30448919076816194
sg151
F3.6663825036149089
sg152
F1.3559322033898302
sg153
F0.50146217378488467
sg154
Nssssg213
(dp1889
g63
(ima_dataset
TreatmentGroup
p1890
(dp1891
g217
(lp1892
F10.0
aF69.0
asg219
I0
sg36
g127
sbsg65
(ima_dataset
TreatmentGroup
p1893
(dp1894
g217
(lp1895
F8.0
aF72.0
asg219
I1
sg36
g131
sbssg223
g224
sg29
I00
sg228
I2
sbsssg229
I00
sg230
I1990
sg231
(lp1896
g224
ag133
asg219
I13
sba(ima_dataset
Study
p1897
(dp1898
g35
I01
sg36
VTulkens
p1899
sg38
(dp1900
sg25
g26
sg40
Nsg41
(dp1901
g7
(dp1902
g12
(ima_dataset
MetaAnalyticUnit
p1903
(dp1904
g46
(dp1905
g48
(dp1906
Vtx B-tx A
p1907
(dp1908
g52
Nsg53
Nsg54
Nsg55
Nsg56
Nsg57
Nsg58
NssVtx A-tx B
p1909
(dp1910
g52
Nsg53
Nsg54
Nsg55
Nsg56
Nsg57
Nsg58
Nsssg61
(dp1911
g63
(dp1912
g52
Nsg53
Nsg54
Nsg55
Nsg56
Nsg57
Nsg58
Nssg65
(dp1913
g52
Nsg53
Nsg54
Nsg55
Nsg56
Nsg57
Nsg58
Nsssg67
(dp1914
g63
(dp1915
g52
Nsg53
Nsg54
Nsg55
Nsg56
Nsg57
Nsg58
Nssg65
(dp1916
g52
Nsg53
Nsg54
Nsg55
Nsg56
Nsg57
Nsg58
Nsssg71
(dp1917
Vtx B-tx A
p1918
(dp1919
g52
Nsg53
Nsg54
Nsg55
Nsg56
Nsg57
Nsg58
NssVtx A-tx B
p1920
(dp1921
g52
F3.870618736159257
sg53
F-3.870618736159257
sg54
F0.0
sg55
F47.972058947539658
sg56
F1.0
sg57
F0.020845467589655896
sg58
Nsssg77
(dp1922
Vtx B-tx A
p1923
(dp1924
g52
Nsg53
Nsg54
Nsg55
Nsg56
Nsg57
Nsg58
NssVtx A-tx B
p1925
(dp1926
g52
Nsg53
Nsg54
Nsg55
Nsg56
Nsg57
Nsg58
Nsssg83
(dp1927
Vtx B-tx A
p1928
(dp1929
g52
Nsg53
Nsg54
Nsg55
Nsg56
Nsg57
Nsg58
NssVtx A-tx B
p1930
(dp1931
g52
Nsg53
Nsg54
Nsg55
Nsg56
Nsg57
Nsg58
Nsssg89
(dp1932
Vtx B-tx A
p1933
(dp1934
g52
Nsg53
Nsg54
Nsg55
Nsg56
Nsg57
Nsg58
NssVtx A-tx B
p1935
(dp1936
g52
Nsg53
Nsg54
Nsg55
Nsg56
Nsg57
Nsg58
Nsssg95
(dp1937
Vtx B-tx A
p1938
(dp1939
g52
Nsg53
Nsg54
Nsg55
Nsg56
Nsg57
Nsg58
NssVtx A-tx B
p1940
(dp1941
g52
Nsg53
Nsg54
Nsg55
Nsg56
Nsg57
Nsg58
Nsssg101
(dp1942
g63
(dp1943
g52
Nsg53
Nsg54
Nsg55
Nsg56
Nsg57
Nsg58
Nssg65
(dp1944
g52
Nsg53
Nsg54
Nsg55
Nsg56
Nsg57
Nsg58
Nsssg105
(dp1945
g63
(dp1946
g52
Nsg53
Nsg54
Nsg55
Nsg56
Nsg57
Nsg58
Nssg65
(dp1947
g52
Nsg53
Nsg54
Nsg55
Nsg56
Nsg57
Nsg58
Nsssg109
(dp1948
g63
(dp1949
g52
Nsg53
Nsg54
Nsg55
Nsg56
Nsg57
Nsg58
Nssg65
(dp1950
g52
Nsg53
Nsg54
Nsg55
Nsg56
Nsg57
Nsg58
Nsssg113
(dp1951
Vtx B-tx A
p1952
(dp1953
g52
F3.9698653704197504
sg53
F-3.9698653704197504
sg54
F0.0
sg55
F52.977398034683539
sg56
F1.0
sg57
F0.018875974228581675
sg58
NssVtx A-tx B
p1954
(dp1955
g52
F3.9698653704197504
sg53
F-3.9698653704197504
sg54
F0.0
sg55
F52.977398034683539
sg56
F1.0
sg57
F0.018875974228581675
sg58
Nssssg119
(dp1956
g63
(ima_dataset
TreatmentGroup
p1957
(dp1958
g123
(lp1959
F0.0
aF19.0
asg125
I0
sg126
g127
sbsg65
(ima_dataset
TreatmentGroup
p1960
(dp1961
g123
(lp1962
F0.0
aF19.0
asg125
I1
sg126
g131
sbssg132
g133
sg137
I00
sg138
I2
sbssg18
(dp1963
g20
(ima_dataset
MetaAnalyticUnit
p1964
(dp1965
g142
(dp1966
g144
(dp1967
Vtx B-tx A
p1968
(dp1969
g148
Nsg149
Nsg150
Nsg151
Nsg152
Nsg153
Nsg154
NssVtx A-tx B
p1970
(dp1971
g148
Nsg149
Nsg150
Nsg151
Nsg152
Nsg153
Nsg154
Nsssg157
(dp1972
g63
(dp1973
g148
Nsg149
Nsg150
Nsg151
Nsg152
Nsg153
Nsg154
Nssg65
(dp1974
g148
Nsg149
Nsg150
Nsg151
Nsg152
Nsg153
Nsg154
Nsssg161
(dp1975
g63
(dp1976
g148
Nsg149
Nsg150
Nsg151
Nsg152
Nsg153
Nsg154
Nssg65
(dp1977
g148
Nsg149
Nsg150
Nsg151
Nsg152
Nsg153
Nsg154
Nsssg165
(dp1978
Vtx B-tx A
p1979
(dp1980
g148
F3.870618736159257
sg149
F-3.870618736159257
sg150
F0.0
sg151
F47.972058947539658
sg152
F1.0
sg153
F0.020845467589655896
sg154
NssVtx A-tx B
p1981
(dp1982
g148
F3.870618736159257
sg149
F-3.870618736159257
sg150
F0.0
sg151
F47.972058947539658
sg152
F1.0
sg153
F0.020845467589655896
sg154
Nsssg171
(dp1983
Vtx B-tx A
p1984
(dp1985
g148
Nsg149
Nsg150
Nsg151
Nsg152
Nsg153
Nsg154
NssVtx A-tx B
p1986
(dp1987
g148
Nsg149
Nsg150
Nsg151
Nsg152
Nsg153
Nsg154
Nsssg177
(dp1988
Vtx B-tx A
p1989
(dp1990
g148
Nsg149
Nsg150
Nsg151
Nsg152
Nsg153
Nsg154
NssVtx A-tx B
p1991
(dp1992
g148
Nsg149
Nsg150
Nsg151
Nsg152
Nsg153
Nsg154
Nsssg183
(dp1993
Vtx B-tx A
p1994
(dp1995
g148
Nsg149
Nsg150
Nsg151
Nsg152
Nsg153
Nsg154
NssVtx A-tx B
p1996
(dp1997
g148
Nsg149
Nsg150
Nsg151
Nsg152
Nsg153
Nsg154
Nsssg189
(dp1998
Vtx B-tx A
p1999
(dp2000
g148
Nsg149
Nsg150
Nsg151
Nsg152
Nsg153
Nsg154
NssVtx A-tx B
p2001
(dp2002
g148
Nsg149
Nsg150
Nsg151
Nsg152
Nsg153
Nsg154
Nsssg195
(dp2003
g63
(dp2004
g148
Nsg149
Nsg150
Nsg151
Nsg152
Nsg153
Nsg154
Nssg65
(dp2005
g148
Nsg149
Nsg150
Nsg151
Nsg152
Nsg153
Nsg154
Nsssg199
(dp2006
g63
(dp2007
g148
Nsg149
Nsg150
Nsg151
Nsg152
Nsg153
Nsg154
Nssg65
(dp2008
g148
Nsg149
Nsg150
Nsg151
Nsg152
Nsg153
Nsg154
Nsssg203
(dp2009
g63
(dp2010
g148
Nsg149
Nsg150
Nsg151
Nsg152
Nsg153
Nsg154
Nssg65
(dp2011
g148
Nsg149
Nsg150
Nsg151
Nsg152
Nsg153
Nsg154
Nsssg207
(dp2012
Vtx B-tx A
p2013
(dp2014
g148
F3.9698653704197504
sg149
F-3.9698653704197504
sg150
F0.0
sg151
F52.977398034683539
sg152
F1.0
sg153
F0.018875974228581675
sg154
NssVtx A-tx B
p2015
(dp2016
g148
F3.9698653704197504
sg149
F-3.9698653704197504
sg150
F0.0
sg151
F52.977398034683539
sg152
F1.0
sg153
F0.018875974228581675
sg154
Nssssg213
(dp2017
g63
(ima_dataset
TreatmentGroup
p2018
(dp2019
g217
(lp2020
F0.0
aF19.0
asg219
I0
sg36
g127
sbsg65
(ima_dataset
TreatmentGroup
p2021
(dp2022
g217
(lp2023
F0.0
aF19.0
asg219
I1
sg36
g131
sbssg223
g224
sg29
I00
sg228
I2
sbsssg229
I00
sg230
I1988
sg231
(lp2024
g224
ag133
asg219
I14
sba(ima_dataset
Study
p2025
(dp2026
g35
I01
sg36
VVan der Auwera
p2027
sg38
(dp2028
sg25
g26
sg40
Nsg41
(dp2029
g7
(dp2030
g12
(ima_dataset
MetaAnalyticUnit
p2031
(dp2032
g46
(dp2033
g48
(dp2034
Vtx B-tx A
p2035
(dp2036
g52
Nsg53
Nsg54
Nsg55
Nsg56
Nsg57
Nsg58
NssVtx A-tx B
p2037
(dp2038
g52
Nsg53
Nsg54
Nsg55
Nsg56
Nsg57
Nsg58
Nsssg61
(dp2039
g63
(dp2040
g52
Nsg53
Nsg54
Nsg55
Nsg56
Nsg57
Nsg58
Nssg65
(dp2041
g52
Nsg53
Nsg54
Nsg55
Nsg56
Nsg57
Nsg58
Nsssg67
(dp2042
g63
(dp2043
g52
Nsg53
Nsg54
Nsg55
Nsg56
Nsg57
Nsg58
Nssg65
(dp2044
g52
Nsg53
Nsg54
Nsg55
Nsg56
Nsg57
Nsg58
Nsssg71
(dp2045
Vtx B-tx A
p2046
(dp2047
g52
Nsg53
Nsg54
Nsg55
Nsg56
Nsg57
Nsg58
NssVtx A-tx B
p2048
(dp2049
g52
F1.1072543980439158
sg53
F-3.3044789753801358
sg54
F-1.09861228866811
sg55
F3.026038680630097
sg56
F0.3333333333333332
sg57
F0.036718338011454278
sg58
Nsssg77
(dp2050
Vtx B-tx A
p2051
(dp2052
g52
Nsg53
Nsg54
Nsg55
Nsg56
Nsg57
Nsg58
NssVtx A-tx B
p2053
(dp2054
g52
Nsg53
Nsg54
Nsg55
Nsg56
Nsg57
Nsg58
Nsssg83
(dp2055
Vtx B-tx A
p2056
(dp2057
g52
Nsg53
Nsg54
Nsg55
Nsg56
Nsg57
Nsg58
NssVtx A-tx B
p2058
(dp2059
g52
Nsg53
Nsg54
Nsg55
Nsg56
Nsg57
Nsg58
Nsssg89
(dp2060
Vtx B-tx A
p2061
(dp2062
g52
Nsg53
Nsg54
Nsg55
Nsg56
Nsg57
Nsg58
NssVtx A-tx B
p2063
(dp2064
g52
Nsg53
Nsg54
Nsg55
Nsg56
Nsg57
Nsg58
Nsssg95
(dp2065
Vtx B-tx A
p2066
(dp2067
g52
Nsg53
Nsg54
Nsg55
Nsg56
Nsg57
Nsg58
NssVtx A-tx B
p2068
(dp2069
g52
Nsg53
Nsg54
Nsg55
Nsg56
Nsg57
Nsg58
Nsssg101
(dp2070
g63
(dp2071
g52
Nsg53
Nsg54
Nsg55
Nsg56
Nsg57
Nsg58
Nssg65
(dp2072
g52
Nsg53
Nsg54
Nsg55
Nsg56
Nsg57
Nsg58
Nsssg105
(dp2073
g63
(dp2074
g52
Nsg53
Nsg54
Nsg55
Nsg56
Nsg57
Nsg58
Nssg65
(dp2075
g52
Nsg53
Nsg54
Nsg55
Nsg56
Nsg57
Nsg58
Nsssg109
(dp2076
g63
(dp2077
g52
Nsg53
Nsg54
Nsg55
Nsg56
Nsg57
Nsg58
Nssg65
(dp2078
g52
Nsg53
Nsg54
Nsg55
Nsg56
Nsg57
Nsg58
Nsssg113
(dp2079
Vtx B-tx A
p2080
(dp2081
g52
F3.493147972033936
sg53
F-1.153005466733426
sg54
F1.170071252650255
sg55
F32.88931957322481
sg56
F3.2222222222222237
sg57
F0.31568655673361179
sg58
NssVtx A-tx B
p2082
(dp2083
g52
F1.153005466733426
sg53
F-3.493147972033936
sg54
F-1.170071252650255
sg55
F3.1676990314283091
sg56
F0.3103448275862068
sg57
F0.030405007247827034
sg58
Nssssg119
(dp2084
g63
(ima_dataset
TreatmentGroup
p2085
(dp2086
g123
(lp2087
F1.0
aF30.0
asg125
I0
sg126
g127
sbsg65
(ima_dataset
TreatmentGroup
p2088
(dp2089
g123
(lp2090
F3.0
aF30.0
asg125
I1
sg126
g131
sbssg132
g133
sg137
I00
sg138
I2
sbssg18
(dp2091
g20
(ima_dataset
MetaAnalyticUnit
p2092
(dp2093
g142
(dp2094
g144
(dp2095
Vtx B-tx A
p2096
(dp2097
g148
Nsg149
Nsg150
Nsg151
Nsg152
Nsg153
Nsg154
NssVtx A-tx B
p2098
(dp2099
g148
Nsg149
Nsg150
Nsg151
Nsg152
Nsg153
Nsg154
Nsssg157
(dp2100
g63
(dp2101
g148
Nsg149
Nsg150
Nsg151
Nsg152
Nsg153
Nsg154
Nssg65
(dp2102
g148
Nsg149
Nsg150
Nsg151
Nsg152
Nsg153
Nsg154
Nsssg161
(dp2103
g63
(dp2104
g148
Nsg149
Nsg150
Nsg151
Nsg152
Nsg153
Nsg154
Nssg65
(dp2105
g148
Nsg149
Nsg150
Nsg151
Nsg152
Nsg153
Nsg154
Nsssg165
(dp2106
Vtx B-tx A
p2107
(dp2108
g148
F4.6047117090540173
sg149
F-1.3858358841858158
sg150
F1.6094379124341005
sg151
F99.954162815041528
sg152
F5.0000000000000009
sg153
F0.25011464551267204
sg154
NssVtx A-tx B
p2109
(dp2110
g148
F1.3858358841858158
sg149
F-4.6047117090540173
sg150
F-1.6094379124341005
sg151
F3.9981665126016579
sg152
F0.19999999999999998
sg153
F0.010004585820506876
sg154
Nsssg171
(dp2111
Vtx B-tx A
p2112
(dp2113
g148
Nsg149
Nsg150
Nsg151
Nsg152
Nsg153
Nsg154
NssVtx A-tx B
p2114
(dp2115
g148
Nsg149
Nsg150
Nsg151
Nsg152
Nsg153
Nsg154
Nsssg177
(dp2116
Vtx B-tx A
p2117
(dp2118
g148
Nsg149
Nsg150
Nsg151
Nsg152
Nsg153
Nsg154
NssVtx A-tx B
p2119
(dp2120
g148
Nsg149
Nsg150
Nsg151
Nsg152
Nsg153
Nsg154
Nsssg183
(dp2121
Vtx B-tx A
p2122
(dp2123
g148
Nsg149
Nsg150
Nsg151
Nsg152
Nsg153
Nsg154
NssVtx A-tx B
p2124
(dp2125
g148
Nsg149
Nsg150
Nsg151
Nsg152
Nsg153
Nsg154
Nsssg189
(dp2126
Vtx B-tx A
p2127
(dp2128
g148
Nsg149
Nsg150
Nsg151
Nsg152
Nsg153
Nsg154
NssVtx A-tx B
p2129
(dp2130
g148
Nsg149
Nsg150
Nsg151
Nsg152
Nsg153
Nsg154
Nsssg195
(dp2131
g63
(dp2132
g148
Nsg149
Nsg150
Nsg151
Nsg152
Nsg153
Nsg154
Nssg65
(dp2133
g148
Nsg149
Nsg150
Nsg151
Nsg152
Nsg153
Nsg154
Nsssg199
(dp2134
g63
(dp2135
g148
Nsg149
Nsg150
Nsg151
Nsg152
Nsg153
Nsg154
Nssg65
(dp2136
g148
Nsg149
Nsg150
Nsg151
Nsg152
Nsg153
Nsg154
Nsssg203
(dp2137
g63
(dp2138
g148
Nsg149
Nsg150
Nsg151
Nsg152
Nsg153
Nsg154
Nssg65
(dp2139
g148
Nsg149
Nsg150
Nsg151
Nsg152
Nsg153
Nsg154
Nsssg207
(dp2140
Vtx B-tx A
p2141
(dp2142
g148
F4.7562601300773419
sg149
F-1.4017391125316192
sg150
F1.6772605087728616
sg151
F116.310126746146
sg152
F5.3508771929824563
sg153
F0.24616847677305567
sg154
NssVtx A-tx B
p2143
(dp2144
g148
F1.4017391125316192
sg149
F-4.7562601300773419
sg150
F-1.6772605087728616
sg151
F4.0622585519831063
sg152
F0.18688524590163932
sg153
F0.0085977036391900897
sg154
Nssssg213
(dp2145
g63
(ima_dataset
TreatmentGroup
p2146
(dp2147
g217
(lp2148
F0.0
aF30.0
asg219
I0
sg36
g127
sbsg65
(ima_dataset
TreatmentGroup
p2149
(dp2150
g217
(lp2151
F2.0
aF30.0
asg219
I1
sg36
g131
sbssg223
g224
sg29
I00
sg228
I2
sbsssg229
I00
sg230
I1991
sg231
(lp2152
g224
ag133
asg219
I15
sba(ima_dataset
Study
p2153
(dp2154
g35
I01
sg36
VKlastersky
p2155
sg38
(dp2156
sg25
g26
sg40
Nsg41
(dp2157
g7
(dp2158
g12
(ima_dataset
MetaAnalyticUnit
p2159
(dp2160
g46
(dp2161
g48
(dp2162
Vtx B-tx A
p2163
(dp2164
g52
Nsg53
Nsg54
Nsg55
Nsg56
Nsg57
Nsg58
NssVtx A-tx B
p2165
(dp2166
g52
Nsg53
Nsg54
Nsg55
Nsg56
Nsg57
Nsg58
Nsssg61
(dp2167
g63
(dp2168
g52
Nsg53
Nsg54
Nsg55
Nsg56
Nsg57
Nsg58
Nssg65
(dp2169
g52
Nsg53
Nsg54
Nsg55
Nsg56
Nsg57
Nsg58
Nsssg67
(dp2170
g63
(dp2171
g52
Nsg53
Nsg54
Nsg55
Nsg56
Nsg57
Nsg58
Nssg65
(dp2172
g52
Nsg53
Nsg54
Nsg55
Nsg56
Nsg57
Nsg58
Nsssg71
(dp2173
Vtx B-tx A
p2174
(dp2175
g52
Nsg53
Nsg54
Nsg55
Nsg56
Nsg57
Nsg58
NssVtx A-tx B
p2176
(dp2177
g52
F1.5012181192198175
sg53
F-1.5012181192198175
sg54
F0.0
sg55
F4.4871516282798467
sg56
F1.0
sg57
F0.22285852648651205
sg58
Nsssg77
(dp2178
Vtx B-tx A
p2179
(dp2180
g52
Nsg53
Nsg54
Nsg55
Nsg56
Nsg57
Nsg58
NssVtx A-tx B
p2181
(dp2182
g52
Nsg53
Nsg54
Nsg55
Nsg56
Nsg57
Nsg58
Nsssg83
(dp2183
Vtx B-tx A
p2184
(dp2185
g52
Nsg53
Nsg54
Nsg55
Nsg56
Nsg57
Nsg58
NssVtx A-tx B
p2186
(dp2187
g52
Nsg53
Nsg54
Nsg55
Nsg56
Nsg57
Nsg58
Nsssg89
(dp2188
Vtx B-tx A
p2189
(dp2190
g52
Nsg53
Nsg54
Nsg55
Nsg56
Nsg57
Nsg58
NssVtx A-tx B
p2191
(dp2192
g52
Nsg53
Nsg54
Nsg55
Nsg56
Nsg57
Nsg58
Nsssg95
(dp2193
Vtx B-tx A
p2194
(dp2195
g52
Nsg53
Nsg54
Nsg55
Nsg56
Nsg57
Nsg58
NssVtx A-tx B
p2196
(dp2197
g52
Nsg53
Nsg54
Nsg55
Nsg56
Nsg57
Nsg58
Nsssg101
(dp2198
g63
(dp2199
g52
Nsg53
Nsg54
Nsg55
Nsg56
Nsg57
Nsg58
Nssg65
(dp2200
g52
Nsg53
Nsg54
Nsg55
Nsg56
Nsg57
Nsg58
Nsssg105
(dp2201
g63
(dp2202
g52
Nsg53
Nsg54
Nsg55
Nsg56
Nsg57
Nsg58
Nssg65
(dp2203
g52
Nsg53
Nsg54
Nsg55
Nsg56
Nsg57
Nsg58
Nsssg109
(dp2204
g63
(dp2205
g52
Nsg53
Nsg54
Nsg55
Nsg56
Nsg57
Nsg58
Nssg65
(dp2206
g52
Nsg53
Nsg54
Nsg55
Nsg56
Nsg57
Nsg58
Nsssg113
(dp2207
Vtx B-tx A
p2208
(dp2209
g52
F1.4323284367170934
sg53
F-2.3321621780750892
sg54
F-0.44991687067899799
sg55
F4.1884403650028661
sg56
F0.63768115942029002
sg57
F0.097085603624041839
sg58
NssVtx A-tx B
p2210
(dp2211
g52
F1.7059296809316107
sg53
F-1.7059296809316107
sg54
F0.0
sg55
F5.5065025787427304
sg56
F1.0
sg57
F0.181603474383249
sg58
Nssssg119
(dp2212
g63
(ima_dataset
TreatmentGroup
p2213
(dp2214
g123
(lp2215
F3.0
aF25.0
asg125
I0
sg126
g127
sbsg65
(ima_dataset
TreatmentGroup
p2216
(dp2217
g123
(lp2218
F3.0
aF25.0
asg125
I1
sg126
g131
sbssg132
g133
sg137
I00
sg138
I2
sbssg18
(dp2219
g20
(ima_dataset
MetaAnalyticUnit
p2220
(dp2221
g142
(dp2222
g144
(dp2223
Vtx B-tx A
p2224
(dp2225
g148
Nsg149
Nsg150
Nsg151
Nsg152
Nsg153
Nsg154
NssVtx A-tx B
p2226
(dp2227
g148
Nsg149
Nsg150
Nsg151
Nsg152
Nsg153
Nsg154
Nsssg157
(dp2228
g63
(dp2229
g148
Nsg149
Nsg150
Nsg151
Nsg152
Nsg153
Nsg154
Nssg65
(dp2230
g148
Nsg149
Nsg150
Nsg151
Nsg152
Nsg153
Nsg154
Nsssg161
(dp2231
g63
(dp2232
g148
Nsg149
Nsg150
Nsg151
Nsg152
Nsg153
Nsg154
Nssg65
(dp2233
g148
Nsg149
Nsg150
Nsg151
Nsg152
Nsg153
Nsg154
Nsssg165
(dp2234
Vtx B-tx A
p2235
(dp2236
g148
F-0.14932946460732399
sg149
F-2.4492365036531973
sg150
F-1.2992829841302607
sg151
F0.86128530512404089
sg152
F0.27272727272727276
sg153
F0.086359496495234084
sg154
NssVtx A-tx B
p2237
(dp2238
g148
F2.4492365036531973
sg149
F0.14932946460732399
sg150
F1.2992829841302607
sg151
F11.579502435556545
sg152
F3.6666666666666661
sg153
F1.1610554528803689
sg154
Nsssg171
(dp2239
Vtx B-tx A
p2240
(dp2241
g148
Nsg149
Nsg150
Nsg151
Nsg152
Nsg153
Nsg154
NssVtx A-tx B
p2242
(dp2243
g148
Nsg149
Nsg150
Nsg151
Nsg152
Nsg153
Nsg154
Nsssg177
(dp2244
Vtx B-tx A
p2245
(dp2246
g148
Nsg149
Nsg150
Nsg151
Nsg152
Nsg153
Nsg154
NssVtx A-tx B
p2247
(dp2248
g148
Nsg149
Nsg150
Nsg151
Nsg152
Nsg153
Nsg154
Nsssg183
(dp2249
Vtx B-tx A
p2250
(dp2251
g148
Nsg149
Nsg150
Nsg151
Nsg152
Nsg153
Nsg154
NssVtx A-tx B
p2252
(dp2253
g148
Nsg149
Nsg150
Nsg151
Nsg152
Nsg153
Nsg154
Nsssg189
(dp2254
Vtx B-tx A
p2255
(dp2256
g148
Nsg149
Nsg150
Nsg151
Nsg152
Nsg153
Nsg154
NssVtx A-tx B
p2257
(dp2258
g148
Nsg149
Nsg150
Nsg151
Nsg152
Nsg153
Nsg154
Nsssg195
(dp2259
g63
(dp2260
g148
Nsg149
Nsg150
Nsg151
Nsg152
Nsg153
Nsg154
Nssg65
(dp2261
g148
Nsg149
Nsg150
Nsg151
Nsg152
Nsg153
Nsg154
Nsssg199
(dp2262
g63
(dp2263
g148
Nsg149
Nsg150
Nsg151
Nsg152
Nsg153
Nsg154
Nssg65
(dp2264
g148
Nsg149
Nsg150
Nsg151
Nsg152
Nsg153
Nsg154
Nsssg203
(dp2265
g63
(dp2266
g148
Nsg149
Nsg150
Nsg151
Nsg152
Nsg153
Nsg154
Nssg65
(dp2267
g148
Nsg149
Nsg150
Nsg151
Nsg152
Nsg153
Nsg154
Nsssg207
(dp2268
Vtx B-tx A
p2269
(dp2270
g148
F-0.30949437976630656
sg149
F-3.1930418359803294
sg150
F-1.7512681078733181
sg151
F0.7338178956150252
sg152
F0.17355371900826447
sg153
F0.041046823144527962
sg154
NssVtx A-tx B
p2271
(dp2272
g148
F3.1930418359803294
sg149
F0.30949437976630656
sg150
F1.7512681078733181
sg151
F24.362421337187261
sg152
F5.7619047619047619
sg153
F1.3627359130590335
sg154
Nssssg213
(dp2273
g63
(ima_dataset
TreatmentGroup
p2274
(dp2275
g217
(lp2276
F11.0
aF25.0
asg219
I0
sg36
g127
sbsg65
(ima_dataset
TreatmentGroup
p2277
(dp2278
g217
(lp2279
F3.0
aF25.0
asg219
I1
sg36
g131
sbssg223
g224
sg29
I00
sg228
I2
sbsssg229
I00
sg230
I1977
sg231
(lp2280
g224
ag133
asg219
I16
sba(ima_dataset
Study
p2281
(dp2282
g35
I01
sg36
VVanhaeverbeek
p2283
sg38
(dp2284
sg25
g26
sg40
Nsg41
(dp2285
g7
(dp2286
g12
(ima_dataset
MetaAnalyticUnit
p2287
(dp2288
g46
(dp2289
g48
(dp2290
Vtx B-tx A
p2291
(dp2292
g52
Nsg53
Nsg54
Nsg55
Nsg56
Nsg57
Nsg58
NssVtx A-tx B
p2293
(dp2294
g52
Nsg53
Nsg54
Nsg55
Nsg56
Nsg57
Nsg58
Nsssg61
(dp2295
g63
(dp2296
g52
Nsg53
Nsg54
Nsg55
Nsg56
Nsg57
Nsg58
Nssg65
(dp2297
g52
Nsg53
Nsg54
Nsg55
Nsg56
Nsg57
Nsg58
Nsssg67
(dp2298
g63
(dp2299
g52
Nsg53
Nsg54
Nsg55
Nsg56
Nsg57
Nsg58
Nssg65
(dp2300
g52
Nsg53
Nsg54
Nsg55
Nsg56
Nsg57
Nsg58
Nsssg71
(dp2301
Vtx B-tx A
p2302
(dp2303
g52
Nsg53
Nsg54
Nsg55
Nsg56
Nsg57
Nsg58
NssVtx A-tx B
p2304
(dp2305
g52
F2.0916569279499799
sg53
F-4.1913011769473343
sg54
F-1.0498221244986774
sg55
F8.0983223905506012
sg56
F0.35000000000000009
sg57
F0.015126589692568587
sg58
Nsssg77
(dp2306
Vtx B-tx A
p2307
(dp2308
g52
Nsg53
Nsg54
Nsg55
Nsg56
Nsg57
Nsg58
NssVtx A-tx B
p2309
(dp2310
g52
Nsg53
Nsg54
Nsg55
Nsg56
Nsg57
Nsg58
Nsssg83
(dp2311
Vtx B-tx A
p2312
(dp2313
g52
Nsg53
Nsg54
Nsg55
Nsg56
Nsg57
Nsg58
NssVtx A-tx B
p2314
(dp2315
g52
Nsg53
Nsg54
Nsg55
Nsg56
Nsg57
Nsg58
Nsssg89
(dp2316
Vtx B-tx A
p2317
(dp2318
g52
Nsg53
Nsg54
Nsg55
Nsg56
Nsg57
Nsg58
NssVtx A-tx B
p2319
(dp2320
g52
Nsg53
Nsg54
Nsg55
Nsg56
Nsg57
Nsg58
Nsssg95
(dp2321
Vtx B-tx A
p2322
(dp2323
g52
Nsg53
Nsg54
Nsg55
Nsg56
Nsg57
Nsg58
NssVtx A-tx B
p2324
(dp2325
g52
Nsg53
Nsg54
Nsg55
Nsg56
Nsg57
Nsg58
Nsssg101
(dp2326
g63
(dp2327
g52
Nsg53
Nsg54
Nsg55
Nsg56
Nsg57
Nsg58
Nssg65
(dp2328
g52
Nsg53
Nsg54
Nsg55
Nsg56
Nsg57
Nsg58
Nsssg105
(dp2329
g63
(dp2330
g52
Nsg53
Nsg54
Nsg55
Nsg56
Nsg57
Nsg58
Nssg65
(dp2331
g52
Nsg53
Nsg54
Nsg55
Nsg56
Nsg57
Nsg58
Nsssg109
(dp2332
g63
(dp2333
g52
Nsg53
Nsg54
Nsg55
Nsg56
Nsg57
Nsg58
Nssg65
(dp2334
g52
Nsg53
Nsg54
Nsg55
Nsg56
Nsg57
Nsg58
Nsssg113
(dp2335
Vtx B-tx A
p2336
(dp2337
g52
F4.3601895091243588
sg53
F-2.1629649317881396
sg54
F1.0986122886681096
sg55
F78.27196626944432
sg56
F2.9999999999999996
sg57
F0.11498369632134056
sg58
NssVtx A-tx B
p2338
(dp2339
g52
F2.1629649317881392
sg53
F-4.3601895091243588
sg54
F-1.0986122886681096
sg55
F8.6968851410493677
sg56
F0.33333333333333337
sg57
F0.012775966257926734
sg58
Nssssg119
(dp2340
g63
(ima_dataset
TreatmentGroup
p2341
(dp2342
g123
(lp2343
F0.0
aF19.0
asg125
I0
sg126
g127
sbsg65
(ima_dataset
TreatmentGroup
p2344
(dp2345
g123
(lp2346
F1.0
aF20.0
asg125
I1
sg126
g131
sbssg132
g133
sg137
I00
sg138
I2
sbssg18
(dp2347
g20
(ima_dataset
MetaAnalyticUnit
p2348
(dp2349
g142
(dp2350
g144
(dp2351
Vtx B-tx A
p2352
(dp2353
g148
Nsg149
Nsg150
Nsg151
Nsg152
Nsg153
Nsg154
NssVtx A-tx B
p2354
(dp2355
g148
Nsg149
Nsg150
Nsg151
Nsg152
Nsg153
Nsg154
Nsssg157
(dp2356
g63
(dp2357
g148
Nsg149
Nsg150
Nsg151
Nsg152
Nsg153
Nsg154
Nssg65
(dp2358
g148
Nsg149
Nsg150
Nsg151
Nsg152
Nsg153
Nsg154
Nsssg161
(dp2359
g63
(dp2360
g148
Nsg149
Nsg150
Nsg151
Nsg152
Nsg153
Nsg154
Nssg65
(dp2361
g148
Nsg149
Nsg150
Nsg151
Nsg152
Nsg153
Nsg154
Nsssg165
(dp2362
Vtx B-tx A
p2363
(dp2364
g148
F3.8230098992677988
sg149
F-3.9205902276066631
sg150
F-0.04879016416943216
sg151
F45.74167917701218
sg152
F0.95238095238095222
sg153
F0.019829387437833371
sg154
NssVtx A-tx B
p2365
(dp2366
g148
F3.9205902276066631
sg149
F-3.8230098992677988
sg150
F0.04879016416943216
sg151
F50.430201292655944
sg152
F1.0500000000000003
sg153
F0.021861899650211299
sg154
Nsssg171
(dp2367
Vtx B-tx A
p2368
(dp2369
g148
Nsg149
Nsg150
Nsg151
Nsg152
Nsg153
Nsg154
NssVtx A-tx B
p2370
(dp2371
g148
Nsg149
Nsg150
Nsg151
Nsg152
Nsg153
Nsg154
Nsssg177
(dp2372
Vtx B-tx A
p2373
(dp2374
g148
Nsg149
Nsg150
Nsg151
Nsg152
Nsg153
Nsg154
NssVtx A-tx B
p2375
(dp2376
g148
Nsg149
Nsg150
Nsg151
Nsg152
Nsg153
Nsg154
Nsssg183
(dp2377
Vtx B-tx A
p2378
(dp2379
g148
Nsg149
Nsg150
Nsg151
Nsg152
Nsg153
Nsg154
NssVtx A-tx B
p2380
(dp2381
g148
Nsg149
Nsg150
Nsg151
Nsg152
Nsg153
Nsg154
Nsssg189
(dp2382
Vtx B-tx A
p2383
(dp2384
g148
Nsg149
Nsg150
Nsg151
Nsg152
Nsg153
Nsg154
NssVtx A-tx B
p2385
(dp2386
g148
Nsg149
Nsg150
Nsg151
Nsg152
Nsg153
Nsg154
Nsssg195
(dp2387
g63
(dp2388
g148
Nsg149
Nsg150
Nsg151
Nsg152
Nsg153
Nsg154
Nssg65
(dp2389
g148
Nsg149
Nsg150
Nsg151
Nsg152
Nsg153
Nsg154
Nsssg199
(dp2390
g63
(dp2391
g148
Nsg149
Nsg150
Nsg151
Nsg152
Nsg153
Nsg154
Nssg65
(dp2392
g148
Nsg149
Nsg150
Nsg151
Nsg152
Nsg153
Nsg154
Nsssg203
(dp2393
g63
(dp2394
g148
Nsg149
Nsg150
Nsg151
Nsg152
Nsg153
Nsg154
Nssg65
(dp2395
g148
Nsg149
Nsg150
Nsg151
Nsg152
Nsg153
Nsg154
Nsssg207
(dp2396
Vtx B-tx A
p2397
(dp2398
g148
F3.9186444404800289
sg149
F-4.0186652816293522
sg150
F-0.050010420574661651
sg151
F50.332170260876453
sg152
F0.95121951219512169
sg153
F0.017976943090094549
sg154
NssVtx A-tx B
p2399
(dp2400
g148
F4.0186652816293522
sg149
F-3.9186444404800289
sg150
F0.050010420574661651
sg151
F55.626810130528177
sg152
F1.0512820512820515
sg153
F0.019868008766896091
sg154
Nssssg213
(dp2401
g63
(ima_dataset
TreatmentGroup
p2402
(dp2403
g217
(lp2404
F0.0
aF19.0
asg219
I0
sg36
g127
sbsg65
(ima_dataset
TreatmentGroup
p2405
(dp2406
g217
(lp2407
F0.0
aF20.0
asg219
I1
sg36
g131
sbssg223
g224
sg29
I00
sg228
I2
sbsssg229
I00
sg230
I1993
sg231
(lp2408
g224
ag133
asg219
I17
sba(ima_dataset
Study
p2409
(dp2410
g35
I01
sg36
VHollender
p2411
sg38
(dp2412
sg25
g26
sg40
Nsg41
(dp2413
g7
(dp2414
g12
(ima_dataset
MetaAnalyticUnit
p2415
(dp2416
g46
(dp2417
g48
(dp2418
Vtx B-tx A
p2419
(dp2420
g52
Nsg53
Nsg54
Nsg55
Nsg56
Nsg57
Nsg58
NssVtx A-tx B
p2421
(dp2422
g52
Nsg53
Nsg54
Nsg55
Nsg56
Nsg57
Nsg58
Nsssg61
(dp2423
g63
(dp2424
g52
Nsg53
Nsg54
Nsg55
Nsg56
Nsg57
Nsg58
Nssg65
(dp2425
g52
Nsg53
Nsg54
Nsg55
Nsg56
Nsg57
Nsg58
Nsssg67
(dp2426
g63
(dp2427
g52
Nsg53
Nsg54
Nsg55
Nsg56
Nsg57
Nsg58
Nssg65
(dp2428
g52
Nsg53
Nsg54
Nsg55
Nsg56
Nsg57
Nsg58
Nsssg71
(dp2429
Vtx B-tx A
p2430
(dp2431
g52
Nsg53
Nsg54
Nsg55
Nsg56
Nsg57
Nsg58
NssVtx A-tx B
p2432
(dp2433
g52
F0.96034742748243485
sg53
F-4.9211400777354006
sg54
F-1.9803963251264829
sg55
F2.6126040061955473
sg56
F0.13801452784503629
sg57
F0.00729081401204228
sg58
Nsssg77
(dp2434
Vtx B-tx A
p2435
(dp2436
g52
Nsg53
Nsg54
Nsg55
Nsg56
Nsg57
Nsg58
NssVtx A-tx B
p2437
(dp2438
g52
Nsg53
Nsg54
Nsg55
Nsg56
Nsg57
Nsg58
Nsssg83
(dp2439
Vtx B-tx A
p2440
(dp2441
g52
Nsg53
Nsg54
Nsg55
Nsg56
Nsg57
Nsg58
NssVtx A-tx B
p2442
(dp2443
g52
Nsg53
Nsg54
Nsg55
Nsg56
Nsg57
Nsg58
Nsssg89
(dp2444
Vtx B-tx A
p2445
(dp2446
g52
Nsg53
Nsg54
Nsg55
Nsg56
Nsg57
Nsg58
NssVtx A-tx B
p2447
(dp2448
g52
Nsg53
Nsg54
Nsg55
Nsg56
Nsg57
Nsg58
Nsssg95
(dp2449
Vtx B-tx A
p2450
(dp2451
g52
Nsg53
Nsg54
Nsg55
Nsg56
Nsg57
Nsg58
NssVtx A-tx B
p2452
(dp2453
g52
Nsg53
Nsg54
Nsg55
Nsg56
Nsg57
Nsg58
Nsssg101
(dp2454
g63
(dp2455
g52
Nsg53
Nsg54
Nsg55
Nsg56
Nsg57
Nsg58
Nssg65
(dp2456
g52
Nsg53
Nsg54
Nsg55
Nsg56
Nsg57
Nsg58
Nsssg105
(dp2457
g63
(dp2458
g52
Nsg53
Nsg54
Nsg55
Nsg56
Nsg57
Nsg58
Nssg65
(dp2459
g52
Nsg53
Nsg54
Nsg55
Nsg56
Nsg57
Nsg58
Nsssg109
(dp2460
g63
(dp2461
g52
Nsg53
Nsg54
Nsg55
Nsg56
Nsg57
Nsg58
Nssg65
(dp2462
g52
Nsg53
Nsg54
Nsg55
Nsg56
Nsg57
Nsg58
Nsssg113
(dp2463
Vtx B-tx A
p2464
(dp2465
g52
F5.0215483086540562
sg53
F-0.9510378098717287
sg54
F2.0352552493911635
sg55
F151.64591680584826
sg56
F7.654205607476638
sg57
F0.38633986800010833
sg58
NssVtx A-tx B
p2466
(dp2467
g52
F0.9510378098717287
sg53
F-5.0215483086540562
sg54
F-2.0352552493911635
sg55
F2.588394527275967
sg56
F0.1306471306471306
sg57
F0.0065943087757535631
sg58
Nssssg119
(dp2468
g63
(ima_dataset
TreatmentGroup
p2469
(dp2470
g123
(lp2471
F0.0
aF58.0
asg125
I0
sg126
g127
sbsg65
(ima_dataset
TreatmentGroup
p2472
(dp2473
g123
(lp2474
F3.0
aF56.0
asg125
I1
sg126
g131
sbssg132
g133
sg137
I00
sg138
I2
sbssg18
(dp2475
g20
(ima_dataset
MetaAnalyticUnit
p2476
(dp2477
g142
(dp2478
g144
(dp2479
Vtx B-tx A
p2480
(dp2481
g148
Nsg149
Nsg150
Nsg151
Nsg152
Nsg153
Nsg154
NssVtx A-tx B
p2482
(dp2483
g148
Nsg149
Nsg150
Nsg151
Nsg152
Nsg153
Nsg154
Nsssg157
(dp2484
g63
(dp2485
g148
Nsg149
Nsg150
Nsg151
Nsg152
Nsg153
Nsg154
Nssg65
(dp2486
g148
Nsg149
Nsg150
Nsg151
Nsg152
Nsg153
Nsg154
Nsssg161
(dp2487
g63
(dp2488
g148
Nsg149
Nsg150
Nsg151
Nsg152
Nsg153
Nsg154
Nssg65
(dp2489
g148
Nsg149
Nsg150
Nsg151
Nsg152
Nsg153
Nsg154
Nsssg165
(dp2490
Vtx B-tx A
p2491
(dp2492
g148
F4.3129391372545438
sg149
F-2.0467422077759854
sg150
F1.1330984647392794
sg151
F74.659601597989777
sg152
F3.1052631578947381
sg153
F0.12915497904341922
sg154
NssVtx A-tx B
p2493
(dp2494
g148
F2.0467422077759854
sg149
F-4.3129391372545438
sg150
F-1.1330984647392794
sg151
F7.742636074942344
sg152
F0.32203389830508461
sg153
F0.013394124514413765
sg154
Nsssg171
(dp2495
Vtx B-tx A
p2496
(dp2497
g148
Nsg149
Nsg150
Nsg151
Nsg152
Nsg153
Nsg154
NssVtx A-tx B
p2498
(dp2499
g148
Nsg149
Nsg150
Nsg151
Nsg152
Nsg153
Nsg154
Nsssg177
(dp2500
Vtx B-tx A
p2501
(dp2502
g148
Nsg149
Nsg150
Nsg151
Nsg152
Nsg153
Nsg154
NssVtx A-tx B
p2503
(dp2504
g148
Nsg149
Nsg150
Nsg151
Nsg152
Nsg153
Nsg154
Nsssg183
(dp2505
Vtx B-tx A
p2506
(dp2507
g148
Nsg149
Nsg150
Nsg151
Nsg152
Nsg153
Nsg154
NssVtx A-tx B
p2508
(dp2509
g148
Nsg149
Nsg150
Nsg151
Nsg152
Nsg153
Nsg154
Nsssg189
(dp2510
Vtx B-tx A
p2511
(dp2512
g148
Nsg149
Nsg150
Nsg151
Nsg152
Nsg153
Nsg154
NssVtx A-tx B
p2513
(dp2514
g148
Nsg149
Nsg150
Nsg151
Nsg152
Nsg153
Nsg154
Nsssg195
(dp2515
g63
(dp2516
g148
Nsg149
Nsg150
Nsg151
Nsg152
Nsg153
Nsg154
Nssg65
(dp2517
g148
Nsg149
Nsg150
Nsg151
Nsg152
Nsg153
Nsg154
Nsssg199
(dp2518
g63
(dp2519
g148
Nsg149
Nsg150
Nsg151
Nsg152
Nsg153
Nsg154
Nssg65
(dp2520
g148
Nsg149
Nsg150
Nsg151
Nsg152
Nsg153
Nsg154
Nsssg203
(dp2521
g63
(dp2522
g148
Nsg149
Nsg150
Nsg151
Nsg152
Nsg153
Nsg154
Nssg65
(dp2523
g148
Nsg149
Nsg150
Nsg151
Nsg152
Nsg153
Nsg154
Nsssg207
(dp2524
Vtx B-tx A
p2525
(dp2526
g148
F4.3728661204601709
sg149
F-2.070354076153107
sg150
F1.151256022153532
sg151
F79.270505237762492
sg152
F3.1621621621621632
sg153
F0.12614111023789315
sg154
NssVtx A-tx B
p2527
(dp2528
g148
F2.070354076153107
sg149
F-4.3728661204601709
sg150
F-1.151256022153532
sg151
F7.9276296055589741
sg152
F0.31623931623931617
sg153
F0.012615032501693012
sg154
Nssssg213
(dp2529
g63
(ima_dataset
TreatmentGroup
p2530
(dp2531
g217
(lp2532
F0.0
aF58.0
asg219
I0
sg36
g127
sbsg65
(ima_dataset
TreatmentGroup
p2533
(dp2534
g217
(lp2535
F1.0
aF56.0
asg219
I1
sg36
g131
sbssg223
g224
sg29
I00
sg228
I2
sbsssg229
I00
sg230
I1989
sg231
(lp2536
g224
ag133
asg219
I18
sba(ima_dataset
Study
p2537
(dp2538
g35
I00
sg36
g26
sg38
(dp2539
sg25
g26
sg40
Nsg41
(dp2540
g7
(dp2541
g12
(ima_dataset
MetaAnalyticUnit
p2542
(dp2543
g46
(dp2544
g48
(dp2545
Vtx B-tx A
p2546
(dp2547
g52
Nsg53
Nsg54
Nsg55
Nsg56
Nsg57
Nsg58
NssVtx A-tx B
p2548
(dp2549
g52
Nsg53
Nsg54
Nsg55
Nsg56
Nsg57
Nsg58
Nsssg61
(dp2550
g63
(dp2551
g52
Nsg53
Nsg54
Nsg55
Nsg56
Nsg57
Nsg58
Nssg65
(dp2552
g52
Nsg53
Nsg54
Nsg55
Nsg56
Nsg57
Nsg58
Nsssg67
(dp2553
g63
(dp2554
g52
Nsg53
Nsg54
Nsg55
Nsg56
Nsg57
Nsg58
Nssg65
(dp2555
g52
Nsg53
Nsg54
Nsg55
Nsg56
Nsg57
Nsg58
Nsssg71
(dp2556
Vtx B-tx A
p2557
(dp2558
g52
Nsg53
Nsg54
Nsg55
Nsg56
Nsg57
Nsg58
NssVtx A-tx B
p2559
(dp2560
g52
Nsg53
Nsg54
Nsg55
Nsg56
Nsg57
Nsg58
Nsssg77
(dp2561
Vtx B-tx A
p2562
(dp2563
g52
Nsg53
Nsg54
Nsg55
Nsg56
Nsg57
Nsg58
NssVtx A-tx B
p2564
(dp2565
g52
Nsg53
Nsg54
Nsg55
Nsg56
Nsg57
Nsg58
Nsssg83
(dp2566
Vtx B-tx A
p2567
(dp2568
g52
Nsg53
Nsg54
Nsg55
Nsg56
Nsg57
Nsg58
NssVtx A-tx B
p2569
(dp2570
g52
Nsg53
Nsg54
Nsg55
Nsg56
Nsg57
Nsg58
Nsssg89
(dp2571
Vtx B-tx A
p2572
(dp2573
g52
Nsg53
Nsg54
Nsg55
Nsg56
Nsg57
Nsg58
NssVtx A-tx B
p2574
(dp2575
g52
Nsg53
Nsg54
Nsg55
Nsg56
Nsg57
Nsg58
Nsssg95
(dp2576
Vtx B-tx A
p2577
(dp2578
g52
Nsg53
Nsg54
Nsg55
Nsg56
Nsg57
Nsg58
NssVtx A-tx B
p2579
(dp2580
g52
Nsg53
Nsg54
Nsg55
Nsg56
Nsg57
Nsg58
Nsssg101
(dp2581
g63
(dp2582
g52
Nsg53
Nsg54
Nsg55
Nsg56
Nsg57
Nsg58
Nssg65
(dp2583
g52
Nsg53
Nsg54
Nsg55
Nsg56
Nsg57
Nsg58
Nsssg105
(dp2584
g63
(dp2585
g52
Nsg53
Nsg54
Nsg55
Nsg56
Nsg57
Nsg58
Nssg65
(dp2586
g52
Nsg53
Nsg54
Nsg55
Nsg56
Nsg57
Nsg58
Nsssg109
(dp2587
g63
(dp2588
g52
Nsg53
Nsg54
Nsg55
Nsg56
Nsg57
Nsg58
Nssg65
(dp2589
g52
Nsg53
Nsg54
Nsg55
Nsg56
Nsg57
Nsg58
Nsssg113
(dp2590
Vtx B-tx A
p2591
(dp2592
g52
Nsg53
Nsg54
Nsg55
Nsg56
Nsg57
Nsg58
NssVtx A-tx B
p2593
(dp2594
g52
Nsg53
Nsg54
Nsg55
Nsg56
Nsg57
Nsg58
Nssssg119
(dp2595
g63
(ima_dataset
TreatmentGroup
p2596
(dp2597
g123
(lp2598
g26
ag26
asg125
I0
sg126
g127
sbsg65
(ima_dataset
TreatmentGroup
p2599
(dp2600
g123
(lp2601
g26
ag26
asg125
I1
sg126
g131
sbssg132
g133
sg137
I00
sg138
I2
sbssg18
(dp2602
g20
(ima_dataset
MetaAnalyticUnit
p2603
(dp2604
g142
(dp2605
g144
(dp2606
Vtx B-tx A
p2607
(dp2608
g148
Nsg149
Nsg150
Nsg151
Nsg152
Nsg153
Nsg154
NssVtx A-tx B
p2609
(dp2610
g148
Nsg149
Nsg150
Nsg151
Nsg152
Nsg153
Nsg154
Nsssg157
(dp2611
g63
(dp2612
g148
Nsg149
Nsg150
Nsg151
Nsg152
Nsg153
Nsg154
Nssg65
(dp2613
g148
Nsg149
Nsg150
Nsg151
Nsg152
Nsg153
Nsg154
Nsssg161
(dp2614
g63
(dp2615
g148
Nsg149
Nsg150
Nsg151
Nsg152
Nsg153
Nsg154
Nssg65
(dp2616
g148
Nsg149
Nsg150
Nsg151
Nsg152
Nsg153
Nsg154
Nsssg165
(dp2617
Vtx B-tx A
p2618
(dp2619
g148
Nsg149
Nsg150
Nsg151
Nsg152
Nsg153
Nsg154
NssVtx A-tx B
p2620
(dp2621
g148
Nsg149
Nsg150
Nsg151
Nsg152
Nsg153
Nsg154
Nsssg171
(dp2622
Vtx B-tx A
p2623
(dp2624
g148
Nsg149
Nsg150
Nsg151
Nsg152
Nsg153
Nsg154
NssVtx A-tx B
p2625
(dp2626
g148
Nsg149
Nsg150
Nsg151
Nsg152
Nsg153
Nsg154
Nsssg177
(dp2627
Vtx B-tx A
p2628
(dp2629
g148
Nsg149
Nsg150
Nsg151
Nsg152
Nsg153
Nsg154
NssVtx A-tx B
p2630
(dp2631
g148
Nsg149
Nsg150
Nsg151
Nsg152
Nsg153
Nsg154
Nsssg183
(dp2632
Vtx B-tx A
p2633
(dp2634
g148
Nsg149
Nsg150
Nsg151
Nsg152
Nsg153
Nsg154
NssVtx A-tx B
p2635
(dp2636
g148
Nsg149
Nsg150
Nsg151
Nsg152
Nsg153
Nsg154
Nsssg189
(dp2637
Vtx B-tx A
p2638
(dp2639
g148
Nsg149
Nsg150
Nsg151
Nsg152
Nsg153
Nsg154
NssVtx A-tx B
p2640
(dp2641
g148
Nsg149
Nsg150
Nsg151
Nsg152
Nsg153
Nsg154
Nsssg195
(dp2642
g63
(dp2643
g148
Nsg149
Nsg150
Nsg151
Nsg152
Nsg153
Nsg154
Nssg65
(dp2644
g148
Nsg149
Nsg150
Nsg151
Nsg152
Nsg153
Nsg154
Nsssg199
(dp2645
g63
(dp2646
g148
Nsg149
Nsg150
Nsg151
Nsg152
Nsg153
Nsg154
Nssg65
(dp2647
g148
Nsg149
Nsg150
Nsg151
Nsg152
Nsg153
Nsg154
Nsssg203
(dp2648
g63
(dp2649
g148
Nsg149
Nsg150
Nsg151
Nsg152
Nsg153
Nsg154
Nssg65
(dp2650
g148
Nsg149
Nsg150
Nsg151
Nsg152
Nsg153
Nsg154
Nsssg207
(dp2651
Vtx B-tx A
p2652
(dp2653
g148
Nsg149
Nsg150
Nsg151
Nsg152
Nsg153
Nsg154
NssVtx A-tx B
p2654
(dp2655
g148
Nsg149
Nsg150
Nsg151
Nsg152
Nsg153
Nsg154
Nssssg213
(dp2656
g63
(ima_dataset
TreatmentGroup
p2657
(dp2658
g217
(lp2659
g26
ag26
asg219
I0
sg36
g127
sbsg65
(ima_dataset
TreatmentGroup
p2660
(dp2661
g217
(lp2662
g26
ag26
asg219
I1
sg36
g131
sbssg223
g224
sg29
I00
sg228
I2
sbsssg229
I00
sg230
Nsg231
(lp2663
g224
ag133
asg219
I19
sbasS'covariates'
p2664
(lp2665
sb.