(dp0
S'NAME'
p1
I1
sS'current_outcome'
p2
Vblood pressure
p3
sS'current_time_point'
p4
I0
sS'RAW_DATA'
p5
(lp6
I3
aI4
aI5
aI6
aI7
aI8
asS'OUTCOMES'
p7
(lp8
I9
aI10
aI11
asS'study_auto_added'
p9
I0
sS'HEADERS'
p10
(lp11
S'include'
p12
aS'study name'
p13
aS'year'
p14
asS'YEAR'
p15
I2
sS'current_txs'
p16
(lp17
S'tx A'
p18
aS'tx B'
p19
asS'current_effect'
p20
S'MD'
p21
s.