(ima_dataset
Dataset
p0
(dp1
S'num_outcomes'
p2
I0
sS'title'
p3
VLymph
p4
sS'outcome_names_to_follow_ups'
p5
(dp6
VLAG positive
p7
ccopy_reg
_reconstructor
p8
(ctwo_way_dict
TwoWayDict
p9
c__builtin__
dict
p10
(dp11
I0
S'first'
p12
stp13
Rp14
(dp15
S'_reverse_map'
p16
(dp17
g12
I0
ssbssS'notes'
p18
S''
p19
sS'num_follow_ups'
p20
I0
sS'num_treatments'
p21
I0
sS'is_diag'
p22
I01
sS'study_auto_added'
p23
I17
sS'summary'
p24
NsS'studies'
p25
(lp26
(ima_dataset
Study
p27
(dp28
S'include'
p29
I01
sS'name'
p30
VKinderman
p31
sS'covariate_dict'
p32
(dp33
sg18
g19
sS'N'
p34
NsS'outcomes_to_follow_ups'
p35
(dp36
g7
(dp37
g12
(ima_dataset
MetaAnalyticUnit
p38
(dp39
g22
I01
sS'tx_groups'
p40
(dp41
S'test 1'
p42
(ima_dataset
TreatmentGroup
p43
(dp44
S'raw_data'
p45
(lp46
F19.0
aF10.0
aF1.0
aF81.0
asS'id'
p47
I0
sg30
g42
sbssS'outcome'
p48
(ima_dataset
Outcome
p49
(dp50
S'links'
p51
Nsg30
g7
sS'data_type'
p52
I2
sbsS'effects_dict'
p53
(dp54
S'DOR'
p55
(dp56
g42
(dp57
S'upper'
p58
F5.8020235677107657
sS'lower'
p59
F4.2705825139789013
sS'est'
p60
F5.0363030408448335
sS'display_upper'
p61
F330.9686201497509
sS'display_est'
p62
F153.89999999925612
sS'display_lower'
p63
F71.563310108647812
sS'SE'
p64
NsssS'Sens'
p65
(dp66
g42
(dp67
g58
F1.4075744130383265
sg59
F-0.12386664069353703
sg60
F0.64185388617239469
sg61
F0.80338308298724859
sg62
F0.65517241379301427
sg63
F0.46907287248568974
sg64
NsssS'NLR'
p68
(dp69
g42
(dp70
g58
F-0.2867201175346823
sg59
F-1.8181611712665458
sg60
F-1.052440644400614
sg61
F0.7507218133078547
sg62
F0.34908471690102316
sg63
F0.16232396263579196
sg64
NsssS'Spec'
p71
(dp72
g42
(dp73
g58
F5.1601696815383704
sg59
F3.6287286278065065
sg60
F4.3944491546724382
sg61
F0.99429204231044455
sg62
F0.98780487804875106
sg63
F0.97413674938978956
sg64
NsssS'PLR'
p74
(dp75
g42
(dp76
g58
F4.7495829233101512
sg59
F3.2181418695782877
sg60
F3.9838623964442195
sg61
F115.53608706809808
sg62
F53.7241379308078
sg63
F24.981657849777456
sg64
NssssS'raw_data_length'
p77
I4
sbsssS'manually_excluded'
p78
I00
sS'year'
p79
I1970
sS'outcomes'
p80
(lp81
g49
asg47
I0
sba(ima_dataset
Study
p82
(dp83
g29
I01
sg30
VLecart Lenfant
p84
sg32
(dp85
sg18
g19
sg34
Nsg35
(dp86
g7
(dp87
g12
(ima_dataset
MetaAnalyticUnit
p88
(dp89
g22
I01
sg40
(dp90
g42
(ima_dataset
TreatmentGroup
p91
(dp92
g45
(lp93
F8.0
aF2.0
aF9.0
aF13.0
asg47
I0
sg30
g42
sbssg48
g49
sg53
(dp94
g55
(dp95
g42
(dp96
g58
F3.3035067220066114
sg59
F0.20453156048380428
sg60
F1.754019141245208
sg61
F27.207882306747862
sg62
F5.7777777778054649
sg63
F1.2269501783761783
sg64
Nsssg65
(dp97
g42
(dp98
g58
F2.9357819418812943
sg59
F-0.1631932196415129
sg60
F1.3862943611198908
sg61
F0.94958718511784534
sg62
F0.80000000000001747
sg63
F0.45929199972718215
sg64
Nsssg68
(dp99
g42
(dp100
g58
F0.46614276422408252
sg59
F-2.6328323972987251
sg60
F-1.0833448165373212
sg61
F1.5938345256560296
sg62
F0.33846153846063182
sg63
F0.071874596247966271
sg64
Nsssg71
(dp101
g42
(dp102
g58
F1.9172123608867211
sg59
F-1.1817628006360863
sg60
F0.36772478012531751
sg61
F0.87182725310600495
sg62
F0.59090909090901411
sg63
F0.23473538803721453
sg64
Nsssg74
(dp103
g42
(dp104
g58
F2.2201619054692903
sg59
F-0.87881325605351701
sg60
F0.67067432470788668
sg61
F9.2088217037976872
sg62
F1.9555555555557771
sg63
F0.41527544498857849
sg64
Nssssg77
I4
sbsssg78
I00
sg79
I1971
sg80
(lp105
g49
asg47
I1
sba(ima_dataset
Study
p106
(dp107
g29
I01
sg30
VPiver
p108
sg32
(dp109
sg18
g19
sg34
Nsg35
(dp110
g7
(dp111
g12
(ima_dataset
MetaAnalyticUnit
p112
(dp113
g22
I01
sg40
(dp114
g42
(ima_dataset
TreatmentGroup
p115
(dp116
g45
(lp117
F41.0
aF12.0
aF1.0
aF49.0
asg47
I0
sg30
g42
sbssg48
g49
sg53
(dp118
g55
(dp119
g42
(dp120
g58
F5.7637707886677596
sg59
F4.4772006413861085
sg60
F5.1204857150269341
sg61
F318.5472414031895
sg62
F167.41666666717995
sg63
F87.988017584097605
sg64
Nsssg65
(dp121
g42
(dp122
g58
F1.8719504905571336
sg59
F0.58538034327548216
sg60
F1.2286654169163078
sg61
F0.86668380420186131
sg62
F0.77358490566102411
sg63
F0.64230448133862306
sg64
Nsssg68
(dp123
g42
(dp124
g58
F-0.82189748280577646
sg59
F-2.1084676300874277
sg60
F-1.4651825564466021
sg61
F0.43959673538719857
sg62
F0.23103581054985028
sg63
F0.12142389026075157
sg64
Nsssg71
(dp125
g42
(dp126
g58
F4.5351053717514516
sg59
F3.2485352244698
sg60
F3.8918202981106256
sg61
F0.98938804449491946
sg62
F0.97999999999998777
sg63
F0.96262044232541355
sg64
Nsssg74
(dp127
g42
(dp128
g58
F4.2985882322211575
sg59
F3.0120180849395064
sg60
F3.6553031585803319
sg61
F73.595820116004759
sg62
F38.679245283006033
sg63
F20.328382961216473
sg64
Nssssg77
I4
sbsssg78
I00
sg79
I1971
sg80
(lp129
g49
asg47
I2
sba(ima_dataset
Study
p130
(dp131
g29
I01
sg30
VPiver Barlow
p132
sg32
(dp133
sg18
g19
sg34
Nsg35
(dp134
g7
(dp135
g12
(ima_dataset
MetaAnalyticUnit
p136
(dp137
g22
I01
sg40
(dp138
g42
(ima_dataset
TreatmentGroup
p139
(dp140
g45
(lp141
F5.0
aF2.0
aF1.0
aF18.0
asg47
I0
sg30
g42
sbssg48
g49
sg53
(dp142
g55
(dp143
g42
(dp144
g58
F5.4464860090814335
sg59
F2.1668389704592057
sg60
F3.8066624897703196
sg61
F231.94169120860741
sg62
F44.999999999985604
sg63
F8.730642556958113
sg64
Nsssg65
(dp145
g42
(dp146
g58
F2.556114251185269
sg59
F-0.72353278743695859
sg60
F0.91629073187415511
sg61
F0.9279832031508749
sg62
F0.71428571428568266
sg63
F0.32661551394994703
sg64
Nsssg68
(dp147
g42
(dp148
g58
F0.44112777208602139
sg59
F-2.8385192665362062
sg60
F-1.1986957472250923
sg61
F1.5544593061621741
sg62
F0.30158730158582148
sg63
F0.058512242885870563
sg64
Nsssg71
(dp149
g42
(dp150
g58
F4.5301952772072775
sg59
F1.2505482385850499
sg60
F2.8903717578961636
sg61
F0.98933636766096689
sg62
F0.94736842105282282
sg63
F0.7773947494711233
sg64
Nsssg74
(dp151
g42
(dp152
g58
F4.2477902618563412
sg59
F0.96814322323411361
sg60
F2.6079667425452273
sg61
F69.950668777555236
sg62
F13.571428571493341
sg63
F2.6330509298738658
sg64
Nssssg77
I4
sbsssg78
I00
sg79
I1973
sg80
(lp153
g49
asg47
I3
sba(ima_dataset
Study
p154
(dp155
g29
I01
sg30
VKolbenstvedt
p156
sg32
(dp157
sg18
g19
sg34
Nsg35
(dp158
g7
(dp159
g12
(ima_dataset
MetaAnalyticUnit
p160
(dp161
g22
I01
sg40
(dp162
g42
(ima_dataset
TreatmentGroup
p163
(dp164
g45
(lp165
F45.0
aF32.0
aF58.0
aF165.0
asg47
I0
sg30
g42
sbssg48
g49
sg53
(dp166
g55
(dp167
g42
(dp168
g58
F1.8396523283210109
sg59
F0.93320577232849811
sg60
F1.3864290503247545
sg61
F6.2943495134960736
sg62
F4.0005387930844281
sg63
F2.5426472744777975
sg64
Nsssg65
(dp169
g42
(dp170
g58
F0.79414986496684947
sg59
F-0.11229669102566336
sg60
F0.34092658697059303
sg61
F0.6887216917705774
sg62
F0.5844155844156832
sg63
F0.47195529264239927
sg64
Nsssg68
(dp171
g42
(dp172
g58
F-0.12361994349816285
sg59
F-1.0300664994906756
sg60
F-0.57684322149441924
sg61
F0.88371563894209004
sg62
F0.56166863439614256
sg63
F0.35698322057770049
sg64
Nsssg71
(dp173
g42
(dp174
g58
F1.4987257413504178
sg59
F0.59227918535790502
sg60
F1.0455024633541614
sg61
F0.81738434812319172
sg62
F0.73991031390054451
sg63
F0.6438879256018567
sg64
Nsssg74
(dp175
g42
(dp176
g58
F1.2628091068265919
sg59
F0.35636255083407908
sg60
F0.80958582883033547
sg61
F3.5353386956715056
sg62
F2.2469771607695108
sg63
F1.4281252224070184
sg64
Nssssg77
I4
sbsssg78
I00
sg79
I1975
sg80
(lp177
g49
asg47
I4
sba(ima_dataset
Study
p178
(dp179
g29
I01
sg30
VLehman
p180
sg32
(dp181
sg18
g19
sg34
Nsg35
(dp182
g7
(dp183
g12
(ima_dataset
MetaAnalyticUnit
p184
(dp185
g22
I01
sg40
(dp186
g42
(ima_dataset
TreatmentGroup
p187
(dp188
g45
(lp189
F8.0
aF2.0
aF6.0
aF32.0
asg47
I0
sg30
g42
sbssg48
g49
sg53
(dp190
g55
(dp191
g42
(dp192
g58
F4.6097583754529659
sg59
F1.5107832139301582
sg60
F3.0602707946915619
sg61
F100.45987313196919
sg62
F21.333333333300008
sg63
F4.5302775816950538
sg64
Nsssg65
(dp193
g42
(dp194
g58
F2.9357819418812943
sg59
F-0.1631932196415129
sg60
F1.3862943611198908
sg61
F0.94958718511784534
sg62
F0.80000000000001747
sg63
F0.45929199972718215
sg64
Nsssg68
(dp195
g42
(dp196
g58
F0.11189992525396253
sg59
F-2.9870752362688449
sg60
F-1.4375876555074412
sg61
F1.1184009313553593
sg62
F0.23749999999939228
sg63
F0.050434730889914202
sg64
Nsssg71
(dp197
g42
(dp198
g58
F3.2234640143330751
sg59
F0.12448885281026745
sg60
F1.6739764335716711
sg61
F0.96170778424221304
sg62
F0.84210526315767253
sg63
F0.53108208241854282
sg64
Nsssg74
(dp199
g42
(dp200
g58
F3.1721707199455249
sg59
F0.0731955584227173
sg60
F1.622683139184121
sg61
F23.859219869020219
sg62
F5.0666666666457871
sg63
F1.075940925652727
sg64
Nssssg77
I4
sbsssg78
I00
sg79
I1975
sg80
(lp201
g49
asg47
I5
sba(ima_dataset
Study
p202
(dp203
g29
I01
sg30
VBrown
p204
sg32
(dp205
sg18
g19
sg34
Nsg35
(dp206
g7
(dp207
g12
(ima_dataset
MetaAnalyticUnit
p208
(dp209
g22
I01
sg40
(dp210
g42
(ima_dataset
TreatmentGroup
p211
(dp212
g45
(lp213
F5.0
aF1.0
aF8.0
aF7.0
asg47
I0
sg30
g42
sbssg48
g49
sg53
(dp214
g55
(dp215
g42
(dp216
g58
F3.6229394922701657
sg59
F-0.67112645265101012
sg60
F1.4759065198095778
sg61
F37.447482781990338
sg62
F4.3750000000018474
sg63
F0.51113248683306289
sg64
Nsssg65
(dp217
g42
(dp218
g58
F3.7564708848946884
sg59
F-0.53759506002648716
sg60
F1.6094379124341007
sg61
F0.97716745011064177
sg62
F0.83333333333276383
sg63
F0.36874720972813801
sg64
Nsssg68
(dp219
g42
(dp220
g58
F1.1174135552794298
sg59
F-3.1766523896417462
sg60
F-1.0296194171811581
sg61
F3.0569373699606444
sg62
F0.35714285714327082
sg63
F0.041725100966036745
sg64
Nsssg71
(dp221
g42
(dp222
g58
F2.0135015798360651
sg59
F-2.2805643650851106
sg60
F-0.13353139262452263
sg61
F0.88220738493111961
sg62
F0.46666666666654788
sg63
F0.092745454414671441
sg64
Nsssg74
(dp223
g42
(dp224
g58
F2.5933200750890073
sg59
F-1.7007458698321685
sg60
F0.44628710262841953
sg61
F13.374100993583465
sg62
F1.5624999999993445
sg63
F0.18254731672648786
sg64
Nssssg77
I4
sbsssg78
I00
sg79
I1979
sg80
(lp225
g49
asg47
I6
sba(ima_dataset
Study
p226
(dp227
g29
I01
sg30
VLagasse
p228
sg32
(dp229
sg18
g19
sg34
Nsg35
(dp230
g7
(dp231
g12
(ima_dataset
MetaAnalyticUnit
p232
(dp233
g22
I01
sg40
(dp234
g42
(ima_dataset
TreatmentGroup
p235
(dp236
g45
(lp237
F15.0
aF11.0
aF17.0
aF52.0
asg47
I0
sg30
g42
sbssg48
g49
sg53
(dp238
g55
(dp239
g42
(dp240
g58
F2.2062089424872253
sg59
F0.65016166317087631
sg60
F1.4281853028290508
sg61
F9.0812236113202118
sg62
F4.1711229946563657
sg63
F1.9158505264511547
sg64
Nsssg65
(dp241
g42
(dp242
g58
F1.0881785679620137
sg59
F-0.46786871135433516
sg60
F0.31015492830383928
sg61
F0.7480385789310624
sg62
F0.57692307692311606
sg63
F0.38512081493931671
sg64
Nsssg68
(dp243
g42
(dp244
g58
F0.20068516045089491
sg59
F-1.3553621188654539
sg60
F-0.57733847920727954
sg61
F1.2222399017809045
sg62
F0.56139053254453564
sg63
F0.25785390377932216
sg64
Nsssg71
(dp245
g42
(dp246
g58
F1.8960540141833859
sg59
F0.34000673486703692
sg60
F1.1180303745252114
sg61
F0.86944426570454458
sg62
F0.75362318840668618
sg63
F0.58419215891419518
sg64
Nsssg74
(dp247
g42
(dp248
g58
F1.6288704632799458
sg59
F0.072823183963596883
sg60
F0.85084682362177133
sg61
F5.0981129592997698
sg62
F2.3416289592765538
sg63
F1.0755403473197125
sg64
Nssssg77
I4
sbsssg78
I00
sg79
I1979
sg80
(lp249
g49
asg47
I7
sba(ima_dataset
Study
p250
(dp251
g29
I01
sg30
VKjorstad
p252
sg32
(dp253
sg18
g19
sg34
Nsg35
(dp254
g7
(dp255
g12
(ima_dataset
MetaAnalyticUnit
p256
(dp257
g22
I01
sg40
(dp258
g42
(ima_dataset
TreatmentGroup
p259
(dp260
g45
(lp261
F16.0
aF8.0
aF11.0
aF24.0
asg47
I0
sg30
g42
sbssg48
g49
sg53
(dp262
g55
(dp263
g42
(dp264
g58
F2.3219950386666488
sg59
F0.62461643755239171
sg60
F1.4733057381095203
sg61
F10.195995433784933
sg62
F4.3636363636384567
sg63
F1.8675295058500687
sg64
Nsssg65
(dp265
g42
(dp266
g58
F1.5418364811170737
sg59
F-0.15554211999718348
sg60
F0.69314718055994506
sg61
F0.8237315369599193
sg62
F0.66666666666667884
sg63
F0.46119267840051376
sg64
Nsssg68
(dp267
g42
(dp268
g58
F0.12737124303048686
sg59
F-1.5700073580837701
sg60
F-0.72131805752664169
sg61
F1.1358386116875387
sg62
F0.48611111111093691
sg63
F0.20804365154955698
sg64
Nsssg71
(dp269
g42
(dp270
g58
F1.6288478581067038
sg59
F-0.068530743007553352
sg60
F0.78015855754957519
sg61
F0.83601174575223614
sg62
F0.68571428571437731
sg63
F0.48287401635218452
sg64
Nsssg74
(dp271
g42
(dp272
g58
F1.6006769811400072
sg59
F-0.096701619974249864
sg60
F0.75198768058287868
sg61
F4.9563866691843641
sg62
F2.1212121212123787
sg63
F0.90782684312196205
sg64
Nssssg77
I4
sbsssg78
I00
sg79
I1980
sg80
(lp273
g49
asg47
I8
sba(ima_dataset
Study
p274
(dp275
g29
I01
sg30
VAshraf
p276
sg32
(dp277
sg18
g19
sg34
Nsg35
(dp278
g7
(dp279
g12
(ima_dataset
MetaAnalyticUnit
p280
(dp281
g22
I01
sg40
(dp282
g42
(ima_dataset
TreatmentGroup
p283
(dp284
g45
(lp285
F4.0
aF2.0
aF8.0
aF25.0
asg47
I0
sg30
g42
sbssg48
g49
sg53
(dp286
g55
(dp287
g42
(dp288
g58
F3.5299600648625673
sg59
F0.13520286263405312
sg60
F1.8325814637483102
sg61
F34.122604896540665
sg62
F6.2500000000105613
sg63
F1.1447689916503938
sg64
Nsssg65
(dp289
g42
(dp290
g58
F2.390525781674202
sg59
F-1.0042314205543121
sg60
F0.69314718055994506
sg61
F0.91610198806917353
sg62
F0.66666666666667884
sg63
F0.26811028744006199
sg64
Nsssg68
(dp291
g42
(dp292
g58
F0.87639804904442686
sg59
F-2.5183591531840874
sg60
F-0.82098055206983023
sg61
F2.4022313847216044
sg62
F0.43999999999992528
sg63
F0.080591737012521397
sg64
Nsssg71
(dp293
g42
(dp294
g58
F2.8368128843026219
sg59
F-0.55794431792589227
sg60
F1.1394342831883648
sg61
F0.94463300734461608
sg62
F0.75757575757605788
sg63
F0.36402323817418852
sg64
Nsssg74
(dp295
g42
(dp296
g58
F2.708979512792737
sg59
F-0.68577768943577722
sg60
F1.0116009116784799
sg61
F15.013946154475345
sg62
F2.7500000000041802
sg63
F0.50369835632608773
sg64
Nssssg77
I4
sbsssg78
I00
sg79
I1982
sg80
(lp297
g49
asg47
I9
sba(ima_dataset
Study
p298
(dp299
g29
I01
sg30
VDe Muylder
p300
sg32
(dp301
sg18
g19
sg34
Nsg35
(dp302
g7
(dp303
g12
(ima_dataset
MetaAnalyticUnit
p304
(dp305
g22
I01
sg40
(dp306
g42
(ima_dataset
TreatmentGroup
p307
(dp308
g45
(lp309
F8.0
aF10.0
aF12.0
aF70.0
asg47
I0
sg30
g42
sbssg48
g49
sg53
(dp310
g55
(dp311
g42
(dp312
g58
F2.4701375894039912
sg59
F0.61075249249030694
sg60
F1.5404450409471491
sg61
F11.824073606924788
sg62
F4.666666666679971
sg63
F1.8418168307857956
sg64
Nsssg65
(dp313
g42
(dp314
g58
F0.70654899714263231
sg59
F-1.1528360997710521
sg60
F-0.22314355131420985
sg61
F0.66963816640502516
sg62
F0.44444444444449627
sg63
F0.23997143917757879
sg64
Nsssg68
(dp315
g42
(dp316
g58
F0.50012988876961728
sg59
F-1.359255208144067
sg60
F-0.42956265968722485
sg61
F1.6489354349865188
sg62
F0.65079365079379714
sg63
F0.25685200701546906
sg64
Nsssg71
(dp317
g42
(dp318
g58
F2.6932811407182005
sg59
F0.83389604380451643
sg60
F1.7635885922613586
sg61
F0.93662901335137727
sg62
F0.85365853658519608
sg63
F0.69717809702892874
sg64
Nsssg74
(dp319
g42
(dp320
g58
F2.0405749297167661
sg59
F0.18118983280308187
sg60
F1.110882381259924
sg61
F7.6950320299590276
sg62
F3.0370370370372677
sg63
F1.1986426994005492
sg64
Nssssg77
I4
sbsssg78
I00
sg79
I1984
sg80
(lp321
g49
asg47
I10
sba(ima_dataset
Study
p322
(dp323
g29
I01
sg30
VSmales
p324
sg32
(dp325
sg18
g19
sg34
Nsg35
(dp326
g7
(dp327
g12
(ima_dataset
MetaAnalyticUnit
p328
(dp329
g22
I01
sg40
(dp330
g42
(ima_dataset
TreatmentGroup
p331
(dp332
g45
(lp333
F10.0
aF4.0
aF4.0
aF55.0
asg47
I0
sg30
g42
sbssg48
g49
sg53
(dp334
g55
(dp335
g42
(dp336
g58
F4.6968598864408131
sg59
F2.3777992255326579
sg60
F3.5373295559867355
sg61
F109.60246733487106
sg62
F34.375000000112223
sg63
F10.781149856650618
sg64
Nsssg65
(dp337
g42
(dp338
g58
F2.0758210623282327
sg59
F-0.24323959857992272
sg60
F0.91629073187415511
sg61
F0.88853080690602904
sg62
F0.71428571428568266
sg63
F0.43948815769609523
sg64
Nsssg68
(dp339
g42
(dp340
g58
F-0.023028379368041696
sg59
F-2.3420890402761971
sg60
F-1.1825587098221195
sg61
F0.9772347500751517
sg62
F0.30649350649415608
sg63
F0.096126615959069947
sg64
Nsssg71
(dp341
g42
(dp342
g58
F3.7805691545666571
sg59
F1.4615084936585017
sg60
F2.6210388241125795
sg61
F0.97769897434530251
sg62
F0.93220338983034545
sg63
F0.81176328653955543
sg64
Nsssg74
(dp343
g42
(dp344
g58
F3.5143011766186936
sg59
F1.1952405157105381
sg60
F2.354770846164616
sg61
F33.592444533875828
sg62
F10.535714285665655
sg63
F3.3043524236038162
sg64
Nssssg77
I4
sbsssg78
I00
sg79
I1986
sg80
(lp345
g49
asg47
I11
sba(ima_dataset
Study
p346
(dp347
g29
I01
sg30
VFeigen
p348
sg32
(dp349
sg18
g19
sg34
Nsg35
(dp350
g7
(dp351
g12
(ima_dataset
MetaAnalyticUnit
p352
(dp353
g22
I01
sg40
(dp354
g42
(ima_dataset
TreatmentGroup
p355
(dp356
g45
(lp357
F2.0
aF6.0
aF5.0
aF23.0
asg47
I0
sg30
g42
sbssg48
g49
sg53
(dp358
g55
(dp359
g42
(dp360
g58
F2.0277479069453759
sg59
F-1.1728598772914967
sg60
F0.42744401482693967
sg61
F7.5969580223524478
sg62
F1.533333333333426
sg63
F0.30948059791930577
sg64
Nsssg65
(dp361
g42
(dp362
g58
F0.50169160345032648
sg59
F-2.6989161807865463
sg60
F-1.0986122886681098
sg61
F0.62285678186445248
sg62
F0.24999999999964553
sg63
F0.063037340049583182
sg64
Nsssg68
(dp363
g42
(dp364
g58
F1.5093321139127096
sg59
F-1.6912756703241629
sg60
F-0.090971778205726758
sg61
F4.5237084631823645
sg62
F0.91304347826089394
sg63
F0.18428428798646737
sg64
Nsssg71
(dp365
g42
(dp366
g58
F3.1263601956134854
sg59
F-0.074247588623387317
sg60
F1.5260563034950489
sg61
F0.95796707606500064
sg62
F0.82142857142929759
sg63
F0.4814466253336866
sg64
Nsssg74
(dp367
g42
(dp368
g58
F1.9367761287396492
sg59
F-1.2638316554972233
sg60
F0.33647223662121289
sg61
F6.9363529769008538
sg62
F1.3999999999997019
sg63
F0.28256924157728908
sg64
Nssssg77
I4
sbsssg78
I00
sg79
I1987
sg80
(lp369
g49
asg47
I12
sba(ima_dataset
Study
p370
(dp371
g29
I01
sg30
VSwart
p372
sg32
(dp373
sg18
g19
sg34
Nsg35
(dp374
g7
(dp375
g12
(ima_dataset
MetaAnalyticUnit
p376
(dp377
g22
I01
sg40
(dp378
g42
(ima_dataset
TreatmentGroup
p379
(dp380
g45
(lp381
F7.0
aF7.0
aF10.0
aF30.0
asg47
I0
sg30
g42
sbssg48
g49
sg53
(dp382
g55
(dp383
g42
(dp384
g58
F2.1462571058917068
sg59
F0.050967471444512746
sg60
F1.0986122886681098
sg61
F8.5527862400341963
sg62
F3.000000000005671
sg63
F1.0522886632962949
sg64
Nsssg65
(dp385
g42
(dp386
g58
F1.047644817223597
sg59
F-1.047644817223597
sg60
F0.0
sg61
F0.74032238304486109
sg62
F0.5
sg63
F0.25967761695513886
sg64
Nsssg68
(dp387
g42
(dp388
g58
F0.64217970911543265
sg59
F-1.4531099253317614
sg60
F-0.40546510810816444
sg61
F1.9006191644544645
sg62
F0.66666666666677621
sg63
F0.23384192517736929
sg64
Nsssg71
(dp389
g42
(dp390
g58
F2.1462571058917068
sg59
F0.050967471444512746
sg60
F1.0986122886681098
sg61
F0.8953184992448423
sg62
F0.75000000000035438
sg63
F0.51273911029950114
sg64
Nsssg74
(dp391
g42
(dp392
g58
F1.7407919977835422
sg59
F-0.35449763666365175
sg60
F0.69314718055994529
sg61
F5.7018574933456625
sg62
F2.0000000000001092
sg63
F0.70152577553062778
sg64
Nssssg77
I4
sbsssg78
I00
sg79
I1989
sg80
(lp393
g49
asg47
I13
sba(ima_dataset
Study
p394
(dp395
g29
I01
sg30
VHeller
p396
sg32
(dp397
sg18
g19
sg34
Nsg35
(dp398
g7
(dp399
g12
(ima_dataset
MetaAnalyticUnit
p400
(dp401
g22
I01
sg40
(dp402
g42
(ima_dataset
TreatmentGroup
p403
(dp404
g45
(lp405
F44.0
aF12.0
aF50.0
aF135.0
asg47
I0
sg30
g42
sbssg48
g49
sg53
(dp406
g55
(dp407
g42
(dp408
g58
F2.9308351963380117
sg59
F1.654234317943077
sg60
F2.2925347571405443
sg61
F18.743278278696149
sg62
F9.8999999999946109
sg63
F5.2290745803679792
sg64
Nsssg65
(dp409
g42
(dp410
g58
F1.9375834233277283
sg59
F0.66098254493279351
sg60
F1.2992829841302609
sg61
F0.87408641696909861
sg62
F0.78571428571424173
sg63
F0.659481068991427
sg64
Nsssg68
(dp411
g42
(dp412
g58
F-0.58706355510978625
sg59
F-1.863664433504721
sg60
F-1.2253639943072536
sg61
F0.55595742849946317
sg62
F0.29365079364998714
sg63
F0.15510322228244658
sg64
Nsssg71
(dp413
g42
(dp414
g58
F1.6315522122077506
sg59
F0.35495133381281596
sg60
F0.99325177301028333
sg61
F0.83638216534643506
sg62
F0.72972972972967387
sg63
F0.58781774729768532
sg64
Nsssg74
(dp415
g42
(dp416
g58
F1.7054712020307581
sg59
F0.42887032363582334
sg60
F1.0671707628332907
sg61
F5.5039785421416898
sg62
F2.9071428571332905
sg63
F1.5355219005892435
sg64
Nssssg77
I4
sbsssg78
I00
sg79
I1990
sg80
(lp417
g49
asg47
I14
sba(ima_dataset
Study
p418
(dp419
g29
I01
sg30
VLa Fianza
p420
sg32
(dp421
sg18
g19
sg34
Nsg35
(dp422
g7
(dp423
g12
(ima_dataset
MetaAnalyticUnit
p424
(dp425
g22
I01
sg40
(dp426
g42
(ima_dataset
TreatmentGroup
p427
(dp428
g45
(lp429
F8.0
aF1.0
aF3.0
aF37.0
asg47
I0
sg30
g42
sbssg48
g49
sg53
(dp430
g55
(dp431
g42
(dp432
g58
F6.6706029021804669
sg59
F2.512891429131435
sg60
F4.591747165655951
sg61
F788.87107320743416
sg62
F98.666666667066224
sg63
F12.340560380178557
sg64
Nsssg65
(dp433
g42
(dp434
g58
F4.1582972782043512
sg59
F0.00058580515531936328
sg60
F2.0794415416798353
sg61
F0.98460650836079378
sg62
F0.88888888888890505
sg63
F0.50014645128464164
sg64
Nsssg68
(dp435
g42
(dp436
g58
F-0.04040729934199172
sg59
F-4.1981187723910232
sg60
F-2.1192630358665077
sg61
F0.96039818992914028
sg62
F0.12012012011970061
sg63
F0.015023813465070479
sg64
Nsssg71
(dp437
g42
(dp438
g58
F4.5911613605006316
sg59
F0.43344988745159929
sg60
F2.5123056239761152
sg61
F0.98996073484283853
sg62
F0.9250000000002695
sg63
F0.6066971680983323
sg64
Nsssg74
(dp439
g42
(dp440
g58
F4.5513398663139597
sg59
F0.39362839326492738
sg60
F2.4724841297894433
sg61
F94.759288072634163
sg62
F11.851851851858454
sg63
F1.4823495952188779
sg64
Nssssg77
I4
sbsssg78
I00
sg79
I1990
sg80
(lp441
g49
asg47
I15
sba(ima_dataset
Study
p442
(dp443
g29
I01
sg30
VStellato
p444
sg32
(dp445
sg18
g19
sg34
Nsg35
(dp446
g7
(dp447
g12
(ima_dataset
MetaAnalyticUnit
p448
(dp449
g22
I01
sg40
(dp450
g42
(ima_dataset
TreatmentGroup
p451
(dp452
g45
(lp453
F4.0
aF0.0
aF3.0
aF14.0
asg47
I0
sg30
g42
sbssg48
g49
sg53
(dp454
g55
(dp455
g42
(dp456
g58
F6.5403520601893179
sg59
F0.69686845634544259
sg60
F3.6186102582673803
sg61
F692.53034748893162
sg62
F37.28571428581197
sg63
F2.0074564166568472
sg64
Nsssg65
(dp457
g42
(dp458
g58
F5.1189663792581577
sg59
F-0.7245172245857181
sg60
F2.1972245773362196
sg61
F0.99405337091292034
sg62
F0.90000000000034031
sg63
F0.32639903595674519
sg64
Nsssg68
(dp459
g42
(dp460
g58
F0.83537981739752798
sg59
F-5.0081037864463473
sg60
F-2.0863619845244097
sg61
F2.3056896230304411
sg62
F0.12413793103503018
sg63
F0.0066835647641154874
sg64
Nsssg71
(dp461
g42
(dp462
g58
F4.3431274828530988
sg59
F-1.5003561209907768
sg60
F1.4213856809311609
sg61
F0.98717090424919129
sg62
F0.80555555555537373
sg63
F0.18237241563101708
sg64
Nsssg74
(dp463
g42
(dp464
g58
F4.4539900756649082
sg59
F-1.3894935281789671
sg60
F1.5322482737429706
sg61
F85.969284515386789
sg62
F4.62857142855768
sg63
F0.24920148620553043
sg64
Nssssg77
I4
sbsssg78
I00
sg79
I1992
sg80
(lp465
g49
asg47
I16
sba(ima_dataset
Study
p466
(dp467
g29
I00
sg30
g19
sg32
(dp468
sg18
g19
sg34
Nsg35
(dp469
g7
(dp470
g12
(ima_dataset
MetaAnalyticUnit
p471
(dp472
g22
I01
sg40
(dp473
g42
(ima_dataset
TreatmentGroup
p474
(dp475
g45
(lp476
g19
ag19
ag19
ag19
asg47
I0
sg30
g42
sbssg48
g49
sg53
(dp477
g55
(dp478
g42
(dp479
g58
Nsg59
Nsg60
Nsg61
Nsg62
Nsg63
Nsg64
Nsssg65
(dp480
g42
(dp481
g58
Nsg59
Nsg60
Nsg61
Nsg62
Nsg63
Nsg64
Nsssg68
(dp482
g42
(dp483
g58
Nsg59
Nsg60
Nsg61
Nsg62
Nsg63
Nsg64
Nsssg71
(dp484
g42
(dp485
g58
Nsg59
Nsg60
Nsg61
Nsg62
Nsg63
Nsg64
Nsssg74
(dp486
g42
(dp487
g58
Nsg59
Nsg60
Nsg61
Nsg62
Nsg63
Nsg64
Nssssg77
I4
sbsssg78
I00
sg79
Nsg80
(lp488
g49
asg47
I17
sbasS'covariates'
p489
(lp490
sb.