(ima_dataset
Dataset
p0
(dp1
S'num_outcomes'
p2
I0
sS'title'
p3
Vmeantime
p4
sS'outcome_names_to_follow_ups'
p5
(dp6
VDeath
p7
ccopy_reg
_reconstructor
p8
(ctwo_way_dict
TwoWayDict
p9
c__builtin__
dict
p10
(dp11
I0
S'first'
p12
stp13
Rp14
(dp15
S'_reverse_map'
p16
(dp17
g12
I0
ssbssS'notes'
p18
S''
p19
sS'num_follow_ups'
p20
I0
sS'num_treatments'
p21
I0
sS'is_diag'
p22
I00
sS'study_auto_added'
p23
I65
sS'summary'
p24
NsS'studies'
p25
(lp26
(ima_dataset
Study
p27
(dp28
S'include'
p29
I01
sS'name'
p30
VGISSI
p31
sS'covariate_dict'
p32
(dp33
Vtreatment group
p34
csip
_unpickle_type
p35
(S'PyQt4.QtCore'
p36
S'QString'
p37
(V1
p38
tp39
tp40
Rp41
sVtime to treatment
p42
F0.69999999999999996
ssg18
g19
sS'N'
p43
NsS'outcomes_to_follow_ups'
p44
(dp45
g7
(dp46
g12
(ima_dataset
MetaAnalyticUnit
p47
(dp48
g22
I00
sS'tx_groups'
p49
(dp50
S'tx A'
p51
(ima_dataset
TreatmentGroup
p52
(dp53
S'raw_data'
p54
(lp55
F52.0
aF635.0
asS'id'
p56
I0
sg30
g51
sbsS'tx B'
p57
(ima_dataset
TreatmentGroup
p58
(dp59
g54
(lp60
F99.0
aF642.0
asg56
I1
sg30
g57
sbssS'outcome'
p61
(ima_dataset
Outcome
p62
(dp63
S'links'
p64
Nsg30
g7
sS'data_type'
p65
I0
sbsS'effects_dict'
p66
(dp67
S'YUY'
p68
(dp69
S'tx B-tx A'
p70
(dp71
S'upper'
p72
NsS'lower'
p73
NsS'est'
p74
NsS'display_upper'
p75
NsS'display_est'
p76
NsS'display_lower'
p77
NsS'SE'
p78
NssS'tx A-tx B'
p79
(dp80
g72
Nsg73
Nsg74
Nsg75
Nsg76
Nsg77
Nsg78
NsssS'PR'
p81
(dp82
g51
(dp83
g72
Nsg73
Nsg74
Nsg75
Nsg76
Nsg77
Nsg78
Nssg57
(dp84
g72
Nsg73
Nsg74
Nsg75
Nsg76
Nsg77
Nsg78
NsssS'PAS'
p85
(dp86
g51
(dp87
g72
Nsg73
Nsg74
Nsg75
Nsg76
Nsg77
Nsg78
Nssg57
(dp88
g72
Nsg73
Nsg74
Nsg75
Nsg76
Nsg77
Nsg78
NsssS'RR'
p89
(dp90
S'tx B-tx A'
p91
(dp92
g72
Nsg73
Nsg74
Nsg75
Nsg76
Nsg77
Nsg78
NssS'tx A-tx B'
p93
(dp94
g72
Nsg73
Nsg74
Nsg75
Nsg76
Nsg77
Nsg78
NsssS'YUQ'
p95
(dp96
S'tx B-tx A'
p97
(dp98
g72
Nsg73
Nsg74
Nsg75
Nsg76
Nsg77
Nsg78
NssS'tx A-tx B'
p99
(dp100
g72
Nsg73
Nsg74
Nsg75
Nsg76
Nsg77
Nsg78
NsssS'PETO'
p101
(dp102
S'tx B-tx A'
p103
(dp104
g72
Nsg73
Nsg74
Nsg75
Nsg76
Nsg77
Nsg78
NssS'tx A-tx B'
p105
(dp106
g72
Nsg73
Nsg74
Nsg75
Nsg76
Nsg77
Nsg78
NsssS'RD'
p107
(dp108
S'tx B-tx A'
p109
(dp110
g72
Nsg73
Nsg74
Nsg75
Nsg76
Nsg77
Nsg78
NssS'tx A-tx B'
p111
(dp112
g72
Nsg73
Nsg74
Nsg75
Nsg76
Nsg77
Nsg78
NsssS'AS'
p113
(dp114
S'tx B-tx A'
p115
(dp116
g72
Nsg73
Nsg74
Nsg75
Nsg76
Nsg77
Nsg78
NssS'tx A-tx B'
p117
(dp118
g72
Nsg73
Nsg74
Nsg75
Nsg76
Nsg77
Nsg78
NsssS'PFT'
p119
(dp120
g51
(dp121
g72
Nsg73
Nsg74
Nsg75
Nsg76
Nsg77
Nsg78
Nssg57
(dp122
g72
Nsg73
Nsg74
Nsg75
Nsg76
Nsg77
Nsg78
NsssS'PLO'
p123
(dp124
g51
(dp125
g72
Nsg73
Nsg74
Nsg75
Nsg76
Nsg77
Nsg78
Nssg57
(dp126
g72
Nsg73
Nsg74
Nsg75
Nsg76
Nsg77
Nsg78
NsssS'PLN'
p127
(dp128
g51
(dp129
g72
Nsg73
Nsg74
Nsg75
Nsg76
Nsg77
Nsg78
Nssg57
(dp130
g72
Nsg73
Nsg74
Nsg75
Nsg76
Nsg77
Nsg78
NsssS'OR'
p131
(dp132
S'tx B-tx A'
p133
(dp134
g72
Nsg73
Nsg74
Nsg75
Nsg76
Nsg77
Nsg78
NssS'tx A-tx B'
p135
(dp136
g72
F-0.3595099722342987
sg73
F-1.0703980237051403
sg74
F-0.71495399796971948
sg75
F0.69801829062149767
sg76
F0.48921461614429024
sg77
F0.34287201906430143
sg78
NssssS'raw_data_length'
p137
I2
sbsssS'manually_excluded'
p138
I00
sS'year'
p139
I1986
sS'outcomes'
p140
(lp141
g62
asg56
I0
sba(ima_dataset
Study
p142
(dp143
g29
I01
sg30
VISIS-2
p144
sg32
(dp145
g34
g35
(g36
S'QString'
p146
(V1
p147
tp148
tp149
Rp150
sg42
F0.69999999999999996
ssg18
g19
sg43
Nsg44
(dp151
g7
(dp152
g12
(ima_dataset
MetaAnalyticUnit
p153
(dp154
g22
I00
sg49
(dp155
g51
(ima_dataset
TreatmentGroup
p156
(dp157
g54
(lp158
F29.0
aF357.0
asg56
I0
sg30
g51
sbsg57
(ima_dataset
TreatmentGroup
p159
(dp160
g54
(lp161
F48.0
aF357.0
asg56
I1
sg30
g57
sbssg61
g62
sg66
(dp162
g68
(dp163
S'tx B-tx A'
p164
(dp165
g72
Nsg73
Nsg74
Nsg75
Nsg76
Nsg77
Nsg78
NssS'tx A-tx B'
p166
(dp167
g72
Nsg73
Nsg74
Nsg75
Nsg76
Nsg77
Nsg78
Nsssg81
(dp168
g51
(dp169
g72
Nsg73
Nsg74
Nsg75
Nsg76
Nsg77
Nsg78
Nssg57
(dp170
g72
Nsg73
Nsg74
Nsg75
Nsg76
Nsg77
Nsg78
Nsssg85
(dp171
g51
(dp172
g72
Nsg73
Nsg74
Nsg75
Nsg76
Nsg77
Nsg78
Nssg57
(dp173
g72
Nsg73
Nsg74
Nsg75
Nsg76
Nsg77
Nsg78
Nsssg89
(dp174
S'tx B-tx A'
p175
(dp176
g72
Nsg73
Nsg74
Nsg75
Nsg76
Nsg77
Nsg78
NssS'tx A-tx B'
p177
(dp178
g72
Nsg73
Nsg74
Nsg75
Nsg76
Nsg77
Nsg78
Nsssg95
(dp179
S'tx B-tx A'
p180
(dp181
g72
Nsg73
Nsg74
Nsg75
Nsg76
Nsg77
Nsg78
NssS'tx A-tx B'
p182
(dp183
g72
Nsg73
Nsg74
Nsg75
Nsg76
Nsg77
Nsg78
Nsssg101
(dp184
S'tx B-tx A'
p185
(dp186
g72
Nsg73
Nsg74
Nsg75
Nsg76
Nsg77
Nsg78
NssS'tx A-tx B'
p187
(dp188
g72
Nsg73
Nsg74
Nsg75
Nsg76
Nsg77
Nsg78
Nsssg107
(dp189
S'tx B-tx A'
p190
(dp191
g72
Nsg73
Nsg74
Nsg75
Nsg76
Nsg77
Nsg78
NssS'tx A-tx B'
p192
(dp193
g72
Nsg73
Nsg74
Nsg75
Nsg76
Nsg77
Nsg78
Nsssg113
(dp194
S'tx B-tx A'
p195
(dp196
g72
Nsg73
Nsg74
Nsg75
Nsg76
Nsg77
Nsg78
NssS'tx A-tx B'
p197
(dp198
g72
Nsg73
Nsg74
Nsg75
Nsg76
Nsg77
Nsg78
Nsssg119
(dp199
g51
(dp200
g72
Nsg73
Nsg74
Nsg75
Nsg76
Nsg77
Nsg78
Nssg57
(dp201
g72
Nsg73
Nsg74
Nsg75
Nsg76
Nsg77
Nsg78
Nsssg123
(dp202
g51
(dp203
g72
Nsg73
Nsg74
Nsg75
Nsg76
Nsg77
Nsg78
Nssg57
(dp204
g72
Nsg73
Nsg74
Nsg75
Nsg76
Nsg77
Nsg78
Nsssg127
(dp205
g51
(dp206
g72
Nsg73
Nsg74
Nsg75
Nsg76
Nsg77
Nsg78
Nssg57
(dp207
g72
Nsg73
Nsg74
Nsg75
Nsg76
Nsg77
Nsg78
Nsssg131
(dp208
S'tx B-tx A'
p209
(dp210
g72
Nsg73
Nsg74
Nsg75
Nsg76
Nsg77
Nsg78
NssS'tx A-tx B'
p211
(dp212
g72
F-0.077122828363209883
sg73
F-1.0500321964524197
sg74
F-0.56357751240781484
sg75
F0.92577613505533896
sg76
F0.56916920731707332
sg77
F0.34992648253843905
sg78
Nssssg137
I2
sbsssg138
I00
sg139
I1988
sg140
(lp213
g62
asg56
I1
sba(ima_dataset
Study
p214
(dp215
g29
I01
sg30
VISIS-2
p216
sg32
(dp217
g34
g35
(g36
S'QString'
p218
(V1
p219
tp220
tp221
Rp222
sg42
F1.5
ssg18
g19
sg43
Nsg44
(dp223
g7
(dp224
g12
(ima_dataset
MetaAnalyticUnit
p225
(dp226
g22
I00
sg49
(dp227
g51
(ima_dataset
TreatmentGroup
p228
(dp229
g54
(lp230
F72.0
aF951.0
asg56
I0
sg30
g51
sbsg57
(ima_dataset
TreatmentGroup
p231
(dp232
g54
(lp233
F111.0
aF957.0
asg56
I1
sg30
g57
sbssg61
g62
sg66
(dp234
g68
(dp235
S'tx B-tx A'
p236
(dp237
g72
Nsg73
Nsg74
Nsg75
Nsg76
Nsg77
Nsg78
NssS'tx A-tx B'
p238
(dp239
g72
Nsg73
Nsg74
Nsg75
Nsg76
Nsg77
Nsg78
Nsssg81
(dp240
g51
(dp241
g72
Nsg73
Nsg74
Nsg75
Nsg76
Nsg77
Nsg78
Nssg57
(dp242
g72
Nsg73
Nsg74
Nsg75
Nsg76
Nsg77
Nsg78
Nsssg85
(dp243
g51
(dp244
g72
Nsg73
Nsg74
Nsg75
Nsg76
Nsg77
Nsg78
Nssg57
(dp245
g72
Nsg73
Nsg74
Nsg75
Nsg76
Nsg77
Nsg78
Nsssg89
(dp246
S'tx B-tx A'
p247
(dp248
g72
Nsg73
Nsg74
Nsg75
Nsg76
Nsg77
Nsg78
NssS'tx A-tx B'
p249
(dp250
g72
Nsg73
Nsg74
Nsg75
Nsg76
Nsg77
Nsg78
Nsssg95
(dp251
S'tx B-tx A'
p252
(dp253
g72
Nsg73
Nsg74
Nsg75
Nsg76
Nsg77
Nsg78
NssS'tx A-tx B'
p254
(dp255
g72
Nsg73
Nsg74
Nsg75
Nsg76
Nsg77
Nsg78
Nsssg101
(dp256
S'tx B-tx A'
p257
(dp258
g72
Nsg73
Nsg74
Nsg75
Nsg76
Nsg77
Nsg78
NssS'tx A-tx B'
p259
(dp260
g72
Nsg73
Nsg74
Nsg75
Nsg76
Nsg77
Nsg78
Nsssg107
(dp261
S'tx B-tx A'
p262
(dp263
g72
Nsg73
Nsg74
Nsg75
Nsg76
Nsg77
Nsg78
NssS'tx A-tx B'
p264
(dp265
g72
Nsg73
Nsg74
Nsg75
Nsg76
Nsg77
Nsg78
Nsssg113
(dp266
S'tx B-tx A'
p267
(dp268
g72
Nsg73
Nsg74
Nsg75
Nsg76
Nsg77
Nsg78
NssS'tx A-tx B'
p269
(dp270
g72
Nsg73
Nsg74
Nsg75
Nsg76
Nsg77
Nsg78
Nsssg119
(dp271
g51
(dp272
g72
Nsg73
Nsg74
Nsg75
Nsg76
Nsg77
Nsg78
Nssg57
(dp273
g72
Nsg73
Nsg74
Nsg75
Nsg76
Nsg77
Nsg78
Nsssg123
(dp274
g51
(dp275
g72
Nsg73
Nsg74
Nsg75
Nsg76
Nsg77
Nsg78
Nssg57
(dp276
g72
Nsg73
Nsg74
Nsg75
Nsg76
Nsg77
Nsg78
Nsssg127
(dp277
g51
(dp278
g72
Nsg73
Nsg74
Nsg75
Nsg76
Nsg77
Nsg78
Nssg57
(dp279
g72
Nsg73
Nsg74
Nsg75
Nsg76
Nsg77
Nsg78
Nsssg131
(dp280
S'tx B-tx A'
p281
(dp282
g72
Nsg73
Nsg74
Nsg75
Nsg76
Nsg77
Nsg78
NssS'tx A-tx B'
p283
(dp284
g72
F-0.15988642986159562
sg73
F-0.78237281088887012
sg74
F-0.47112962037523287
sg75
F0.85224057255002317
sg76
F0.62429665160040571
sg77
F0.45731958997598854
sg78
Nssssg137
I2
sbsssg138
I00
sg139
I1988
sg140
(lp285
g62
asg56
I2
sba(ima_dataset
Study
p286
(dp287
g29
I01
sg30
VTICO
p288
sg32
(dp289
g34
g35
(g36
S'QString'
p290
(V1
p291
tp292
tp293
Rp294
sg42
F1.8999999999999999
ssg18
g19
sg43
Nsg44
(dp295
g7
(dp296
g12
(ima_dataset
MetaAnalyticUnit
p297
(dp298
g22
I00
sg49
(dp299
g51
(ima_dataset
TreatmentGroup
p300
(dp301
g54
(lp302
F4.0
aF74.0
asg56
I0
sg30
g51
sbsg57
(ima_dataset
TreatmentGroup
p303
(dp304
g54
(lp305
F4.0
aF71.0
asg56
I1
sg30
g57
sbssg61
g62
sg66
(dp306
g68
(dp307
S'tx B-tx A'
p308
(dp309
g72
Nsg73
Nsg74
Nsg75
Nsg76
Nsg77
Nsg78
NssS'tx A-tx B'
p310
(dp311
g72
Nsg73
Nsg74
Nsg75
Nsg76
Nsg77
Nsg78
Nsssg81
(dp312
g51
(dp313
g72
Nsg73
Nsg74
Nsg75
Nsg76
Nsg77
Nsg78
Nssg57
(dp314
g72
Nsg73
Nsg74
Nsg75
Nsg76
Nsg77
Nsg78
Nsssg85
(dp315
g51
(dp316
g72
Nsg73
Nsg74
Nsg75
Nsg76
Nsg77
Nsg78
Nssg57
(dp317
g72
Nsg73
Nsg74
Nsg75
Nsg76
Nsg77
Nsg78
Nsssg89
(dp318
S'tx B-tx A'
p319
(dp320
g72
Nsg73
Nsg74
Nsg75
Nsg76
Nsg77
Nsg78
NssS'tx A-tx B'
p321
(dp322
g72
Nsg73
Nsg74
Nsg75
Nsg76
Nsg77
Nsg78
Nsssg95
(dp323
S'tx B-tx A'
p324
(dp325
g72
Nsg73
Nsg74
Nsg75
Nsg76
Nsg77
Nsg78
NssS'tx A-tx B'
p326
(dp327
g72
Nsg73
Nsg74
Nsg75
Nsg76
Nsg77
Nsg78
Nsssg101
(dp328
S'tx B-tx A'
p329
(dp330
g72
Nsg73
Nsg74
Nsg75
Nsg76
Nsg77
Nsg78
NssS'tx A-tx B'
p331
(dp332
g72
Nsg73
Nsg74
Nsg75
Nsg76
Nsg77
Nsg78
Nsssg107
(dp333
S'tx B-tx A'
p334
(dp335
g72
Nsg73
Nsg74
Nsg75
Nsg76
Nsg77
Nsg78
NssS'tx A-tx B'
p336
(dp337
g72
Nsg73
Nsg74
Nsg75
Nsg76
Nsg77
Nsg78
Nsssg113
(dp338
S'tx B-tx A'
p339
(dp340
g72
Nsg73
Nsg74
Nsg75
Nsg76
Nsg77
Nsg78
NssS'tx A-tx B'
p341
(dp342
g72
Nsg73
Nsg74
Nsg75
Nsg76
Nsg77
Nsg78
Nsssg119
(dp343
g51
(dp344
g72
Nsg73
Nsg74
Nsg75
Nsg76
Nsg77
Nsg78
Nssg57
(dp345
g72
Nsg73
Nsg74
Nsg75
Nsg76
Nsg77
Nsg78
Nsssg123
(dp346
g51
(dp347
g72
Nsg73
Nsg74
Nsg75
Nsg76
Nsg77
Nsg78
Nssg57
(dp348
g72
Nsg73
Nsg74
Nsg75
Nsg76
Nsg77
Nsg78
Nsssg127
(dp349
g51
(dp350
g72
Nsg73
Nsg74
Nsg75
Nsg76
Nsg77
Nsg78
Nssg57
(dp351
g72
Nsg73
Nsg74
Nsg75
Nsg76
Nsg77
Nsg78
Nsssg131
(dp352
S'tx B-tx A'
p353
(dp354
g72
Nsg73
Nsg74
Nsg75
Nsg76
Nsg77
Nsg78
NssS'tx A-tx B'
p355
(dp356
g72
F1.3820103383497655
sg73
F-1.469615583666551
sg74
F-0.043802622658392742
sg75
F3.9829005622617579
sg76
F0.9571428571428573
sg77
F0.2300138892896077
sg78
Nssssg137
I2
sbsssg138
I00
sg139
I1988
sg140
(lp357
g62
asg56
I3
sba(ima_dataset
Study
p358
(dp359
g29
I01
sg30
VEWP
p360
sg32
(dp361
g34
g35
(g36
S'QString'
p362
(V1
p363
tp364
tp365
Rp366
sg42
F2.0
ssg18
g19
sg43
Nsg44
(dp367
g7
(dp368
g12
(ima_dataset
MetaAnalyticUnit
p369
(dp370
g22
I00
sg49
(dp371
g51
(ima_dataset
TreatmentGroup
p372
(dp373
g54
(lp374
F12.0
aF108.0
asg56
I0
sg30
g51
sbsg57
(ima_dataset
TreatmentGroup
p375
(dp376
g54
(lp377
F10.0
aF82.0
asg56
I1
sg30
g57
sbssg61
g62
sg66
(dp378
g68
(dp379
S'tx B-tx A'
p380
(dp381
g72
Nsg73
Nsg74
Nsg75
Nsg76
Nsg77
Nsg78
NssS'tx A-tx B'
p382
(dp383
g72
Nsg73
Nsg74
Nsg75
Nsg76
Nsg77
Nsg78
Nsssg81
(dp384
g51
(dp385
g72
Nsg73
Nsg74
Nsg75
Nsg76
Nsg77
Nsg78
Nssg57
(dp386
g72
Nsg73
Nsg74
Nsg75
Nsg76
Nsg77
Nsg78
Nsssg85
(dp387
g51
(dp388
g72
Nsg73
Nsg74
Nsg75
Nsg76
Nsg77
Nsg78
Nssg57
(dp389
g72
Nsg73
Nsg74
Nsg75
Nsg76
Nsg77
Nsg78
Nsssg89
(dp390
S'tx B-tx A'
p391
(dp392
g72
Nsg73
Nsg74
Nsg75
Nsg76
Nsg77
Nsg78
NssS'tx A-tx B'
p393
(dp394
g72
Nsg73
Nsg74
Nsg75
Nsg76
Nsg77
Nsg78
Nsssg95
(dp395
S'tx B-tx A'
p396
(dp397
g72
Nsg73
Nsg74
Nsg75
Nsg76
Nsg77
Nsg78
NssS'tx A-tx B'
p398
(dp399
g72
Nsg73
Nsg74
Nsg75
Nsg76
Nsg77
Nsg78
Nsssg101
(dp400
S'tx B-tx A'
p401
(dp402
g72
Nsg73
Nsg74
Nsg75
Nsg76
Nsg77
Nsg78
NssS'tx A-tx B'
p403
(dp404
g72
Nsg73
Nsg74
Nsg75
Nsg76
Nsg77
Nsg78
Nsssg107
(dp405
S'tx B-tx A'
p406
(dp407
g72
Nsg73
Nsg74
Nsg75
Nsg76
Nsg77
Nsg78
NssS'tx A-tx B'
p408
(dp409
g72
Nsg73
Nsg74
Nsg75
Nsg76
Nsg77
Nsg78
Nsssg113
(dp410
S'tx B-tx A'
p411
(dp412
g72
Nsg73
Nsg74
Nsg75
Nsg76
Nsg77
Nsg78
NssS'tx A-tx B'
p413
(dp414
g72
Nsg73
Nsg74
Nsg75
Nsg76
Nsg77
Nsg78
Nsssg119
(dp415
g51
(dp416
g72
Nsg73
Nsg74
Nsg75
Nsg76
Nsg77
Nsg78
Nssg57
(dp417
g72
Nsg73
Nsg74
Nsg75
Nsg76
Nsg77
Nsg78
Nsssg123
(dp418
g51
(dp419
g72
Nsg73
Nsg74
Nsg75
Nsg76
Nsg77
Nsg78
Nssg57
(dp420
g72
Nsg73
Nsg74
Nsg75
Nsg76
Nsg77
Nsg78
Nsssg127
(dp421
g51
(dp422
g72
Nsg73
Nsg74
Nsg75
Nsg76
Nsg77
Nsg78
Nssg57
(dp423
g72
Nsg73
Nsg74
Nsg75
Nsg76
Nsg77
Nsg78
Nsssg131
(dp424
S'tx B-tx A'
p425
(dp426
g72
Nsg73
Nsg74
Nsg75
Nsg76
Nsg77
Nsg78
NssS'tx A-tx B'
p427
(dp428
g72
F0.78774431650990395
sg73
F-0.99846534782555618
sg74
F-0.10536051565782611
sg75
F2.198431862662181
sg76
F0.90000000000000013
sg77
F0.36844444158443668
sg78
Nssssg137
I2
sbsssg138
I00
sg139
I1971
sg140
(lp429
g62
asg56
I4
sba(ima_dataset
Study
p430
(dp431
g29
I01
sg30
VGISSI
p432
sg32
(dp433
g34
g35
(g36
S'QString'
p434
(V1
p435
tp436
tp437
Rp438
sg42
F2.0
ssg18
g19
sg43
Nsg44
(dp439
g7
(dp440
g12
(ima_dataset
MetaAnalyticUnit
p441
(dp442
g22
I00
sg49
(dp443
g51
(ima_dataset
TreatmentGroup
p444
(dp445
g54
(lp446
F226.0
aF2381.0
asg56
I0
sg30
g51
sbsg57
(ima_dataset
TreatmentGroup
p447
(dp448
g54
(lp449
F270.0
aF2436.0
asg56
I1
sg30
g57
sbssg61
g62
sg66
(dp450
g68
(dp451
S'tx B-tx A'
p452
(dp453
g72
Nsg73
Nsg74
Nsg75
Nsg76
Nsg77
Nsg78
NssS'tx A-tx B'
p454
(dp455
g72
Nsg73
Nsg74
Nsg75
Nsg76
Nsg77
Nsg78
Nsssg81
(dp456
g51
(dp457
g72
Nsg73
Nsg74
Nsg75
Nsg76
Nsg77
Nsg78
Nssg57
(dp458
g72
Nsg73
Nsg74
Nsg75
Nsg76
Nsg77
Nsg78
Nsssg85
(dp459
g51
(dp460
g72
Nsg73
Nsg74
Nsg75
Nsg76
Nsg77
Nsg78
Nssg57
(dp461
g72
Nsg73
Nsg74
Nsg75
Nsg76
Nsg77
Nsg78
Nsssg89
(dp462
S'tx B-tx A'
p463
(dp464
g72
Nsg73
Nsg74
Nsg75
Nsg76
Nsg77
Nsg78
NssS'tx A-tx B'
p465
(dp466
g72
Nsg73
Nsg74
Nsg75
Nsg76
Nsg77
Nsg78
Nsssg95
(dp467
S'tx B-tx A'
p468
(dp469
g72
Nsg73
Nsg74
Nsg75
Nsg76
Nsg77
Nsg78
NssS'tx A-tx B'
p470
(dp471
g72
Nsg73
Nsg74
Nsg75
Nsg76
Nsg77
Nsg78
Nsssg101
(dp472
S'tx B-tx A'
p473
(dp474
g72
Nsg73
Nsg74
Nsg75
Nsg76
Nsg77
Nsg78
NssS'tx A-tx B'
p475
(dp476
g72
Nsg73
Nsg74
Nsg75
Nsg76
Nsg77
Nsg78
Nsssg107
(dp477
S'tx B-tx A'
p478
(dp479
g72
Nsg73
Nsg74
Nsg75
Nsg76
Nsg77
Nsg78
NssS'tx A-tx B'
p480
(dp481
g72
Nsg73
Nsg74
Nsg75
Nsg76
Nsg77
Nsg78
Nsssg113
(dp482
S'tx B-tx A'
p483
(dp484
g72
Nsg73
Nsg74
Nsg75
Nsg76
Nsg77
Nsg78
NssS'tx A-tx B'
p485
(dp486
g72
Nsg73
Nsg74
Nsg75
Nsg76
Nsg77
Nsg78
Nsssg119
(dp487
g51
(dp488
g72
Nsg73
Nsg74
Nsg75
Nsg76
Nsg77
Nsg78
Nssg57
(dp489
g72
Nsg73
Nsg74
Nsg75
Nsg76
Nsg77
Nsg78
Nsssg123
(dp490
g51
(dp491
g72
Nsg73
Nsg74
Nsg75
Nsg76
Nsg77
Nsg78
Nssg57
(dp492
g72
Nsg73
Nsg74
Nsg75
Nsg76
Nsg77
Nsg78
Nsssg127
(dp493
g51
(dp494
g72
Nsg73
Nsg74
Nsg75
Nsg76
Nsg77
Nsg78
Nssg57
(dp495
g72
Nsg73
Nsg74
Nsg75
Nsg76
Nsg77
Nsg78
Nsssg131
(dp496
S'tx B-tx A'
p497
(dp498
g72
Nsg73
Nsg74
Nsg75
Nsg76
Nsg77
Nsg78
NssS'tx A-tx B'
p499
(dp500
g72
F0.013702017176324105
sg73
F-0.35929308658232573
sg74
F-0.1727955347030008
sg75
F1.0137963200345501
sg76
F0.84130961588038178
sg77
F0.69816969719191113
sg78
Nssssg137
I2
sbsssg138
I00
sg139
I1986
sg140
(lp501
g62
asg56
I5
sba(ima_dataset
Study
p502
(dp503
g29
I01
sg30
VECSG-2
p504
sg32
(dp505
g34
g35
(g36
S'QString'
p506
(V1
p507
tp508
tp509
Rp510
sg42
F2.0
ssg18
g19
sg43
Nsg44
(dp511
g7
(dp512
g12
(ima_dataset
MetaAnalyticUnit
p513
(dp514
g22
I00
sg49
(dp515
g51
(ima_dataset
TreatmentGroup
p516
(dp517
g54
(lp518
F2.0
aF179.0
asg56
I0
sg30
g51
sbsg57
(ima_dataset
TreatmentGroup
p519
(dp520
g54
(lp521
F13.0
aF207.0
asg56
I1
sg30
g57
sbssg61
g62
sg66
(dp522
g68
(dp523
S'tx B-tx A'
p524
(dp525
g72
Nsg73
Nsg74
Nsg75
Nsg76
Nsg77
Nsg78
NssS'tx A-tx B'
p526
(dp527
g72
Nsg73
Nsg74
Nsg75
Nsg76
Nsg77
Nsg78
Nsssg81
(dp528
g51
(dp529
g72
Nsg73
Nsg74
Nsg75
Nsg76
Nsg77
Nsg78
Nssg57
(dp530
g72
Nsg73
Nsg74
Nsg75
Nsg76
Nsg77
Nsg78
Nsssg85
(dp531
g51
(dp532
g72
Nsg73
Nsg74
Nsg75
Nsg76
Nsg77
Nsg78
Nssg57
(dp533
g72
Nsg73
Nsg74
Nsg75
Nsg76
Nsg77
Nsg78
Nsssg89
(dp534
S'tx B-tx A'
p535
(dp536
g72
Nsg73
Nsg74
Nsg75
Nsg76
Nsg77
Nsg78
NssS'tx A-tx B'
p537
(dp538
g72
Nsg73
Nsg74
Nsg75
Nsg76
Nsg77
Nsg78
Nsssg95
(dp539
S'tx B-tx A'
p540
(dp541
g72
Nsg73
Nsg74
Nsg75
Nsg76
Nsg77
Nsg78
NssS'tx A-tx B'
p542
(dp543
g72
Nsg73
Nsg74
Nsg75
Nsg76
Nsg77
Nsg78
Nsssg101
(dp544
S'tx B-tx A'
p545
(dp546
g72
Nsg73
Nsg74
Nsg75
Nsg76
Nsg77
Nsg78
NssS'tx A-tx B'
p547
(dp548
g72
Nsg73
Nsg74
Nsg75
Nsg76
Nsg77
Nsg78
Nsssg107
(dp549
S'tx B-tx A'
p550
(dp551
g72
Nsg73
Nsg74
Nsg75
Nsg76
Nsg77
Nsg78
NssS'tx A-tx B'
p552
(dp553
g72
Nsg73
Nsg74
Nsg75
Nsg76
Nsg77
Nsg78
Nsssg113
(dp554
S'tx B-tx A'
p555
(dp556
g72
Nsg73
Nsg74
Nsg75
Nsg76
Nsg77
Nsg78
NssS'tx A-tx B'
p557
(dp558
g72
Nsg73
Nsg74
Nsg75
Nsg76
Nsg77
Nsg78
Nsssg119
(dp559
g51
(dp560
g72
Nsg73
Nsg74
Nsg75
Nsg76
Nsg77
Nsg78
Nssg57
(dp561
g72
Nsg73
Nsg74
Nsg75
Nsg76
Nsg77
Nsg78
Nsssg123
(dp562
g51
(dp563
g72
Nsg73
Nsg74
Nsg75
Nsg76
Nsg77
Nsg78
Nssg57
(dp564
g72
Nsg73
Nsg74
Nsg75
Nsg76
Nsg77
Nsg78
Nsssg127
(dp565
g51
(dp566
g72
Nsg73
Nsg74
Nsg75
Nsg76
Nsg77
Nsg78
Nssg57
(dp567
g72
Nsg73
Nsg74
Nsg75
Nsg76
Nsg77
Nsg78
Nsssg131
(dp568
S'tx B-tx A'
p569
(dp570
g72
Nsg73
Nsg74
Nsg75
Nsg76
Nsg77
Nsg78
NssS'tx A-tx B'
p571
(dp572
g72
F-0.27751904877010758
sg73
F-3.282668452054077
sg74
F-1.7800937504120924
sg75
F0.75766113195279072
sg76
F0.16862233811386354
sg77
F0.0375279814574912
sg78
Nssssg137
I2
sbsssg138
I00
sg139
I1988
sg140
(lp573
g62
asg56
I6
sba(ima_dataset
Study
p574
(dp575
g29
I01
sg30
VASSET
p576
sg32
(dp577
g34
g35
(g36
S'QString'
p578
(V1
p579
tp580
tp581
Rp582
sg42
F2.1000000000000001
ssg18
g19
sg43
Nsg44
(dp583
g7
(dp584
g12
(ima_dataset
MetaAnalyticUnit
p585
(dp586
g22
I00
sg49
(dp587
g51
(ima_dataset
TreatmentGroup
p588
(dp589
g54
(lp590
F81.0
aF992.0
asg56
I0
sg30
g51
sbsg57
(ima_dataset
TreatmentGroup
p591
(dp592
g54
(lp593
F107.0
aF979.0
asg56
I1
sg30
g57
sbssg61
g62
sg66
(dp594
g68
(dp595
S'tx B-tx A'
p596
(dp597
g72
Nsg73
Nsg74
Nsg75
Nsg76
Nsg77
Nsg78
NssS'tx A-tx B'
p598
(dp599
g72
Nsg73
Nsg74
Nsg75
Nsg76
Nsg77
Nsg78
Nsssg81
(dp600
g51
(dp601
g72
Nsg73
Nsg74
Nsg75
Nsg76
Nsg77
Nsg78
Nssg57
(dp602
g72
Nsg73
Nsg74
Nsg75
Nsg76
Nsg77
Nsg78
Nsssg85
(dp603
g51
(dp604
g72
Nsg73
Nsg74
Nsg75
Nsg76
Nsg77
Nsg78
Nssg57
(dp605
g72
Nsg73
Nsg74
Nsg75
Nsg76
Nsg77
Nsg78
Nsssg89
(dp606
S'tx B-tx A'
p607
(dp608
g72
Nsg73
Nsg74
Nsg75
Nsg76
Nsg77
Nsg78
NssS'tx A-tx B'
p609
(dp610
g72
Nsg73
Nsg74
Nsg75
Nsg76
Nsg77
Nsg78
Nsssg95
(dp611
S'tx B-tx A'
p612
(dp613
g72
Nsg73
Nsg74
Nsg75
Nsg76
Nsg77
Nsg78
NssS'tx A-tx B'
p614
(dp615
g72
Nsg73
Nsg74
Nsg75
Nsg76
Nsg77
Nsg78
Nsssg101
(dp616
S'tx B-tx A'
p617
(dp618
g72
Nsg73
Nsg74
Nsg75
Nsg76
Nsg77
Nsg78
NssS'tx A-tx B'
p619
(dp620
g72
Nsg73
Nsg74
Nsg75
Nsg76
Nsg77
Nsg78
Nsssg107
(dp621
S'tx B-tx A'
p622
(dp623
g72
Nsg73
Nsg74
Nsg75
Nsg76
Nsg77
Nsg78
NssS'tx A-tx B'
p624
(dp625
g72
Nsg73
Nsg74
Nsg75
Nsg76
Nsg77
Nsg78
Nsssg113
(dp626
S'tx B-tx A'
p627
(dp628
g72
Nsg73
Nsg74
Nsg75
Nsg76
Nsg77
Nsg78
NssS'tx A-tx B'
p629
(dp630
g72
Nsg73
Nsg74
Nsg75
Nsg76
Nsg77
Nsg78
Nsssg119
(dp631
g51
(dp632
g72
Nsg73
Nsg74
Nsg75
Nsg76
Nsg77
Nsg78
Nssg57
(dp633
g72
Nsg73
Nsg74
Nsg75
Nsg76
Nsg77
Nsg78
Nsssg123
(dp634
g51
(dp635
g72
Nsg73
Nsg74
Nsg75
Nsg76
Nsg77
Nsg78
Nssg57
(dp636
g72
Nsg73
Nsg74
Nsg75
Nsg76
Nsg77
Nsg78
Nsssg127
(dp637
g51
(dp638
g72
Nsg73
Nsg74
Nsg75
Nsg76
Nsg77
Nsg78
Nssg57
(dp639
g72
Nsg73
Nsg74
Nsg75
Nsg76
Nsg77
Nsg78
Nsssg131
(dp640
S'tx B-tx A'
p641
(dp642
g72
Nsg73
Nsg74
Nsg75
Nsg76
Nsg77
Nsg78
NssS'tx A-tx B'
p643
(dp644
g72
F-0.018902227840895569
sg73
F-0.62536407843999664
sg74
F-0.3221331531404461
sg75
F0.98127529895741461
sg76
F0.72460170091406173
sg77
F0.53506658684408348
sg78
Nssssg137
I2
sbsssg138
I00
sg139
I1988
sg140
(lp645
g62
asg56
I7
sba(ima_dataset
Study
p646
(dp647
g29
I01
sg30
VDurand
p648
sg32
(dp649
g34
g35
(g36
S'QString'
p650
(V1
p651
tp652
tp653
Rp654
sg42
F2.2999999999999998
ssg18
g19
sg43
Nsg44
(dp655
g7
(dp656
g12
(ima_dataset
MetaAnalyticUnit
p657
(dp658
g22
I00
sg49
(dp659
g51
(ima_dataset
TreatmentGroup
p660
(dp661
g54
(lp662
F3.0
aF35.0
asg56
I0
sg30
g51
sbsg57
(ima_dataset
TreatmentGroup
p663
(dp664
g54
(lp665
F4.0
aF29.0
asg56
I1
sg30
g57
sbssg61
g62
sg66
(dp666
g68
(dp667
S'tx B-tx A'
p668
(dp669
g72
Nsg73
Nsg74
Nsg75
Nsg76
Nsg77
Nsg78
NssS'tx A-tx B'
p670
(dp671
g72
Nsg73
Nsg74
Nsg75
Nsg76
Nsg77
Nsg78
Nsssg81
(dp672
g51
(dp673
g72
Nsg73
Nsg74
Nsg75
Nsg76
Nsg77
Nsg78
Nssg57
(dp674
g72
Nsg73
Nsg74
Nsg75
Nsg76
Nsg77
Nsg78
Nsssg85
(dp675
g51
(dp676
g72
Nsg73
Nsg74
Nsg75
Nsg76
Nsg77
Nsg78
Nssg57
(dp677
g72
Nsg73
Nsg74
Nsg75
Nsg76
Nsg77
Nsg78
Nsssg89
(dp678
S'tx B-tx A'
p679
(dp680
g72
Nsg73
Nsg74
Nsg75
Nsg76
Nsg77
Nsg78
NssS'tx A-tx B'
p681
(dp682
g72
Nsg73
Nsg74
Nsg75
Nsg76
Nsg77
Nsg78
Nsssg95
(dp683
S'tx B-tx A'
p684
(dp685
g72
Nsg73
Nsg74
Nsg75
Nsg76
Nsg77
Nsg78
NssS'tx A-tx B'
p686
(dp687
g72
Nsg73
Nsg74
Nsg75
Nsg76
Nsg77
Nsg78
Nsssg101
(dp688
S'tx B-tx A'
p689
(dp690
g72
Nsg73
Nsg74
Nsg75
Nsg76
Nsg77
Nsg78
NssS'tx A-tx B'
p691
(dp692
g72
Nsg73
Nsg74
Nsg75
Nsg76
Nsg77
Nsg78
Nsssg107
(dp693
S'tx B-tx A'
p694
(dp695
g72
Nsg73
Nsg74
Nsg75
Nsg76
Nsg77
Nsg78
NssS'tx A-tx B'
p696
(dp697
g72
Nsg73
Nsg74
Nsg75
Nsg76
Nsg77
Nsg78
Nsssg113
(dp698
S'tx B-tx A'
p699
(dp700
g72
Nsg73
Nsg74
Nsg75
Nsg76
Nsg77
Nsg78
NssS'tx A-tx B'
p701
(dp702
g72
Nsg73
Nsg74
Nsg75
Nsg76
Nsg77
Nsg78
Nsssg119
(dp703
g51
(dp704
g72
Nsg73
Nsg74
Nsg75
Nsg76
Nsg77
Nsg78
Nssg57
(dp705
g72
Nsg73
Nsg74
Nsg75
Nsg76
Nsg77
Nsg78
Nsssg123
(dp706
g51
(dp707
g72
Nsg73
Nsg74
Nsg75
Nsg76
Nsg77
Nsg78
Nssg57
(dp708
g72
Nsg73
Nsg74
Nsg75
Nsg76
Nsg77
Nsg78
Nsssg127
(dp709
g51
(dp710
g72
Nsg73
Nsg74
Nsg75
Nsg76
Nsg77
Nsg78
Nssg57
(dp711
g72
Nsg73
Nsg74
Nsg75
Nsg76
Nsg77
Nsg78
Nsssg131
(dp712
S'tx B-tx A'
p713
(dp714
g72
Nsg73
Nsg74
Nsg75
Nsg76
Nsg77
Nsg78
NssS'tx A-tx B'
p715
(dp716
g72
F1.0511926697277656
sg73
F-2.1202769704943791
sg74
F-0.53454215038330677
sg75
F2.8610613853011948
sg76
F0.5859375
sg77
F0.1199983878955142
sg78
Nssssg137
I2
sbsssg138
I00
sg139
I1987
sg140
(lp717
g62
asg56
I8
sba(ima_dataset
Study
p718
(dp719
g29
I01
sg30
VAIMS
p720
sg32
(dp721
g34
g35
(g36
S'QString'
p722
(V1
p723
tp724
tp725
Rp726
sg42
F2.2999999999999998
ssg18
g19
sg43
Nsg44
(dp727
g7
(dp728
g12
(ima_dataset
MetaAnalyticUnit
p729
(dp730
g22
I00
sg49
(dp731
g51
(ima_dataset
TreatmentGroup
p732
(dp733
g54
(lp734
F18.0
aF334.0
asg56
I0
sg30
g51
sbsg57
(ima_dataset
TreatmentGroup
p735
(dp736
g54
(lp737
F30.0
aF326.0
asg56
I1
sg30
g57
sbssg61
g62
sg66
(dp738
g68
(dp739
S'tx B-tx A'
p740
(dp741
g72
Nsg73
Nsg74
Nsg75
Nsg76
Nsg77
Nsg78
NssS'tx A-tx B'
p742
(dp743
g72
Nsg73
Nsg74
Nsg75
Nsg76
Nsg77
Nsg78
Nsssg81
(dp744
g51
(dp745
g72
Nsg73
Nsg74
Nsg75
Nsg76
Nsg77
Nsg78
Nssg57
(dp746
g72
Nsg73
Nsg74
Nsg75
Nsg76
Nsg77
Nsg78
Nsssg85
(dp747
g51
(dp748
g72
Nsg73
Nsg74
Nsg75
Nsg76
Nsg77
Nsg78
Nssg57
(dp749
g72
Nsg73
Nsg74
Nsg75
Nsg76
Nsg77
Nsg78
Nsssg89
(dp750
S'tx B-tx A'
p751
(dp752
g72
Nsg73
Nsg74
Nsg75
Nsg76
Nsg77
Nsg78
NssS'tx A-tx B'
p753
(dp754
g72
Nsg73
Nsg74
Nsg75
Nsg76
Nsg77
Nsg78
Nsssg95
(dp755
S'tx B-tx A'
p756
(dp757
g72
Nsg73
Nsg74
Nsg75
Nsg76
Nsg77
Nsg78
NssS'tx A-tx B'
p758
(dp759
g72
Nsg73
Nsg74
Nsg75
Nsg76
Nsg77
Nsg78
Nsssg101
(dp760
S'tx B-tx A'
p761
(dp762
g72
Nsg73
Nsg74
Nsg75
Nsg76
Nsg77
Nsg78
NssS'tx A-tx B'
p763
(dp764
g72
Nsg73
Nsg74
Nsg75
Nsg76
Nsg77
Nsg78
Nsssg107
(dp765
S'tx B-tx A'
p766
(dp767
g72
Nsg73
Nsg74
Nsg75
Nsg76
Nsg77
Nsg78
NssS'tx A-tx B'
p768
(dp769
g72
Nsg73
Nsg74
Nsg75
Nsg76
Nsg77
Nsg78
Nsssg113
(dp770
S'tx B-tx A'
p771
(dp772
g72
Nsg73
Nsg74
Nsg75
Nsg76
Nsg77
Nsg78
NssS'tx A-tx B'
p773
(dp774
g72
Nsg73
Nsg74
Nsg75
Nsg76
Nsg77
Nsg78
Nsssg119
(dp775
g51
(dp776
g72
Nsg73
Nsg74
Nsg75
Nsg76
Nsg77
Nsg78
Nssg57
(dp777
g72
Nsg73
Nsg74
Nsg75
Nsg76
Nsg77
Nsg78
Nsssg123
(dp778
g51
(dp779
g72
Nsg73
Nsg74
Nsg75
Nsg76
Nsg77
Nsg78
Nssg57
(dp780
g72
Nsg73
Nsg74
Nsg75
Nsg76
Nsg77
Nsg78
Nsssg127
(dp781
g51
(dp782
g72
Nsg73
Nsg74
Nsg75
Nsg76
Nsg77
Nsg78
Nssg57
(dp783
g72
Nsg73
Nsg74
Nsg75
Nsg76
Nsg77
Nsg78
Nsssg131
(dp784
S'tx B-tx A'
p785
(dp786
g72
Nsg73
Nsg74
Nsg75
Nsg76
Nsg77
Nsg78
NssS'tx A-tx B'
p787
(dp788
g72
F0.029264508982474124
sg73
F-1.1816812750401586
sg74
F-0.57620838302884225
sg75
F1.0296969225421715
sg76
F0.56202531645569631
sg77
F0.30676255257448237
sg78
Nssssg137
I2
sbsssg138
I00
sg139
I1988
sg140
(lp789
g62
asg56
I9
sba(ima_dataset
Study
p790
(dp791
g29
I01
sg30
VBossaert
p792
sg32
(dp793
g34
g35
(g36
S'QString'
p794
(V1
p795
tp796
tp797
Rp798
sg42
F2.5
ssg18
g19
sg43
Nsg44
(dp799
g7
(dp800
g12
(ima_dataset
MetaAnalyticUnit
p801
(dp802
g22
I00
sg49
(dp803
g51
(ima_dataset
TreatmentGroup
p804
(dp805
g54
(lp806
F4.0
aF48.0
asg56
I0
sg30
g51
sbsg57
(ima_dataset
TreatmentGroup
p807
(dp808
g54
(lp809
F2.0
aF39.0
asg56
I1
sg30
g57
sbssg61
g62
sg66
(dp810
g68
(dp811
S'tx B-tx A'
p812
(dp813
g72
Nsg73
Nsg74
Nsg75
Nsg76
Nsg77
Nsg78
NssS'tx A-tx B'
p814
(dp815
g72
Nsg73
Nsg74
Nsg75
Nsg76
Nsg77
Nsg78
Nsssg81
(dp816
g51
(dp817
g72
Nsg73
Nsg74
Nsg75
Nsg76
Nsg77
Nsg78
Nssg57
(dp818
g72
Nsg73
Nsg74
Nsg75
Nsg76
Nsg77
Nsg78
Nsssg85
(dp819
g51
(dp820
g72
Nsg73
Nsg74
Nsg75
Nsg76
Nsg77
Nsg78
Nssg57
(dp821
g72
Nsg73
Nsg74
Nsg75
Nsg76
Nsg77
Nsg78
Nsssg89
(dp822
S'tx B-tx A'
p823
(dp824
g72
Nsg73
Nsg74
Nsg75
Nsg76
Nsg77
Nsg78
NssS'tx A-tx B'
p825
(dp826
g72
Nsg73
Nsg74
Nsg75
Nsg76
Nsg77
Nsg78
Nsssg95
(dp827
S'tx B-tx A'
p828
(dp829
g72
Nsg73
Nsg74
Nsg75
Nsg76
Nsg77
Nsg78
NssS'tx A-tx B'
p830
(dp831
g72
Nsg73
Nsg74
Nsg75
Nsg76
Nsg77
Nsg78
Nsssg101
(dp832
S'tx B-tx A'
p833
(dp834
g72
Nsg73
Nsg74
Nsg75
Nsg76
Nsg77
Nsg78
NssS'tx A-tx B'
p835
(dp836
g72
Nsg73
Nsg74
Nsg75
Nsg76
Nsg77
Nsg78
Nsssg107
(dp837
S'tx B-tx A'
p838
(dp839
g72
Nsg73
Nsg74
Nsg75
Nsg76
Nsg77
Nsg78
NssS'tx A-tx B'
p840
(dp841
g72
Nsg73
Nsg74
Nsg75
Nsg76
Nsg77
Nsg78
Nsssg113
(dp842
S'tx B-tx A'
p843
(dp844
g72
Nsg73
Nsg74
Nsg75
Nsg76
Nsg77
Nsg78
NssS'tx A-tx B'
p845
(dp846
g72
Nsg73
Nsg74
Nsg75
Nsg76
Nsg77
Nsg78
Nsssg119
(dp847
g51
(dp848
g72
Nsg73
Nsg74
Nsg75
Nsg76
Nsg77
Nsg78
Nssg57
(dp849
g72
Nsg73
Nsg74
Nsg75
Nsg76
Nsg77
Nsg78
Nsssg123
(dp850
g51
(dp851
g72
Nsg73
Nsg74
Nsg75
Nsg76
Nsg77
Nsg78
Nssg57
(dp852
g72
Nsg73
Nsg74
Nsg75
Nsg76
Nsg77
Nsg78
Nsssg127
(dp853
g51
(dp854
g72
Nsg73
Nsg74
Nsg75
Nsg76
Nsg77
Nsg78
Nssg57
(dp855
g72
Nsg73
Nsg74
Nsg75
Nsg76
Nsg77
Nsg78
Nsssg131
(dp856
S'tx B-tx A'
p857
(dp858
g72
Nsg73
Nsg74
Nsg75
Nsg76
Nsg77
Nsg78
NssS'tx A-tx B'
p859
(dp860
g72
F2.2726513175117131
sg73
F-1.2329003989398966
sg74
F0.51987545928590828
sg75
F9.7050980296397196
sg76
F1.6818181818181812
sg77
F0.29144604083913778
sg78
Nssssg137
I2
sbsssg138
I00
sg139
I1987
sg140
(lp861
g62
asg56
I10
sba(ima_dataset
Study
p862
(dp863
g29
I01
sg30
VSainsous
p864
sg32
(dp865
g34
g35
(g36
S'QString'
p866
(V1
p867
tp868
tp869
Rp870
sg42
F2.5
ssg18
g19
sg43
Nsg44
(dp871
g7
(dp872
g12
(ima_dataset
MetaAnalyticUnit
p873
(dp874
g22
I00
sg49
(dp875
g51
(ima_dataset
TreatmentGroup
p876
(dp877
g54
(lp878
F3.0
aF50.0
asg56
I0
sg30
g51
sbsg57
(ima_dataset
TreatmentGroup
p879
(dp880
g54
(lp881
F6.0
aF51.0
asg56
I1
sg30
g57
sbssg61
g62
sg66
(dp882
g68
(dp883
S'tx B-tx A'
p884
(dp885
g72
Nsg73
Nsg74
Nsg75
Nsg76
Nsg77
Nsg78
NssS'tx A-tx B'
p886
(dp887
g72
Nsg73
Nsg74
Nsg75
Nsg76
Nsg77
Nsg78
Nsssg81
(dp888
g51
(dp889
g72
Nsg73
Nsg74
Nsg75
Nsg76
Nsg77
Nsg78
Nssg57
(dp890
g72
Nsg73
Nsg74
Nsg75
Nsg76
Nsg77
Nsg78
Nsssg85
(dp891
g51
(dp892
g72
Nsg73
Nsg74
Nsg75
Nsg76
Nsg77
Nsg78
Nssg57
(dp893
g72
Nsg73
Nsg74
Nsg75
Nsg76
Nsg77
Nsg78
Nsssg89
(dp894
S'tx B-tx A'
p895
(dp896
g72
Nsg73
Nsg74
Nsg75
Nsg76
Nsg77
Nsg78
NssS'tx A-tx B'
p897
(dp898
g72
Nsg73
Nsg74
Nsg75
Nsg76
Nsg77
Nsg78
Nsssg95
(dp899
S'tx B-tx A'
p900
(dp901
g72
Nsg73
Nsg74
Nsg75
Nsg76
Nsg77
Nsg78
NssS'tx A-tx B'
p902
(dp903
g72
Nsg73
Nsg74
Nsg75
Nsg76
Nsg77
Nsg78
Nsssg101
(dp904
S'tx B-tx A'
p905
(dp906
g72
Nsg73
Nsg74
Nsg75
Nsg76
Nsg77
Nsg78
NssS'tx A-tx B'
p907
(dp908
g72
Nsg73
Nsg74
Nsg75
Nsg76
Nsg77
Nsg78
Nsssg107
(dp909
S'tx B-tx A'
p910
(dp911
g72
Nsg73
Nsg74
Nsg75
Nsg76
Nsg77
Nsg78
NssS'tx A-tx B'
p912
(dp913
g72
Nsg73
Nsg74
Nsg75
Nsg76
Nsg77
Nsg78
Nsssg113
(dp914
S'tx B-tx A'
p915
(dp916
g72
Nsg73
Nsg74
Nsg75
Nsg76
Nsg77
Nsg78
NssS'tx A-tx B'
p917
(dp918
g72
Nsg73
Nsg74
Nsg75
Nsg76
Nsg77
Nsg78
Nsssg119
(dp919
g51
(dp920
g72
Nsg73
Nsg74
Nsg75
Nsg76
Nsg77
Nsg78
Nssg57
(dp921
g72
Nsg73
Nsg74
Nsg75
Nsg76
Nsg77
Nsg78
Nsssg123
(dp922
g51
(dp923
g72
Nsg73
Nsg74
Nsg75
Nsg76
Nsg77
Nsg78
Nssg57
(dp924
g72
Nsg73
Nsg74
Nsg75
Nsg76
Nsg77
Nsg78
Nsssg127
(dp925
g51
(dp926
g72
Nsg73
Nsg74
Nsg75
Nsg76
Nsg77
Nsg78
Nssg57
(dp927
g72
Nsg73
Nsg74
Nsg75
Nsg76
Nsg77
Nsg78
Nsssg131
(dp928
S'tx B-tx A'
p929
(dp930
g72
Nsg73
Nsg74
Nsg75
Nsg76
Nsg77
Nsg78
NssS'tx A-tx B'
p931
(dp932
g72
F0.7082996534118835
sg73
F-2.1815642384112519
sg74
F-0.7366322924996842
sg75
F2.0305357071999595
sg76
F0.47872340425531912
sg77
F0.1128648449614451
sg78
Nssssg137
I2
sbsssg138
I00
sg139
I1986
sg140
(lp933
g62
asg56
I11
sba(ima_dataset
Study
p934
(dp935
g29
I01
sg30
VISIS-2
p936
sg32
(dp937
g34
g35
(g36
S'QString'
p938
(V1
p939
tp940
tp941
Rp942
sg42
F2.5
ssg18
g19
sg43
Nsg44
(dp943
g7
(dp944
g12
(ima_dataset
MetaAnalyticUnit
p945
(dp946
g22
I00
sg49
(dp947
g51
(ima_dataset
TreatmentGroup
p948
(dp949
g54
(lp950
F106.0
aF1243.0
asg56
I0
sg30
g51
sbsg57
(ima_dataset
TreatmentGroup
p951
(dp952
g54
(lp953
F152.0
aF1243.0
asg56
I1
sg30
g57
sbssg61
g62
sg66
(dp954
g68
(dp955
S'tx B-tx A'
p956
(dp957
g72
Nsg73
Nsg74
Nsg75
Nsg76
Nsg77
Nsg78
NssS'tx A-tx B'
p958
(dp959
g72
Nsg73
Nsg74
Nsg75
Nsg76
Nsg77
Nsg78
Nsssg81
(dp960
g51
(dp961
g72
Nsg73
Nsg74
Nsg75
Nsg76
Nsg77
Nsg78
Nssg57
(dp962
g72
Nsg73
Nsg74
Nsg75
Nsg76
Nsg77
Nsg78
Nsssg85
(dp963
g51
(dp964
g72
Nsg73
Nsg74
Nsg75
Nsg76
Nsg77
Nsg78
Nssg57
(dp965
g72
Nsg73
Nsg74
Nsg75
Nsg76
Nsg77
Nsg78
Nsssg89
(dp966
S'tx B-tx A'
p967
(dp968
g72
Nsg73
Nsg74
Nsg75
Nsg76
Nsg77
Nsg78
NssS'tx A-tx B'
p969
(dp970
g72
Nsg73
Nsg74
Nsg75
Nsg76
Nsg77
Nsg78
Nsssg95
(dp971
S'tx B-tx A'
p972
(dp973
g72
Nsg73
Nsg74
Nsg75
Nsg76
Nsg77
Nsg78
NssS'tx A-tx B'
p974
(dp975
g72
Nsg73
Nsg74
Nsg75
Nsg76
Nsg77
Nsg78
Nsssg101
(dp976
S'tx B-tx A'
p977
(dp978
g72
Nsg73
Nsg74
Nsg75
Nsg76
Nsg77
Nsg78
NssS'tx A-tx B'
p979
(dp980
g72
Nsg73
Nsg74
Nsg75
Nsg76
Nsg77
Nsg78
Nsssg107
(dp981
S'tx B-tx A'
p982
(dp983
g72
Nsg73
Nsg74
Nsg75
Nsg76
Nsg77
Nsg78
NssS'tx A-tx B'
p984
(dp985
g72
Nsg73
Nsg74
Nsg75
Nsg76
Nsg77
Nsg78
Nsssg113
(dp986
S'tx B-tx A'
p987
(dp988
g72
Nsg73
Nsg74
Nsg75
Nsg76
Nsg77
Nsg78
NssS'tx A-tx B'
p989
(dp990
g72
Nsg73
Nsg74
Nsg75
Nsg76
Nsg77
Nsg78
Nsssg119
(dp991
g51
(dp992
g72
Nsg73
Nsg74
Nsg75
Nsg76
Nsg77
Nsg78
Nssg57
(dp993
g72
Nsg73
Nsg74
Nsg75
Nsg76
Nsg77
Nsg78
Nsssg123
(dp994
g51
(dp995
g72
Nsg73
Nsg74
Nsg75
Nsg76
Nsg77
Nsg78
Nssg57
(dp996
g72
Nsg73
Nsg74
Nsg75
Nsg76
Nsg77
Nsg78
Nsssg127
(dp997
g51
(dp998
g72
Nsg73
Nsg74
Nsg75
Nsg76
Nsg77
Nsg78
Nssg57
(dp999
g72
Nsg73
Nsg74
Nsg75
Nsg76
Nsg77
Nsg78
Nsssg131
(dp1000
S'tx B-tx A'
p1001
(dp1002
g72
Nsg73
Nsg74
Nsg75
Nsg76
Nsg77
Nsg78
NssS'tx A-tx B'
p1003
(dp1004
g72
F-0.14018197064400822
sg73
F-0.66329789865934052
sg74
F-0.40173993465167435
sg75
F0.86920005211363005
sg76
F0.66915474702587607
sg77
F0.51514961875396637
sg78
Nssssg137
I2
sbsssg138
I00
sg139
I1988
sg140
(lp1005
g62
asg56
I12
sba(ima_dataset
Study
p1006
(dp1007
g29
I01
sg30
VIkram
p1008
sg32
(dp1009
g34
g35
(g36
S'QString'
p1010
(V1
p1011
tp1012
tp1013
Rp1014
sg42
F2.6000000000000001
ssg18
g19
sg43
Nsg44
(dp1015
g7
(dp1016
g12
(ima_dataset
MetaAnalyticUnit
p1017
(dp1018
g22
I00
sg49
(dp1019
g51
(ima_dataset
TreatmentGroup
p1020
(dp1021
g54
(lp1022
F7.0
aF60.0
asg56
I0
sg30
g51
sbsg57
(ima_dataset
TreatmentGroup
p1023
(dp1024
g54
(lp1025
F12.0
aF67.0
asg56
I1
sg30
g57
sbssg61
g62
sg66
(dp1026
g68
(dp1027
S'tx B-tx A'
p1028
(dp1029
g72
Nsg73
Nsg74
Nsg75
Nsg76
Nsg77
Nsg78
NssS'tx A-tx B'
p1030
(dp1031
g72
Nsg73
Nsg74
Nsg75
Nsg76
Nsg77
Nsg78
Nsssg81
(dp1032
g51
(dp1033
g72
Nsg73
Nsg74
Nsg75
Nsg76
Nsg77
Nsg78
Nssg57
(dp1034
g72
Nsg73
Nsg74
Nsg75
Nsg76
Nsg77
Nsg78
Nsssg85
(dp1035
g51
(dp1036
g72
Nsg73
Nsg74
Nsg75
Nsg76
Nsg77
Nsg78
Nssg57
(dp1037
g72
Nsg73
Nsg74
Nsg75
Nsg76
Nsg77
Nsg78
Nsssg89
(dp1038
S'tx B-tx A'
p1039
(dp1040
g72
Nsg73
Nsg74
Nsg75
Nsg76
Nsg77
Nsg78
NssS'tx A-tx B'
p1041
(dp1042
g72
Nsg73
Nsg74
Nsg75
Nsg76
Nsg77
Nsg78
Nsssg95
(dp1043
S'tx B-tx A'
p1044
(dp1045
g72
Nsg73
Nsg74
Nsg75
Nsg76
Nsg77
Nsg78
NssS'tx A-tx B'
p1046
(dp1047
g72
Nsg73
Nsg74
Nsg75
Nsg76
Nsg77
Nsg78
Nsssg101
(dp1048
S'tx B-tx A'
p1049
(dp1050
g72
Nsg73
Nsg74
Nsg75
Nsg76
Nsg77
Nsg78
NssS'tx A-tx B'
p1051
(dp1052
g72
Nsg73
Nsg74
Nsg75
Nsg76
Nsg77
Nsg78
Nsssg107
(dp1053
S'tx B-tx A'
p1054
(dp1055
g72
Nsg73
Nsg74
Nsg75
Nsg76
Nsg77
Nsg78
NssS'tx A-tx B'
p1056
(dp1057
g72
Nsg73
Nsg74
Nsg75
Nsg76
Nsg77
Nsg78
Nsssg113
(dp1058
S'tx B-tx A'
p1059
(dp1060
g72
Nsg73
Nsg74
Nsg75
Nsg76
Nsg77
Nsg78
NssS'tx A-tx B'
p1061
(dp1062
g72
Nsg73
Nsg74
Nsg75
Nsg76
Nsg77
Nsg78
Nsssg119
(dp1063
g51
(dp1064
g72
Nsg73
Nsg74
Nsg75
Nsg76
Nsg77
Nsg78
Nssg57
(dp1065
g72
Nsg73
Nsg74
Nsg75
Nsg76
Nsg77
Nsg78
Nsssg123
(dp1066
g51
(dp1067
g72
Nsg73
Nsg74
Nsg75
Nsg76
Nsg77
Nsg78
Nssg57
(dp1068
g72
Nsg73
Nsg74
Nsg75
Nsg76
Nsg77
Nsg78
Nsssg127
(dp1069
g51
(dp1070
g72
Nsg73
Nsg74
Nsg75
Nsg76
Nsg77
Nsg78
Nssg57
(dp1071
g72
Nsg73
Nsg74
Nsg75
Nsg76
Nsg77
Nsg78
Nsssg131
(dp1072
S'tx B-tx A'
p1073
(dp1074
g72
Nsg73
Nsg74
Nsg75
Nsg76
Nsg77
Nsg78
NssS'tx A-tx B'
p1075
(dp1076
g72
F0.50364233501449451
sg73
F-1.5075527931191703
sg74
F-0.50195522905233791
sg75
F1.6547374156701296
sg76
F0.60534591194968557
sg77
F0.22145125241263455
sg78
Nssssg137
I2
sbsssg138
I00
sg139
I1986
sg140
(lp1077
g62
asg56
I13
sba(ima_dataset
Study
p1078
(dp1079
g29
I01
sg30
VAnderson
p1080
sg32
(dp1081
g34
g35
(g36
S'QString'
p1082
(V1
p1083
tp1084
tp1085
Rp1086
sg42
F2.7000000000000002
ssg18
g19
sg43
Nsg44
(dp1087
g7
(dp1088
g12
(ima_dataset
MetaAnalyticUnit
p1089
(dp1090
g22
I00
sg49
(dp1091
g51
(ima_dataset
TreatmentGroup
p1092
(dp1093
g54
(lp1094
F2.0
aF24.0
asg56
I0
sg30
g51
sbsg57
(ima_dataset
TreatmentGroup
p1095
(dp1096
g54
(lp1097
F5.0
aF26.0
asg56
I1
sg30
g57
sbssg61
g62
sg66
(dp1098
g68
(dp1099
S'tx B-tx A'
p1100
(dp1101
g72
Nsg73
Nsg74
Nsg75
Nsg76
Nsg77
Nsg78
NssS'tx A-tx B'
p1102
(dp1103
g72
Nsg73
Nsg74
Nsg75
Nsg76
Nsg77
Nsg78
Nsssg81
(dp1104
g51
(dp1105
g72
Nsg73
Nsg74
Nsg75
Nsg76
Nsg77
Nsg78
Nssg57
(dp1106
g72
Nsg73
Nsg74
Nsg75
Nsg76
Nsg77
Nsg78
Nsssg85
(dp1107
g51
(dp1108
g72
Nsg73
Nsg74
Nsg75
Nsg76
Nsg77
Nsg78
Nssg57
(dp1109
g72
Nsg73
Nsg74
Nsg75
Nsg76
Nsg77
Nsg78
Nsssg89
(dp1110
S'tx B-tx A'
p1111
(dp1112
g72
Nsg73
Nsg74
Nsg75
Nsg76
Nsg77
Nsg78
NssS'tx A-tx B'
p1113
(dp1114
g72
Nsg73
Nsg74
Nsg75
Nsg76
Nsg77
Nsg78
Nsssg95
(dp1115
S'tx B-tx A'
p1116
(dp1117
g72
Nsg73
Nsg74
Nsg75
Nsg76
Nsg77
Nsg78
NssS'tx A-tx B'
p1118
(dp1119
g72
Nsg73
Nsg74
Nsg75
Nsg76
Nsg77
Nsg78
Nsssg101
(dp1120
S'tx B-tx A'
p1121
(dp1122
g72
Nsg73
Nsg74
Nsg75
Nsg76
Nsg77
Nsg78
NssS'tx A-tx B'
p1123
(dp1124
g72
Nsg73
Nsg74
Nsg75
Nsg76
Nsg77
Nsg78
Nsssg107
(dp1125
S'tx B-tx A'
p1126
(dp1127
g72
Nsg73
Nsg74
Nsg75
Nsg76
Nsg77
Nsg78
NssS'tx A-tx B'
p1128
(dp1129
g72
Nsg73
Nsg74
Nsg75
Nsg76
Nsg77
Nsg78
Nsssg113
(dp1130
S'tx B-tx A'
p1131
(dp1132
g72
Nsg73
Nsg74
Nsg75
Nsg76
Nsg77
Nsg78
NssS'tx A-tx B'
p1133
(dp1134
g72
Nsg73
Nsg74
Nsg75
Nsg76
Nsg77
Nsg78
Nsssg119
(dp1135
g51
(dp1136
g72
Nsg73
Nsg74
Nsg75
Nsg76
Nsg77
Nsg78
Nssg57
(dp1137
g72
Nsg73
Nsg74
Nsg75
Nsg76
Nsg77
Nsg78
Nsssg123
(dp1138
g51
(dp1139
g72
Nsg73
Nsg74
Nsg75
Nsg76
Nsg77
Nsg78
Nssg57
(dp1140
g72
Nsg73
Nsg74
Nsg75
Nsg76
Nsg77
Nsg78
Nsssg127
(dp1141
g51
(dp1142
g72
Nsg73
Nsg74
Nsg75
Nsg76
Nsg77
Nsg78
Nssg57
(dp1143
g72
Nsg73
Nsg74
Nsg75
Nsg76
Nsg77
Nsg78
Nsssg131
(dp1144
S'tx B-tx A'
p1145
(dp1146
g72
Nsg73
Nsg74
Nsg75
Nsg76
Nsg77
Nsg78
NssS'tx A-tx B'
p1147
(dp1148
g72
F0.78262889612579722
sg73
F-2.7082503911438938
sg74
F-0.96281074750904816
sg75
F2.1872146742764045
sg76
F0.38181818181818172
sg77
F0.066653321999667045
sg78
Nssssg137
I2
sbsssg138
I00
sg139
I1983
sg140
(lp1149
g62
asg56
I14
sba(ima_dataset
Study
p1150
(dp1151
g29
I01
sg30
VCroydon
p1152
sg32
(dp1153
g34
g35
(g36
S'QString'
p1154
(V1
p1155
tp1156
tp1157
Rp1158
sg42
F2.7000000000000002
ssg18
g19
sg43
Nsg44
(dp1159
g7
(dp1160
g12
(ima_dataset
MetaAnalyticUnit
p1161
(dp1162
g22
I00
sg49
(dp1163
g51
(ima_dataset
TreatmentGroup
p1164
(dp1165
g54
(lp1166
F3.0
aF35.0
asg56
I0
sg30
g51
sbsg57
(ima_dataset
TreatmentGroup
p1167
(dp1168
g54
(lp1169
F4.0
aF30.0
asg56
I1
sg30
g57
sbssg61
g62
sg66
(dp1170
g68
(dp1171
S'tx B-tx A'
p1172
(dp1173
g72
Nsg73
Nsg74
Nsg75
Nsg76
Nsg77
Nsg78
NssS'tx A-tx B'
p1174
(dp1175
g72
Nsg73
Nsg74
Nsg75
Nsg76
Nsg77
Nsg78
Nsssg81
(dp1176
g51
(dp1177
g72
Nsg73
Nsg74
Nsg75
Nsg76
Nsg77
Nsg78
Nssg57
(dp1178
g72
Nsg73
Nsg74
Nsg75
Nsg76
Nsg77
Nsg78
Nsssg85
(dp1179
g51
(dp1180
g72
Nsg73
Nsg74
Nsg75
Nsg76
Nsg77
Nsg78
Nssg57
(dp1181
g72
Nsg73
Nsg74
Nsg75
Nsg76
Nsg77
Nsg78
Nsssg89
(dp1182
S'tx B-tx A'
p1183
(dp1184
g72
Nsg73
Nsg74
Nsg75
Nsg76
Nsg77
Nsg78
NssS'tx A-tx B'
p1185
(dp1186
g72
Nsg73
Nsg74
Nsg75
Nsg76
Nsg77
Nsg78
Nsssg95
(dp1187
S'tx B-tx A'
p1188
(dp1189
g72
Nsg73
Nsg74
Nsg75
Nsg76
Nsg77
Nsg78
NssS'tx A-tx B'
p1190
(dp1191
g72
Nsg73
Nsg74
Nsg75
Nsg76
Nsg77
Nsg78
Nsssg101
(dp1192
S'tx B-tx A'
p1193
(dp1194
g72
Nsg73
Nsg74
Nsg75
Nsg76
Nsg77
Nsg78
NssS'tx A-tx B'
p1195
(dp1196
g72
Nsg73
Nsg74
Nsg75
Nsg76
Nsg77
Nsg78
Nsssg107
(dp1197
S'tx B-tx A'
p1198
(dp1199
g72
Nsg73
Nsg74
Nsg75
Nsg76
Nsg77
Nsg78
NssS'tx A-tx B'
p1200
(dp1201
g72
Nsg73
Nsg74
Nsg75
Nsg76
Nsg77
Nsg78
Nsssg113
(dp1202
S'tx B-tx A'
p1203
(dp1204
g72
Nsg73
Nsg74
Nsg75
Nsg76
Nsg77
Nsg78
NssS'tx A-tx B'
p1205
(dp1206
g72
Nsg73
Nsg74
Nsg75
Nsg76
Nsg77
Nsg78
Nsssg119
(dp1207
g51
(dp1208
g72
Nsg73
Nsg74
Nsg75
Nsg76
Nsg77
Nsg78
Nssg57
(dp1209
g72
Nsg73
Nsg74
Nsg75
Nsg76
Nsg77
Nsg78
Nsssg123
(dp1210
g51
(dp1211
g72
Nsg73
Nsg74
Nsg75
Nsg76
Nsg77
Nsg78
Nssg57
(dp1212
g72
Nsg73
Nsg74
Nsg75
Nsg76
Nsg77
Nsg78
Nsssg127
(dp1213
g51
(dp1214
g72
Nsg73
Nsg74
Nsg75
Nsg76
Nsg77
Nsg78
Nssg57
(dp1215
g72
Nsg73
Nsg74
Nsg75
Nsg76
Nsg77
Nsg78
Nsssg131
(dp1216
S'tx B-tx A'
p1217
(dp1218
g72
Nsg73
Nsg74
Nsg75
Nsg76
Nsg77
Nsg78
NssS'tx A-tx B'
p1219
(dp1220
g72
F1.088548817262265
sg73
F-2.0791916917223157
sg74
F-0.49532143723002542
sg75
F2.9699609876657656
sg76
F0.609375
sg77
F0.12503123514657757
sg78
Nssssg137
I2
sbsssg138
I00
sg139
I1987
sg140
(lp1221
g62
asg56
I15
sba(ima_dataset
Study
p1222
(dp1223
g29
I01
sg30
VMeinertz
p1224
sg32
(dp1225
g34
g35
(g36
S'QString'
p1226
(V1
p1227
tp1228
tp1229
Rp1230
sg42
F2.7999999999999998
ssg18
g19
sg43
Nsg44
(dp1231
g7
(dp1232
g12
(ima_dataset
MetaAnalyticUnit
p1233
(dp1234
g22
I00
sg49
(dp1235
g51
(ima_dataset
TreatmentGroup
p1236
(dp1237
g54
(lp1238
F9.0
aF162.0
asg56
I0
sg30
g51
sbsg57
(ima_dataset
TreatmentGroup
p1239
(dp1240
g54
(lp1241
F19.0
aF151.0
asg56
I1
sg30
g57
sbssg61
g62
sg66
(dp1242
g68
(dp1243
S'tx B-tx A'
p1244
(dp1245
g72
Nsg73
Nsg74
Nsg75
Nsg76
Nsg77
Nsg78
NssS'tx A-tx B'
p1246
(dp1247
g72
Nsg73
Nsg74
Nsg75
Nsg76
Nsg77
Nsg78
Nsssg81
(dp1248
g51
(dp1249
g72
Nsg73
Nsg74
Nsg75
Nsg76
Nsg77
Nsg78
Nssg57
(dp1250
g72
Nsg73
Nsg74
Nsg75
Nsg76
Nsg77
Nsg78
Nsssg85
(dp1251
g51
(dp1252
g72
Nsg73
Nsg74
Nsg75
Nsg76
Nsg77
Nsg78
Nssg57
(dp1253
g72
Nsg73
Nsg74
Nsg75
Nsg76
Nsg77
Nsg78
Nsssg89
(dp1254
S'tx B-tx A'
p1255
(dp1256
g72
Nsg73
Nsg74
Nsg75
Nsg76
Nsg77
Nsg78
NssS'tx A-tx B'
p1257
(dp1258
g72
Nsg73
Nsg74
Nsg75
Nsg76
Nsg77
Nsg78
Nsssg95
(dp1259
S'tx B-tx A'
p1260
(dp1261
g72
Nsg73
Nsg74
Nsg75
Nsg76
Nsg77
Nsg78
NssS'tx A-tx B'
p1262
(dp1263
g72
Nsg73
Nsg74
Nsg75
Nsg76
Nsg77
Nsg78
Nsssg101
(dp1264
S'tx B-tx A'
p1265
(dp1266
g72
Nsg73
Nsg74
Nsg75
Nsg76
Nsg77
Nsg78
NssS'tx A-tx B'
p1267
(dp1268
g72
Nsg73
Nsg74
Nsg75
Nsg76
Nsg77
Nsg78
Nsssg107
(dp1269
S'tx B-tx A'
p1270
(dp1271
g72
Nsg73
Nsg74
Nsg75
Nsg76
Nsg77
Nsg78
NssS'tx A-tx B'
p1272
(dp1273
g72
Nsg73
Nsg74
Nsg75
Nsg76
Nsg77
Nsg78
Nsssg113
(dp1274
S'tx B-tx A'
p1275
(dp1276
g72
Nsg73
Nsg74
Nsg75
Nsg76
Nsg77
Nsg78
NssS'tx A-tx B'
p1277
(dp1278
g72
Nsg73
Nsg74
Nsg75
Nsg76
Nsg77
Nsg78
Nsssg119
(dp1279
g51
(dp1280
g72
Nsg73
Nsg74
Nsg75
Nsg76
Nsg77
Nsg78
Nssg57
(dp1281
g72
Nsg73
Nsg74
Nsg75
Nsg76
Nsg77
Nsg78
Nsssg123
(dp1282
g51
(dp1283
g72
Nsg73
Nsg74
Nsg75
Nsg76
Nsg77
Nsg78
Nssg57
(dp1284
g72
Nsg73
Nsg74
Nsg75
Nsg76
Nsg77
Nsg78
Nsssg127
(dp1285
g51
(dp1286
g72
Nsg73
Nsg74
Nsg75
Nsg76
Nsg77
Nsg78
Nssg57
(dp1287
g72
Nsg73
Nsg74
Nsg75
Nsg76
Nsg77
Nsg78
Nsssg131
(dp1288
S'tx B-tx A'
p1289
(dp1290
g72
Nsg73
Nsg74
Nsg75
Nsg76
Nsg77
Nsg78
NssS'tx A-tx B'
p1291
(dp1292
g72
F-0.068278966455531442
sg73
F-1.7214218348170403
sg74
F-0.89485040063628585
sg75
F0.93399988259411804
sg76
F0.40866873065015474
sg77
F0.17881172634342307
sg78
Nssssg137
I2
sbsssg138
I00
sg139
I1988
sg140
(lp1293
g62
asg56
I16
sba(ima_dataset
Study
p1294
(dp1295
g29
I01
sg30
VBuchalter
p1296
sg32
(dp1297
g34
g35
(g36
S'QString'
p1298
(V1
p1299
tp1300
tp1301
Rp1302
sg42
F2.8999999999999999
ssg18
g19
sg43
Nsg44
(dp1303
g7
(dp1304
g12
(ima_dataset
MetaAnalyticUnit
p1305
(dp1306
g22
I00
sg49
(dp1307
g51
(ima_dataset
TreatmentGroup
p1308
(dp1309
g54
(lp1310
F0.0
aF21.0
asg56
I0
sg30
g51
sbsg57
(ima_dataset
TreatmentGroup
p1311
(dp1312
g54
(lp1313
F5.0
aF22.0
asg56
I1
sg30
g57
sbssg61
g62
sg66
(dp1314
g68
(dp1315
S'tx B-tx A'
p1316
(dp1317
g72
Nsg73
Nsg74
Nsg75
Nsg76
Nsg77
Nsg78
NssS'tx A-tx B'
p1318
(dp1319
g72
Nsg73
Nsg74
Nsg75
Nsg76
Nsg77
Nsg78
Nsssg81
(dp1320
g51
(dp1321
g72
Nsg73
Nsg74
Nsg75
Nsg76
Nsg77
Nsg78
Nssg57
(dp1322
g72
Nsg73
Nsg74
Nsg75
Nsg76
Nsg77
Nsg78
Nsssg85
(dp1323
g51
(dp1324
g72
Nsg73
Nsg74
Nsg75
Nsg76
Nsg77
Nsg78
Nssg57
(dp1325
g72
Nsg73
Nsg74
Nsg75
Nsg76
Nsg77
Nsg78
Nsssg89
(dp1326
S'tx B-tx A'
p1327
(dp1328
g72
Nsg73
Nsg74
Nsg75
Nsg76
Nsg77
Nsg78
NssS'tx A-tx B'
p1329
(dp1330
g72
Nsg73
Nsg74
Nsg75
Nsg76
Nsg77
Nsg78
Nsssg95
(dp1331
S'tx B-tx A'
p1332
(dp1333
g72
Nsg73
Nsg74
Nsg75
Nsg76
Nsg77
Nsg78
NssS'tx A-tx B'
p1334
(dp1335
g72
Nsg73
Nsg74
Nsg75
Nsg76
Nsg77
Nsg78
Nsssg101
(dp1336
S'tx B-tx A'
p1337
(dp1338
g72
Nsg73
Nsg74
Nsg75
Nsg76
Nsg77
Nsg78
NssS'tx A-tx B'
p1339
(dp1340
g72
Nsg73
Nsg74
Nsg75
Nsg76
Nsg77
Nsg78
Nsssg107
(dp1341
S'tx B-tx A'
p1342
(dp1343
g72
Nsg73
Nsg74
Nsg75
Nsg76
Nsg77
Nsg78
NssS'tx A-tx B'
p1344
(dp1345
g72
Nsg73
Nsg74
Nsg75
Nsg76
Nsg77
Nsg78
Nsssg113
(dp1346
S'tx B-tx A'
p1347
(dp1348
g72
Nsg73
Nsg74
Nsg75
Nsg76
Nsg77
Nsg78
NssS'tx A-tx B'
p1349
(dp1350
g72
Nsg73
Nsg74
Nsg75
Nsg76
Nsg77
Nsg78
Nsssg119
(dp1351
g51
(dp1352
g72
Nsg73
Nsg74
Nsg75
Nsg76
Nsg77
Nsg78
Nssg57
(dp1353
g72
Nsg73
Nsg74
Nsg75
Nsg76
Nsg77
Nsg78
Nsssg123
(dp1354
g51
(dp1355
g72
Nsg73
Nsg74
Nsg75
Nsg76
Nsg77
Nsg78
Nssg57
(dp1356
g72
Nsg73
Nsg74
Nsg75
Nsg76
Nsg77
Nsg78
Nsssg127
(dp1357
g51
(dp1358
g72
Nsg73
Nsg74
Nsg75
Nsg76
Nsg77
Nsg78
Nssg57
(dp1359
g72
Nsg73
Nsg74
Nsg75
Nsg76
Nsg77
Nsg78
Nsssg131
(dp1360
S'tx B-tx A'
p1361
(dp1362
g72
Nsg73
Nsg74
Nsg75
Nsg76
Nsg77
Nsg78
NssS'tx A-tx B'
p1363
(dp1364
g72
F0.35928307034332274
sg73
F-5.5667777243483618
sg74
F-2.6037473270025195
sg75
F1.4323021864643957
sg76
F0.073995771670190252
sg77
F0.0038227786544002725
sg78
Nssssg137
I2
sbsssg138
I00
sg139
I1987
sg140
(lp1365
g62
asg56
I17
sba(ima_dataset
Study
p1366
(dp1367
g29
I01
sg30
VWhite
p1368
sg32
(dp1369
g34
g35
(g36
S'QString'
p1370
(V1
p1371
tp1372
tp1373
Rp1374
sg42
F3.0
ssg18
g19
sg43
Nsg44
(dp1375
g7
(dp1376
g12
(ima_dataset
MetaAnalyticUnit
p1377
(dp1378
g22
I00
sg49
(dp1379
g51
(ima_dataset
TreatmentGroup
p1380
(dp1381
g54
(lp1382
F4.0
aF107.0
asg56
I0
sg30
g51
sbsg57
(ima_dataset
TreatmentGroup
p1383
(dp1384
g54
(lp1385
F14.0
aF112.0
asg56
I1
sg30
g57
sbssg61
g62
sg66
(dp1386
g68
(dp1387
S'tx B-tx A'
p1388
(dp1389
g72
Nsg73
Nsg74
Nsg75
Nsg76
Nsg77
Nsg78
NssS'tx A-tx B'
p1390
(dp1391
g72
Nsg73
Nsg74
Nsg75
Nsg76
Nsg77
Nsg78
Nsssg81
(dp1392
g51
(dp1393
g72
Nsg73
Nsg74
Nsg75
Nsg76
Nsg77
Nsg78
Nssg57
(dp1394
g72
Nsg73
Nsg74
Nsg75
Nsg76
Nsg77
Nsg78
Nsssg85
(dp1395
g51
(dp1396
g72
Nsg73
Nsg74
Nsg75
Nsg76
Nsg77
Nsg78
Nssg57
(dp1397
g72
Nsg73
Nsg74
Nsg75
Nsg76
Nsg77
Nsg78
Nsssg89
(dp1398
S'tx B-tx A'
p1399
(dp1400
g72
Nsg73
Nsg74
Nsg75
Nsg76
Nsg77
Nsg78
NssS'tx A-tx B'
p1401
(dp1402
g72
Nsg73
Nsg74
Nsg75
Nsg76
Nsg77
Nsg78
Nsssg95
(dp1403
S'tx B-tx A'
p1404
(dp1405
g72
Nsg73
Nsg74
Nsg75
Nsg76
Nsg77
Nsg78
NssS'tx A-tx B'
p1406
(dp1407
g72
Nsg73
Nsg74
Nsg75
Nsg76
Nsg77
Nsg78
Nsssg101
(dp1408
S'tx B-tx A'
p1409
(dp1410
g72
Nsg73
Nsg74
Nsg75
Nsg76
Nsg77
Nsg78
NssS'tx A-tx B'
p1411
(dp1412
g72
Nsg73
Nsg74
Nsg75
Nsg76
Nsg77
Nsg78
Nsssg107
(dp1413
S'tx B-tx A'
p1414
(dp1415
g72
Nsg73
Nsg74
Nsg75
Nsg76
Nsg77
Nsg78
NssS'tx A-tx B'
p1416
(dp1417
g72
Nsg73
Nsg74
Nsg75
Nsg76
Nsg77
Nsg78
Nsssg113
(dp1418
S'tx B-tx A'
p1419
(dp1420
g72
Nsg73
Nsg74
Nsg75
Nsg76
Nsg77
Nsg78
NssS'tx A-tx B'
p1421
(dp1422
g72
Nsg73
Nsg74
Nsg75
Nsg76
Nsg77
Nsg78
Nsssg119
(dp1423
g51
(dp1424
g72
Nsg73
Nsg74
Nsg75
Nsg76
Nsg77
Nsg78
Nssg57
(dp1425
g72
Nsg73
Nsg74
Nsg75
Nsg76
Nsg77
Nsg78
Nsssg123
(dp1426
g51
(dp1427
g72
Nsg73
Nsg74
Nsg75
Nsg76
Nsg77
Nsg78
Nssg57
(dp1428
g72
Nsg73
Nsg74
Nsg75
Nsg76
Nsg77
Nsg78
Nsssg127
(dp1429
g51
(dp1430
g72
Nsg73
Nsg74
Nsg75
Nsg76
Nsg77
Nsg78
Nssg57
(dp1431
g72
Nsg73
Nsg74
Nsg75
Nsg76
Nsg77
Nsg78
Nsssg131
(dp1432
S'tx B-tx A'
p1433
(dp1434
g72
Nsg73
Nsg74
Nsg75
Nsg76
Nsg77
Nsg78
NssS'tx A-tx B'
p1435
(dp1436
g72
F-0.1574267105961229
sg73
F-2.4476222455127403
sg74
F-1.3025244780544316
sg75
F0.85433942534125518
sg76
F0.2718446601941748
sg77
F0.086499015595081719
sg78
Nssssg137
I2
sbsssg138
I00
sg139
I1987
sg140
(lp1437
g62
asg56
I18
sba(ima_dataset
Study
p1438
(dp1439
g29
I01
sg30
VISAM
p1440
sg32
(dp1441
g34
g35
(g36
S'QString'
p1442
(V1
p1443
tp1444
tp1445
Rp1446
sg42
F3.0
ssg18
g19
sg43
Nsg44
(dp1447
g7
(dp1448
g12
(ima_dataset
MetaAnalyticUnit
p1449
(dp1450
g22
I00
sg49
(dp1451
g51
(ima_dataset
TreatmentGroup
p1452
(dp1453
g54
(lp1454
F54.0
aF859.0
asg56
I0
sg30
g51
sbsg57
(ima_dataset
TreatmentGroup
p1455
(dp1456
g54
(lp1457
F63.0
aF882.0
asg56
I1
sg30
g57
sbssg61
g62
sg66
(dp1458
g68
(dp1459
S'tx B-tx A'
p1460
(dp1461
g72
Nsg73
Nsg74
Nsg75
Nsg76
Nsg77
Nsg78
NssS'tx A-tx B'
p1462
(dp1463
g72
Nsg73
Nsg74
Nsg75
Nsg76
Nsg77
Nsg78
Nsssg81
(dp1464
g51
(dp1465
g72
Nsg73
Nsg74
Nsg75
Nsg76
Nsg77
Nsg78
Nssg57
(dp1466
g72
Nsg73
Nsg74
Nsg75
Nsg76
Nsg77
Nsg78
Nsssg85
(dp1467
g51
(dp1468
g72
Nsg73
Nsg74
Nsg75
Nsg76
Nsg77
Nsg78
Nssg57
(dp1469
g72
Nsg73
Nsg74
Nsg75
Nsg76
Nsg77
Nsg78
Nsssg89
(dp1470
S'tx B-tx A'
p1471
(dp1472
g72
Nsg73
Nsg74
Nsg75
Nsg76
Nsg77
Nsg78
NssS'tx A-tx B'
p1473
(dp1474
g72
Nsg73
Nsg74
Nsg75
Nsg76
Nsg77
Nsg78
Nsssg95
(dp1475
S'tx B-tx A'
p1476
(dp1477
g72
Nsg73
Nsg74
Nsg75
Nsg76
Nsg77
Nsg78
NssS'tx A-tx B'
p1478
(dp1479
g72
Nsg73
Nsg74
Nsg75
Nsg76
Nsg77
Nsg78
Nsssg101
(dp1480
S'tx B-tx A'
p1481
(dp1482
g72
Nsg73
Nsg74
Nsg75
Nsg76
Nsg77
Nsg78
NssS'tx A-tx B'
p1483
(dp1484
g72
Nsg73
Nsg74
Nsg75
Nsg76
Nsg77
Nsg78
Nsssg107
(dp1485
S'tx B-tx A'
p1486
(dp1487
g72
Nsg73
Nsg74
Nsg75
Nsg76
Nsg77
Nsg78
NssS'tx A-tx B'
p1488
(dp1489
g72
Nsg73
Nsg74
Nsg75
Nsg76
Nsg77
Nsg78
Nsssg113
(dp1490
S'tx B-tx A'
p1491
(dp1492
g72
Nsg73
Nsg74
Nsg75
Nsg76
Nsg77
Nsg78
NssS'tx A-tx B'
p1493
(dp1494
g72
Nsg73
Nsg74
Nsg75
Nsg76
Nsg77
Nsg78
Nsssg119
(dp1495
g51
(dp1496
g72
Nsg73
Nsg74
Nsg75
Nsg76
Nsg77
Nsg78
Nssg57
(dp1497
g72
Nsg73
Nsg74
Nsg75
Nsg76
Nsg77
Nsg78
Nsssg123
(dp1498
g51
(dp1499
g72
Nsg73
Nsg74
Nsg75
Nsg76
Nsg77
Nsg78
Nssg57
(dp1500
g72
Nsg73
Nsg74
Nsg75
Nsg76
Nsg77
Nsg78
Nsssg127
(dp1501
g51
(dp1502
g72
Nsg73
Nsg74
Nsg75
Nsg76
Nsg77
Nsg78
Nssg57
(dp1503
g72
Nsg73
Nsg74
Nsg75
Nsg76
Nsg77
Nsg78
Nsssg131
(dp1504
S'tx B-tx A'
p1505
(dp1506
g72
Nsg73
Nsg74
Nsg75
Nsg76
Nsg77
Nsg78
NssS'tx A-tx B'
p1507
(dp1508
g72
F0.23935710645538988
sg73
F-0.51317485324089374
sg74
F-0.13690887339275193
sg75
F1.2704321351041166
sg76
F0.87204968944099404
sg77
F0.59859211668304568
sg78
Nssssg137
I2
sbsssg138
I00
sg139
I1986
sg140
(lp1509
g62
asg56
I19
sba(ima_dataset
Study
p1510
(dp1511
g29
I01
sg30
VMaublant
p1512
sg32
(dp1513
g34
g35
(g36
S'QString'
p1514
(V2
p1515
tp1516
tp1517
Rp1518
sg42
F3.1000000000000001
ssg18
g19
sg43
Nsg44
(dp1519
g7
(dp1520
g12
(ima_dataset
MetaAnalyticUnit
p1521
(dp1522
g22
I00
sg49
(dp1523
g51
(ima_dataset
TreatmentGroup
p1524
(dp1525
g54
(lp1526
F7.0
aF112.0
asg56
I0
sg30
g51
sbsg57
(ima_dataset
TreatmentGroup
p1527
(dp1528
g54
(lp1529
F7.0
aF119.0
asg56
I1
sg30
g57
sbssg61
g62
sg66
(dp1530
g68
(dp1531
S'tx B-tx A'
p1532
(dp1533
g72
Nsg73
Nsg74
Nsg75
Nsg76
Nsg77
Nsg78
NssS'tx A-tx B'
p1534
(dp1535
g72
Nsg73
Nsg74
Nsg75
Nsg76
Nsg77
Nsg78
Nsssg81
(dp1536
g51
(dp1537
g72
Nsg73
Nsg74
Nsg75
Nsg76
Nsg77
Nsg78
Nssg57
(dp1538
g72
Nsg73
Nsg74
Nsg75
Nsg76
Nsg77
Nsg78
Nsssg85
(dp1539
g51
(dp1540
g72
Nsg73
Nsg74
Nsg75
Nsg76
Nsg77
Nsg78
Nssg57
(dp1541
g72
Nsg73
Nsg74
Nsg75
Nsg76
Nsg77
Nsg78
Nsssg89
(dp1542
S'tx B-tx A'
p1543
(dp1544
g72
Nsg73
Nsg74
Nsg75
Nsg76
Nsg77
Nsg78
NssS'tx A-tx B'
p1545
(dp1546
g72
Nsg73
Nsg74
Nsg75
Nsg76
Nsg77
Nsg78
Nsssg95
(dp1547
S'tx B-tx A'
p1548
(dp1549
g72
Nsg73
Nsg74
Nsg75
Nsg76
Nsg77
Nsg78
NssS'tx A-tx B'
p1550
(dp1551
g72
Nsg73
Nsg74
Nsg75
Nsg76
Nsg77
Nsg78
Nsssg101
(dp1552
S'tx B-tx A'
p1553
(dp1554
g72
Nsg73
Nsg74
Nsg75
Nsg76
Nsg77
Nsg78
NssS'tx A-tx B'
p1555
(dp1556
g72
Nsg73
Nsg74
Nsg75
Nsg76
Nsg77
Nsg78
Nsssg107
(dp1557
S'tx B-tx A'
p1558
(dp1559
g72
Nsg73
Nsg74
Nsg75
Nsg76
Nsg77
Nsg78
NssS'tx A-tx B'
p1560
(dp1561
g72
Nsg73
Nsg74
Nsg75
Nsg76
Nsg77
Nsg78
Nsssg113
(dp1562
S'tx B-tx A'
p1563
(dp1564
g72
Nsg73
Nsg74
Nsg75
Nsg76
Nsg77
Nsg78
NssS'tx A-tx B'
p1565
(dp1566
g72
Nsg73
Nsg74
Nsg75
Nsg76
Nsg77
Nsg78
Nsssg119
(dp1567
g51
(dp1568
g72
Nsg73
Nsg74
Nsg75
Nsg76
Nsg77
Nsg78
Nssg57
(dp1569
g72
Nsg73
Nsg74
Nsg75
Nsg76
Nsg77
Nsg78
Nsssg123
(dp1570
g51
(dp1571
g72
Nsg73
Nsg74
Nsg75
Nsg76
Nsg77
Nsg78
Nssg57
(dp1572
g72
Nsg73
Nsg74
Nsg75
Nsg76
Nsg77
Nsg78
Nsssg127
(dp1573
g51
(dp1574
g72
Nsg73
Nsg74
Nsg75
Nsg76
Nsg77
Nsg78
Nssg57
(dp1575
g72
Nsg73
Nsg74
Nsg75
Nsg76
Nsg77
Nsg78
Nsssg131
(dp1576
S'tx B-tx A'
p1577
(dp1578
g72
Nsg73
Nsg74
Nsg75
Nsg76
Nsg77
Nsg78
NssS'tx A-tx B'
p1579
(dp1580
g72
F1.1454842758485999
sg73
F-1.0164072335734577
sg74
F0.064538521137571081
sg75
F3.1439635338409562
sg76
F1.0666666666666667
sg77
F0.3618928036317785
sg78
Nssssg137
I2
sbsssg138
I00
sg139
I1988
sg140
(lp1581
g62
asg56
I20
sba(ima_dataset
Study
p1582
(dp1583
g29
I01
sg30
VSimoons
p1584
sg32
(dp1585
g34
g35
(g36
S'QString'
p1586
(V2
p1587
tp1588
tp1589
Rp1590
sg42
F3.2000000000000002
ssg18
g19
sg43
Nsg44
(dp1591
g7
(dp1592
g12
(ima_dataset
MetaAnalyticUnit
p1593
(dp1594
g22
I00
sg49
(dp1595
g51
(ima_dataset
TreatmentGroup
p1596
(dp1597
g54
(lp1598
F16.0
aF269.0
asg56
I0
sg30
g51
sbsg57
(ima_dataset
TreatmentGroup
p1599
(dp1600
g54
(lp1601
F31.0
aF264.0
asg56
I1
sg30
g57
sbssg61
g62
sg66
(dp1602
g68
(dp1603
S'tx B-tx A'
p1604
(dp1605
g72
Nsg73
Nsg74
Nsg75
Nsg76
Nsg77
Nsg78
NssS'tx A-tx B'
p1606
(dp1607
g72
Nsg73
Nsg74
Nsg75
Nsg76
Nsg77
Nsg78
Nsssg81
(dp1608
g51
(dp1609
g72
Nsg73
Nsg74
Nsg75
Nsg76
Nsg77
Nsg78
Nssg57
(dp1610
g72
Nsg73
Nsg74
Nsg75
Nsg76
Nsg77
Nsg78
Nsssg85
(dp1611
g51
(dp1612
g72
Nsg73
Nsg74
Nsg75
Nsg76
Nsg77
Nsg78
Nssg57
(dp1613
g72
Nsg73
Nsg74
Nsg75
Nsg76
Nsg77
Nsg78
Nsssg89
(dp1614
S'tx B-tx A'
p1615
(dp1616
g72
Nsg73
Nsg74
Nsg75
Nsg76
Nsg77
Nsg78
NssS'tx A-tx B'
p1617
(dp1618
g72
Nsg73
Nsg74
Nsg75
Nsg76
Nsg77
Nsg78
Nsssg95
(dp1619
S'tx B-tx A'
p1620
(dp1621
g72
Nsg73
Nsg74
Nsg75
Nsg76
Nsg77
Nsg78
NssS'tx A-tx B'
p1622
(dp1623
g72
Nsg73
Nsg74
Nsg75
Nsg76
Nsg77
Nsg78
Nsssg101
(dp1624
S'tx B-tx A'
p1625
(dp1626
g72
Nsg73
Nsg74
Nsg75
Nsg76
Nsg77
Nsg78
NssS'tx A-tx B'
p1627
(dp1628
g72
Nsg73
Nsg74
Nsg75
Nsg76
Nsg77
Nsg78
Nsssg107
(dp1629
S'tx B-tx A'
p1630
(dp1631
g72
Nsg73
Nsg74
Nsg75
Nsg76
Nsg77
Nsg78
NssS'tx A-tx B'
p1632
(dp1633
g72
Nsg73
Nsg74
Nsg75
Nsg76
Nsg77
Nsg78
Nsssg113
(dp1634
S'tx B-tx A'
p1635
(dp1636
g72
Nsg73
Nsg74
Nsg75
Nsg76
Nsg77
Nsg78
NssS'tx A-tx B'
p1637
(dp1638
g72
Nsg73
Nsg74
Nsg75
Nsg76
Nsg77
Nsg78
Nsssg119
(dp1639
g51
(dp1640
g72
Nsg73
Nsg74
Nsg75
Nsg76
Nsg77
Nsg78
Nssg57
(dp1641
g72
Nsg73
Nsg74
Nsg75
Nsg76
Nsg77
Nsg78
Nsssg123
(dp1642
g51
(dp1643
g72
Nsg73
Nsg74
Nsg75
Nsg76
Nsg77
Nsg78
Nssg57
(dp1644
g72
Nsg73
Nsg74
Nsg75
Nsg76
Nsg77
Nsg78
Nsssg127
(dp1645
g51
(dp1646
g72
Nsg73
Nsg74
Nsg75
Nsg76
Nsg77
Nsg78
Nssg57
(dp1647
g72
Nsg73
Nsg74
Nsg75
Nsg76
Nsg77
Nsg78
Nsssg131
(dp1648
S'tx B-tx A'
p1649
(dp1650
g72
Nsg73
Nsg74
Nsg75
Nsg76
Nsg77
Nsg78
NssS'tx A-tx B'
p1651
(dp1652
g72
F-0.11471868970631927
sg73
F-1.3727803451080505
sg74
F-0.74374951740718487
sg75
F0.89161692965120276
sg76
F0.4753283182455692
sg77
F0.25340143576518542
sg78
Nssssg137
I2
sbsssg138
I00
sg139
I1985
sg140
(lp1653
g62
asg56
I21
sba(ima_dataset
Study
p1654
(dp1655
g29
I01
sg30
VGuerci
p1656
sg32
(dp1657
g34
g35
(g36
S'QString'
p1658
(V2
p1659
tp1660
tp1661
Rp1662
sg42
F3.2000000000000002
ssg18
g19
sg43
Nsg44
(dp1663
g7
(dp1664
g12
(ima_dataset
MetaAnalyticUnit
p1665
(dp1666
g22
I00
sg49
(dp1667
g51
(ima_dataset
TreatmentGroup
p1668
(dp1669
g54
(lp1670
F4.0
aF72.0
asg56
I0
sg30
g51
sbsg57
(ima_dataset
TreatmentGroup
p1671
(dp1672
g54
(lp1673
F5.0
aF66.0
asg56
I1
sg30
g57
sbssg61
g62
sg66
(dp1674
g68
(dp1675
S'tx B-tx A'
p1676
(dp1677
g72
Nsg73
Nsg74
Nsg75
Nsg76
Nsg77
Nsg78
NssS'tx A-tx B'
p1678
(dp1679
g72
Nsg73
Nsg74
Nsg75
Nsg76
Nsg77
Nsg78
Nsssg81
(dp1680
g51
(dp1681
g72
Nsg73
Nsg74
Nsg75
Nsg76
Nsg77
Nsg78
Nssg57
(dp1682
g72
Nsg73
Nsg74
Nsg75
Nsg76
Nsg77
Nsg78
Nsssg85
(dp1683
g51
(dp1684
g72
Nsg73
Nsg74
Nsg75
Nsg76
Nsg77
Nsg78
Nssg57
(dp1685
g72
Nsg73
Nsg74
Nsg75
Nsg76
Nsg77
Nsg78
Nsssg89
(dp1686
S'tx B-tx A'
p1687
(dp1688
g72
Nsg73
Nsg74
Nsg75
Nsg76
Nsg77
Nsg78
NssS'tx A-tx B'
p1689
(dp1690
g72
Nsg73
Nsg74
Nsg75
Nsg76
Nsg77
Nsg78
Nsssg95
(dp1691
S'tx B-tx A'
p1692
(dp1693
g72
Nsg73
Nsg74
Nsg75
Nsg76
Nsg77
Nsg78
NssS'tx A-tx B'
p1694
(dp1695
g72
Nsg73
Nsg74
Nsg75
Nsg76
Nsg77
Nsg78
Nsssg101
(dp1696
S'tx B-tx A'
p1697
(dp1698
g72
Nsg73
Nsg74
Nsg75
Nsg76
Nsg77
Nsg78
NssS'tx A-tx B'
p1699
(dp1700
g72
Nsg73
Nsg74
Nsg75
Nsg76
Nsg77
Nsg78
Nsssg107
(dp1701
S'tx B-tx A'
p1702
(dp1703
g72
Nsg73
Nsg74
Nsg75
Nsg76
Nsg77
Nsg78
NssS'tx A-tx B'
p1704
(dp1705
g72
Nsg73
Nsg74
Nsg75
Nsg76
Nsg77
Nsg78
Nsssg113
(dp1706
S'tx B-tx A'
p1707
(dp1708
g72
Nsg73
Nsg74
Nsg75
Nsg76
Nsg77
Nsg78
NssS'tx A-tx B'
p1709
(dp1710
g72
Nsg73
Nsg74
Nsg75
Nsg76
Nsg77
Nsg78
Nsssg119
(dp1711
g51
(dp1712
g72
Nsg73
Nsg74
Nsg75
Nsg76
Nsg77
Nsg78
Nssg57
(dp1713
g72
Nsg73
Nsg74
Nsg75
Nsg76
Nsg77
Nsg78
Nsssg123
(dp1714
g51
(dp1715
g72
Nsg73
Nsg74
Nsg75
Nsg76
Nsg77
Nsg78
Nssg57
(dp1716
g72
Nsg73
Nsg74
Nsg75
Nsg76
Nsg77
Nsg78
Nsssg127
(dp1717
g51
(dp1718
g72
Nsg73
Nsg74
Nsg75
Nsg76
Nsg77
Nsg78
Nssg57
(dp1719
g72
Nsg73
Nsg74
Nsg75
Nsg76
Nsg77
Nsg78
Nsssg131
(dp1720
S'tx B-tx A'
p1721
(dp1722
g72
Nsg73
Nsg74
Nsg75
Nsg76
Nsg77
Nsg78
NssS'tx A-tx B'
p1723
(dp1724
g72
F1.02767957484254
sg73
F-1.6912343594765507
sg74
F-0.33177739231700532
sg75
F2.7945737062306568
sg76
F0.7176470588235293
sg77
F0.18429190108308921
sg78
Nssssg137
I2
sbsssg138
I00
sg139
I1987
sg140
(lp1725
g62
asg56
I22
sba(ima_dataset
Study
p1726
(dp1727
g29
I01
sg30
VNHF Austra
p1728
sg32
(dp1729
g34
g35
(g36
S'QString'
p1730
(V2
p1731
tp1732
tp1733
Rp1734
sg42
F3.2000000000000002
ssg18
g19
sg43
Nsg44
(dp1735
g7
(dp1736
g12
(ima_dataset
MetaAnalyticUnit
p1737
(dp1738
g22
I00
sg49
(dp1739
g51
(ima_dataset
TreatmentGroup
p1740
(dp1741
g54
(lp1742
F7.0
aF73.0
asg56
I0
sg30
g51
sbsg57
(ima_dataset
TreatmentGroup
p1743
(dp1744
g54
(lp1745
F2.0
aF71.0
asg56
I1
sg30
g57
sbssg61
g62
sg66
(dp1746
g68
(dp1747
S'tx B-tx A'
p1748
(dp1749
g72
Nsg73
Nsg74
Nsg75
Nsg76
Nsg77
Nsg78
NssS'tx A-tx B'
p1750
(dp1751
g72
Nsg73
Nsg74
Nsg75
Nsg76
Nsg77
Nsg78
Nsssg81
(dp1752
g51
(dp1753
g72
Nsg73
Nsg74
Nsg75
Nsg76
Nsg77
Nsg78
Nssg57
(dp1754
g72
Nsg73
Nsg74
Nsg75
Nsg76
Nsg77
Nsg78
Nsssg85
(dp1755
g51
(dp1756
g72
Nsg73
Nsg74
Nsg75
Nsg76
Nsg77
Nsg78
Nssg57
(dp1757
g72
Nsg73
Nsg74
Nsg75
Nsg76
Nsg77
Nsg78
Nsssg89
(dp1758
S'tx B-tx A'
p1759
(dp1760
g72
Nsg73
Nsg74
Nsg75
Nsg76
Nsg77
Nsg78
NssS'tx A-tx B'
p1761
(dp1762
g72
Nsg73
Nsg74
Nsg75
Nsg76
Nsg77
Nsg78
Nsssg95
(dp1763
S'tx B-tx A'
p1764
(dp1765
g72
Nsg73
Nsg74
Nsg75
Nsg76
Nsg77
Nsg78
NssS'tx A-tx B'
p1766
(dp1767
g72
Nsg73
Nsg74
Nsg75
Nsg76
Nsg77
Nsg78
Nsssg101
(dp1768
S'tx B-tx A'
p1769
(dp1770
g72
Nsg73
Nsg74
Nsg75
Nsg76
Nsg77
Nsg78
NssS'tx A-tx B'
p1771
(dp1772
g72
Nsg73
Nsg74
Nsg75
Nsg76
Nsg77
Nsg78
Nsssg107
(dp1773
S'tx B-tx A'
p1774
(dp1775
g72
Nsg73
Nsg74
Nsg75
Nsg76
Nsg77
Nsg78
NssS'tx A-tx B'
p1776
(dp1777
g72
Nsg73
Nsg74
Nsg75
Nsg76
Nsg77
Nsg78
Nsssg113
(dp1778
S'tx B-tx A'
p1779
(dp1780
g72
Nsg73
Nsg74
Nsg75
Nsg76
Nsg77
Nsg78
NssS'tx A-tx B'
p1781
(dp1782
g72
Nsg73
Nsg74
Nsg75
Nsg76
Nsg77
Nsg78
Nsssg119
(dp1783
g51
(dp1784
g72
Nsg73
Nsg74
Nsg75
Nsg76
Nsg77
Nsg78
Nssg57
(dp1785
g72
Nsg73
Nsg74
Nsg75
Nsg76
Nsg77
Nsg78
Nsssg123
(dp1786
g51
(dp1787
g72
Nsg73
Nsg74
Nsg75
Nsg76
Nsg77
Nsg78
Nssg57
(dp1788
g72
Nsg73
Nsg74
Nsg75
Nsg76
Nsg77
Nsg78
Nsssg127
(dp1789
g51
(dp1790
g72
Nsg73
Nsg74
Nsg75
Nsg76
Nsg77
Nsg78
Nssg57
(dp1791
g72
Nsg73
Nsg74
Nsg75
Nsg76
Nsg77
Nsg78
Nsssg131
(dp1792
S'tx B-tx A'
p1793
(dp1794
g72
Nsg73
Nsg74
Nsg75
Nsg76
Nsg77
Nsg78
NssS'tx A-tx B'
p1795
(dp1796
g72
F2.9045063908599076
sg73
F-0.31007692872750359
sg74
F1.2972147310662021
sg75
F18.256229985793514
sg76
F3.6590909090909101
sg77
F0.73339053525348008
sg78
Nssssg137
I2
sbsssg138
I00
sg139
I1988
sg140
(lp1797
g62
asg56
I23
sba(ima_dataset
Study
p1798
(dp1799
g29
I01
sg30
VJulian
p1800
sg32
(dp1801
g34
g35
(g36
S'QString'
p1802
(V2
p1803
tp1804
tp1805
Rp1806
sg42
F3.2999999999999998
ssg18
g19
sg43
Nsg44
(dp1807
g7
(dp1808
g12
(ima_dataset
MetaAnalyticUnit
p1809
(dp1810
g22
I00
sg49
(dp1811
g51
(ima_dataset
TreatmentGroup
p1812
(dp1813
g54
(lp1814
F1.0
aF45.0
asg56
I0
sg30
g51
sbsg57
(ima_dataset
TreatmentGroup
p1815
(dp1816
g54
(lp1817
F7.0
aF45.0
asg56
I1
sg30
g57
sbssg61
g62
sg66
(dp1818
g68
(dp1819
S'tx B-tx A'
p1820
(dp1821
g72
Nsg73
Nsg74
Nsg75
Nsg76
Nsg77
Nsg78
NssS'tx A-tx B'
p1822
(dp1823
g72
Nsg73
Nsg74
Nsg75
Nsg76
Nsg77
Nsg78
Nsssg81
(dp1824
g51
(dp1825
g72
Nsg73
Nsg74
Nsg75
Nsg76
Nsg77
Nsg78
Nssg57
(dp1826
g72
Nsg73
Nsg74
Nsg75
Nsg76
Nsg77
Nsg78
Nsssg85
(dp1827
g51
(dp1828
g72
Nsg73
Nsg74
Nsg75
Nsg76
Nsg77
Nsg78
Nssg57
(dp1829
g72
Nsg73
Nsg74
Nsg75
Nsg76
Nsg77
Nsg78
Nsssg89
(dp1830
S'tx B-tx A'
p1831
(dp1832
g72
Nsg73
Nsg74
Nsg75
Nsg76
Nsg77
Nsg78
NssS'tx A-tx B'
p1833
(dp1834
g72
Nsg73
Nsg74
Nsg75
Nsg76
Nsg77
Nsg78
Nsssg95
(dp1835
S'tx B-tx A'
p1836
(dp1837
g72
Nsg73
Nsg74
Nsg75
Nsg76
Nsg77
Nsg78
NssS'tx A-tx B'
p1838
(dp1839
g72
Nsg73
Nsg74
Nsg75
Nsg76
Nsg77
Nsg78
Nsssg101
(dp1840
S'tx B-tx A'
p1841
(dp1842
g72
Nsg73
Nsg74
Nsg75
Nsg76
Nsg77
Nsg78
NssS'tx A-tx B'
p1843
(dp1844
g72
Nsg73
Nsg74
Nsg75
Nsg76
Nsg77
Nsg78
Nsssg107
(dp1845
S'tx B-tx A'
p1846
(dp1847
g72
Nsg73
Nsg74
Nsg75
Nsg76
Nsg77
Nsg78
NssS'tx A-tx B'
p1848
(dp1849
g72
Nsg73
Nsg74
Nsg75
Nsg76
Nsg77
Nsg78
Nsssg113
(dp1850
S'tx B-tx A'
p1851
(dp1852
g72
Nsg73
Nsg74
Nsg75
Nsg76
Nsg77
Nsg78
NssS'tx A-tx B'
p1853
(dp1854
g72
Nsg73
Nsg74
Nsg75
Nsg76
Nsg77
Nsg78
Nsssg119
(dp1855
g51
(dp1856
g72
Nsg73
Nsg74
Nsg75
Nsg76
Nsg77
Nsg78
Nssg57
(dp1857
g72
Nsg73
Nsg74
Nsg75
Nsg76
Nsg77
Nsg78
Nsssg123
(dp1858
g51
(dp1859
g72
Nsg73
Nsg74
Nsg75
Nsg76
Nsg77
Nsg78
Nssg57
(dp1860
g72
Nsg73
Nsg74
Nsg75
Nsg76
Nsg77
Nsg78
Nsssg127
(dp1861
g51
(dp1862
g72
Nsg73
Nsg74
Nsg75
Nsg76
Nsg77
Nsg78
Nssg57
(dp1863
g72
Nsg73
Nsg74
Nsg75
Nsg76
Nsg77
Nsg78
Nsssg131
(dp1864
S'tx B-tx A'
p1865
(dp1866
g72
Nsg73
Nsg74
Nsg75
Nsg76
Nsg77
Nsg78
NssS'tx A-tx B'
p1867
(dp1868
g72
F0.047261027529751143
sg73
F-4.2322882740241283
sg74
F-2.0925136232471884
sg75
F1.0483956334887616
sg76
F0.12337662337662342
sg77
F0.014519128761690273
sg78
Nssssg137
I2
sbsssg138
I00
sg139
I1987
sg140
(lp1869
g62
asg56
I24
sba(ima_dataset
Study
p1870
(dp1871
g29
I01
sg30
VBassand
p1872
sg32
(dp1873
g34
g35
(g36
S'QString'
p1874
(V2
p1875
tp1876
tp1877
Rp1878
sg42
F3.2999999999999998
ssg18
g19
sg43
Nsg44
(dp1879
g7
(dp1880
g12
(ima_dataset
MetaAnalyticUnit
p1881
(dp1882
g22
I00
sg49
(dp1883
g51
(ima_dataset
TreatmentGroup
p1884
(dp1885
g54
(lp1886
F4.0
aF51.0
asg56
I0
sg30
g51
sbsg57
(ima_dataset
TreatmentGroup
p1887
(dp1888
g54
(lp1889
F7.0
aF50.0
asg56
I1
sg30
g57
sbssg61
g62
sg66
(dp1890
g68
(dp1891
S'tx B-tx A'
p1892
(dp1893
g72
Nsg73
Nsg74
Nsg75
Nsg76
Nsg77
Nsg78
NssS'tx A-tx B'
p1894
(dp1895
g72
Nsg73
Nsg74
Nsg75
Nsg76
Nsg77
Nsg78
Nsssg81
(dp1896
g51
(dp1897
g72
Nsg73
Nsg74
Nsg75
Nsg76
Nsg77
Nsg78
Nssg57
(dp1898
g72
Nsg73
Nsg74
Nsg75
Nsg76
Nsg77
Nsg78
Nsssg85
(dp1899
g51
(dp1900
g72
Nsg73
Nsg74
Nsg75
Nsg76
Nsg77
Nsg78
Nssg57
(dp1901
g72
Nsg73
Nsg74
Nsg75
Nsg76
Nsg77
Nsg78
Nsssg89
(dp1902
S'tx B-tx A'
p1903
(dp1904
g72
Nsg73
Nsg74
Nsg75
Nsg76
Nsg77
Nsg78
NssS'tx A-tx B'
p1905
(dp1906
g72
Nsg73
Nsg74
Nsg75
Nsg76
Nsg77
Nsg78
Nsssg95
(dp1907
S'tx B-tx A'
p1908
(dp1909
g72
Nsg73
Nsg74
Nsg75
Nsg76
Nsg77
Nsg78
NssS'tx A-tx B'
p1910
(dp1911
g72
Nsg73
Nsg74
Nsg75
Nsg76
Nsg77
Nsg78
Nsssg101
(dp1912
S'tx B-tx A'
p1913
(dp1914
g72
Nsg73
Nsg74
Nsg75
Nsg76
Nsg77
Nsg78
NssS'tx A-tx B'
p1915
(dp1916
g72
Nsg73
Nsg74
Nsg75
Nsg76
Nsg77
Nsg78
Nsssg107
(dp1917
S'tx B-tx A'
p1918
(dp1919
g72
Nsg73
Nsg74
Nsg75
Nsg76
Nsg77
Nsg78
NssS'tx A-tx B'
p1920
(dp1921
g72
Nsg73
Nsg74
Nsg75
Nsg76
Nsg77
Nsg78
Nsssg113
(dp1922
S'tx B-tx A'
p1923
(dp1924
g72
Nsg73
Nsg74
Nsg75
Nsg76
Nsg77
Nsg78
NssS'tx A-tx B'
p1925
(dp1926
g72
Nsg73
Nsg74
Nsg75
Nsg76
Nsg77
Nsg78
Nsssg119
(dp1927
g51
(dp1928
g72
Nsg73
Nsg74
Nsg75
Nsg76
Nsg77
Nsg78
Nssg57
(dp1929
g72
Nsg73
Nsg74
Nsg75
Nsg76
Nsg77
Nsg78
Nsssg123
(dp1930
g51
(dp1931
g72
Nsg73
Nsg74
Nsg75
Nsg76
Nsg77
Nsg78
Nssg57
(dp1932
g72
Nsg73
Nsg74
Nsg75
Nsg76
Nsg77
Nsg78
Nsssg127
(dp1933
g51
(dp1934
g72
Nsg73
Nsg74
Nsg75
Nsg76
Nsg77
Nsg78
Nssg57
(dp1935
g72
Nsg73
Nsg74
Nsg75
Nsg76
Nsg77
Nsg78
Nsssg131
(dp1936
S'tx B-tx A'
p1937
(dp1938
g72
Nsg73
Nsg74
Nsg75
Nsg76
Nsg77
Nsg78
NssS'tx A-tx B'
p1939
(dp1940
g72
F0.64766739793602079
sg73
F-1.9447939458398587
sg74
F-0.64856327395191893
sg75
F1.9110778417327783
sg76
F0.52279635258358659
sg77
F0.1430166894860157
sg78
Nssssg137
I2
sbsssg138
I00
sg139
I1986
sg140
(lp1941
g62
asg56
I25
sba(ima_dataset
Study
p1942
(dp1943
g29
I01
sg30
VSchreiber
p1944
sg32
(dp1945
g34
g35
(g36
S'QString'
p1946
(V2
p1947
tp1948
tp1949
Rp1950
sg42
F3.3999999999999999
ssg18
g19
sg43
Nsg44
(dp1951
g7
(dp1952
g12
(ima_dataset
MetaAnalyticUnit
p1953
(dp1954
g22
I00
sg49
(dp1955
g51
(ima_dataset
TreatmentGroup
p1956
(dp1957
g54
(lp1958
F1.0
aF19.0
asg56
I0
sg30
g51
sbsg57
(ima_dataset
TreatmentGroup
p1959
(dp1960
g54
(lp1961
F4.0
aF19.0
asg56
I1
sg30
g57
sbssg61
g62
sg66
(dp1962
g68
(dp1963
S'tx B-tx A'
p1964
(dp1965
g72
Nsg73
Nsg74
Nsg75
Nsg76
Nsg77
Nsg78
NssS'tx A-tx B'
p1966
(dp1967
g72
Nsg73
Nsg74
Nsg75
Nsg76
Nsg77
Nsg78
Nsssg81
(dp1968
g51
(dp1969
g72
Nsg73
Nsg74
Nsg75
Nsg76
Nsg77
Nsg78
Nssg57
(dp1970
g72
Nsg73
Nsg74
Nsg75
Nsg76
Nsg77
Nsg78
Nsssg85
(dp1971
g51
(dp1972
g72
Nsg73
Nsg74
Nsg75
Nsg76
Nsg77
Nsg78
Nssg57
(dp1973
g72
Nsg73
Nsg74
Nsg75
Nsg76
Nsg77
Nsg78
Nsssg89
(dp1974
S'tx B-tx A'
p1975
(dp1976
g72
Nsg73
Nsg74
Nsg75
Nsg76
Nsg77
Nsg78
NssS'tx A-tx B'
p1977
(dp1978
g72
Nsg73
Nsg74
Nsg75
Nsg76
Nsg77
Nsg78
Nsssg95
(dp1979
S'tx B-tx A'
p1980
(dp1981
g72
Nsg73
Nsg74
Nsg75
Nsg76
Nsg77
Nsg78
NssS'tx A-tx B'
p1982
(dp1983
g72
Nsg73
Nsg74
Nsg75
Nsg76
Nsg77
Nsg78
Nsssg101
(dp1984
S'tx B-tx A'
p1985
(dp1986
g72
Nsg73
Nsg74
Nsg75
Nsg76
Nsg77
Nsg78
NssS'tx A-tx B'
p1987
(dp1988
g72
Nsg73
Nsg74
Nsg75
Nsg76
Nsg77
Nsg78
Nsssg107
(dp1989
S'tx B-tx A'
p1990
(dp1991
g72
Nsg73
Nsg74
Nsg75
Nsg76
Nsg77
Nsg78
NssS'tx A-tx B'
p1992
(dp1993
g72
Nsg73
Nsg74
Nsg75
Nsg76
Nsg77
Nsg78
Nsssg113
(dp1994
S'tx B-tx A'
p1995
(dp1996
g72
Nsg73
Nsg74
Nsg75
Nsg76
Nsg77
Nsg78
NssS'tx A-tx B'
p1997
(dp1998
g72
Nsg73
Nsg74
Nsg75
Nsg76
Nsg77
Nsg78
Nsssg119
(dp1999
g51
(dp2000
g72
Nsg73
Nsg74
Nsg75
Nsg76
Nsg77
Nsg78
Nssg57
(dp2001
g72
Nsg73
Nsg74
Nsg75
Nsg76
Nsg77
Nsg78
Nsssg123
(dp2002
g51
(dp2003
g72
Nsg73
Nsg74
Nsg75
Nsg76
Nsg77
Nsg78
Nssg57
(dp2004
g72
Nsg73
Nsg74
Nsg75
Nsg76
Nsg77
Nsg78
Nsssg127
(dp2005
g51
(dp2006
g72
Nsg73
Nsg74
Nsg75
Nsg76
Nsg77
Nsg78
Nssg57
(dp2007
g72
Nsg73
Nsg74
Nsg75
Nsg76
Nsg77
Nsg78
Nsssg131
(dp2008
S'tx B-tx A'
p2009
(dp2010
g72
Nsg73
Nsg74
Nsg75
Nsg76
Nsg77
Nsg78
NssS'tx A-tx B'
p2011
(dp2012
g72
F0.72732292262787213
sg73
F-3.8645547584555633
sg74
F-1.5686159179138455
sg75
F2.0695328854880004
sg76
F0.20833333333333329
sg77
F0.020972258079167114
sg78
Nssssg137
I2
sbsssg138
I00
sg139
I1986
sg140
(lp2013
g62
asg56
I26
sba(ima_dataset
Study
p2014
(dp2015
g29
I01
sg30
VISIS-2
p2016
sg32
(dp2017
g34
g35
(g36
S'QString'
p2018
(V2
p2019
tp2020
tp2021
Rp2022
sg42
F3.5
ssg18
g19
sg43
Nsg44
(dp2023
g7
(dp2024
g12
(ima_dataset
MetaAnalyticUnit
p2025
(dp2026
g22
I00
sg49
(dp2027
g51
(ima_dataset
TreatmentGroup
p2028
(dp2029
g54
(lp2030
F100.0
aF1178.0
asg56
I0
sg30
g51
sbsg57
(ima_dataset
TreatmentGroup
p2031
(dp2032
g54
(lp2033
F147.0
aF1181.0
asg56
I1
sg30
g57
sbssg61
g62
sg66
(dp2034
g68
(dp2035
S'tx B-tx A'
p2036
(dp2037
g72
Nsg73
Nsg74
Nsg75
Nsg76
Nsg77
Nsg78
NssS'tx A-tx B'
p2038
(dp2039
g72
Nsg73
Nsg74
Nsg75
Nsg76
Nsg77
Nsg78
Nsssg81
(dp2040
g51
(dp2041
g72
Nsg73
Nsg74
Nsg75
Nsg76
Nsg77
Nsg78
Nssg57
(dp2042
g72
Nsg73
Nsg74
Nsg75
Nsg76
Nsg77
Nsg78
Nsssg85
(dp2043
g51
(dp2044
g72
Nsg73
Nsg74
Nsg75
Nsg76
Nsg77
Nsg78
Nssg57
(dp2045
g72
Nsg73
Nsg74
Nsg75
Nsg76
Nsg77
Nsg78
Nsssg89
(dp2046
S'tx B-tx A'
p2047
(dp2048
g72
Nsg73
Nsg74
Nsg75
Nsg76
Nsg77
Nsg78
NssS'tx A-tx B'
p2049
(dp2050
g72
Nsg73
Nsg74
Nsg75
Nsg76
Nsg77
Nsg78
Nsssg95
(dp2051
S'tx B-tx A'
p2052
(dp2053
g72
Nsg73
Nsg74
Nsg75
Nsg76
Nsg77
Nsg78
NssS'tx A-tx B'
p2054
(dp2055
g72
Nsg73
Nsg74
Nsg75
Nsg76
Nsg77
Nsg78
Nsssg101
(dp2056
S'tx B-tx A'
p2057
(dp2058
g72
Nsg73
Nsg74
Nsg75
Nsg76
Nsg77
Nsg78
NssS'tx A-tx B'
p2059
(dp2060
g72
Nsg73
Nsg74
Nsg75
Nsg76
Nsg77
Nsg78
Nsssg107
(dp2061
S'tx B-tx A'
p2062
(dp2063
g72
Nsg73
Nsg74
Nsg75
Nsg76
Nsg77
Nsg78
NssS'tx A-tx B'
p2064
(dp2065
g72
Nsg73
Nsg74
Nsg75
Nsg76
Nsg77
Nsg78
Nsssg113
(dp2066
S'tx B-tx A'
p2067
(dp2068
g72
Nsg73
Nsg74
Nsg75
Nsg76
Nsg77
Nsg78
NssS'tx A-tx B'
p2069
(dp2070
g72
Nsg73
Nsg74
Nsg75
Nsg76
Nsg77
Nsg78
Nsssg119
(dp2071
g51
(dp2072
g72
Nsg73
Nsg74
Nsg75
Nsg76
Nsg77
Nsg78
Nssg57
(dp2073
g72
Nsg73
Nsg74
Nsg75
Nsg76
Nsg77
Nsg78
Nsssg123
(dp2074
g51
(dp2075
g72
Nsg73
Nsg74
Nsg75
Nsg76
Nsg77
Nsg78
Nssg57
(dp2076
g72
Nsg73
Nsg74
Nsg75
Nsg76
Nsg77
Nsg78
Nsssg127
(dp2077
g51
(dp2078
g72
Nsg73
Nsg74
Nsg75
Nsg76
Nsg77
Nsg78
Nssg57
(dp2079
g72
Nsg73
Nsg74
Nsg75
Nsg76
Nsg77
Nsg78
Nsssg131
(dp2080
S'tx B-tx A'
p2081
(dp2082
g72
Nsg73
Nsg74
Nsg75
Nsg76
Nsg77
Nsg78
NssS'tx A-tx B'
p2083
(dp2084
g72
F-0.15893209261190938
sg73
F-0.69493810177051696
sg74
F-0.42693509719121314
sg75
F0.85305428569072383
sg76
F0.65250590031931133
sg77
F0.49910534076594082
sg78
Nssssg137
I2
sbsssg138
I00
sg139
I1988
sg140
(lp2085
g62
asg56
I27
sba(ima_dataset
Study
p2086
(dp2087
g29
I01
sg30
VBrunelli
p2088
sg32
(dp2089
g34
g35
(g36
S'QString'
p2090
(V2
p2091
tp2092
tp2093
Rp2094
sg42
F3.5
ssg18
g19
sg43
Nsg44
(dp2095
g7
(dp2096
g12
(ima_dataset
MetaAnalyticUnit
p2097
(dp2098
g22
I00
sg49
(dp2099
g51
(ima_dataset
TreatmentGroup
p2100
(dp2101
g54
(lp2102
F3.0
aF74.0
asg56
I0
sg30
g51
sbsg57
(ima_dataset
TreatmentGroup
p2103
(dp2104
g54
(lp2105
F8.0
aF76.0
asg56
I1
sg30
g57
sbssg61
g62
sg66
(dp2106
g68
(dp2107
S'tx B-tx A'
p2108
(dp2109
g72
Nsg73
Nsg74
Nsg75
Nsg76
Nsg77
Nsg78
NssS'tx A-tx B'
p2110
(dp2111
g72
Nsg73
Nsg74
Nsg75
Nsg76
Nsg77
Nsg78
Nsssg81
(dp2112
g51
(dp2113
g72
Nsg73
Nsg74
Nsg75
Nsg76
Nsg77
Nsg78
Nssg57
(dp2114
g72
Nsg73
Nsg74
Nsg75
Nsg76
Nsg77
Nsg78
Nsssg85
(dp2115
g51
(dp2116
g72
Nsg73
Nsg74
Nsg75
Nsg76
Nsg77
Nsg78
Nssg57
(dp2117
g72
Nsg73
Nsg74
Nsg75
Nsg76
Nsg77
Nsg78
Nsssg89
(dp2118
S'tx B-tx A'
p2119
(dp2120
g72
Nsg73
Nsg74
Nsg75
Nsg76
Nsg77
Nsg78
NssS'tx A-tx B'
p2121
(dp2122
g72
Nsg73
Nsg74
Nsg75
Nsg76
Nsg77
Nsg78
Nsssg95
(dp2123
S'tx B-tx A'
p2124
(dp2125
g72
Nsg73
Nsg74
Nsg75
Nsg76
Nsg77
Nsg78
NssS'tx A-tx B'
p2126
(dp2127
g72
Nsg73
Nsg74
Nsg75
Nsg76
Nsg77
Nsg78
Nsssg101
(dp2128
S'tx B-tx A'
p2129
(dp2130
g72
Nsg73
Nsg74
Nsg75
Nsg76
Nsg77
Nsg78
NssS'tx A-tx B'
p2131
(dp2132
g72
Nsg73
Nsg74
Nsg75
Nsg76
Nsg77
Nsg78
Nsssg107
(dp2133
S'tx B-tx A'
p2134
(dp2135
g72
Nsg73
Nsg74
Nsg75
Nsg76
Nsg77
Nsg78
NssS'tx A-tx B'
p2136
(dp2137
g72
Nsg73
Nsg74
Nsg75
Nsg76
Nsg77
Nsg78
Nsssg113
(dp2138
S'tx B-tx A'
p2139
(dp2140
g72
Nsg73
Nsg74
Nsg75
Nsg76
Nsg77
Nsg78
NssS'tx A-tx B'
p2141
(dp2142
g72
Nsg73
Nsg74
Nsg75
Nsg76
Nsg77
Nsg78
Nsssg119
(dp2143
g51
(dp2144
g72
Nsg73
Nsg74
Nsg75
Nsg76
Nsg77
Nsg78
Nssg57
(dp2145
g72
Nsg73
Nsg74
Nsg75
Nsg76
Nsg77
Nsg78
Nsssg123
(dp2146
g51
(dp2147
g72
Nsg73
Nsg74
Nsg75
Nsg76
Nsg77
Nsg78
Nssg57
(dp2148
g72
Nsg73
Nsg74
Nsg75
Nsg76
Nsg77
Nsg78
Nsssg127
(dp2149
g51
(dp2150
g72
Nsg73
Nsg74
Nsg75
Nsg76
Nsg77
Nsg78
Nssg57
(dp2151
g72
Nsg73
Nsg74
Nsg75
Nsg76
Nsg77
Nsg78
Nsssg131
(dp2152
S'tx B-tx A'
p2153
(dp2154
g72
Nsg73
Nsg74
Nsg75
Nsg76
Nsg77
Nsg78
NssS'tx A-tx B'
p2155
(dp2156
g72
F0.34394072355071814
sg73
F-2.3919435733045873
sg74
F-1.0240014248769347
sg75
F1.4104950238928571
sg76
F0.35915492957746487
sg77
F0.091451767822466432
sg78
Nssssg137
I2
sbsssg138
I00
sg139
I1988
sg140
(lp2157
g62
asg56
I28
sba(ima_dataset
Study
p2158
(dp2159
g29
I01
sg30
VWWIVSK
p2160
sg32
(dp2161
g34
g35
(g36
S'QString'
p2162
(V2
p2163
tp2164
tp2165
Rp2166
sg42
F3.5
ssg18
g19
sg43
Nsg44
(dp2167
g7
(dp2168
g12
(ima_dataset
MetaAnalyticUnit
p2169
(dp2170
g22
I00
sg49
(dp2171
g51
(ima_dataset
TreatmentGroup
p2172
(dp2173
g54
(lp2174
F12.0
aF191.0
asg56
I0
sg30
g51
sbsg57
(ima_dataset
TreatmentGroup
p2175
(dp2176
g54
(lp2177
F17.0
aF177.0
asg56
I1
sg30
g57
sbssg61
g62
sg66
(dp2178
g68
(dp2179
S'tx B-tx A'
p2180
(dp2181
g72
Nsg73
Nsg74
Nsg75
Nsg76
Nsg77
Nsg78
NssS'tx A-tx B'
p2182
(dp2183
g72
Nsg73
Nsg74
Nsg75
Nsg76
Nsg77
Nsg78
Nsssg81
(dp2184
g51
(dp2185
g72
Nsg73
Nsg74
Nsg75
Nsg76
Nsg77
Nsg78
Nssg57
(dp2186
g72
Nsg73
Nsg74
Nsg75
Nsg76
Nsg77
Nsg78
Nsssg85
(dp2187
g51
(dp2188
g72
Nsg73
Nsg74
Nsg75
Nsg76
Nsg77
Nsg78
Nssg57
(dp2189
g72
Nsg73
Nsg74
Nsg75
Nsg76
Nsg77
Nsg78
Nsssg89
(dp2190
S'tx B-tx A'
p2191
(dp2192
g72
Nsg73
Nsg74
Nsg75
Nsg76
Nsg77
Nsg78
NssS'tx A-tx B'
p2193
(dp2194
g72
Nsg73
Nsg74
Nsg75
Nsg76
Nsg77
Nsg78
Nsssg95
(dp2195
S'tx B-tx A'
p2196
(dp2197
g72
Nsg73
Nsg74
Nsg75
Nsg76
Nsg77
Nsg78
NssS'tx A-tx B'
p2198
(dp2199
g72
Nsg73
Nsg74
Nsg75
Nsg76
Nsg77
Nsg78
Nsssg101
(dp2200
S'tx B-tx A'
p2201
(dp2202
g72
Nsg73
Nsg74
Nsg75
Nsg76
Nsg77
Nsg78
NssS'tx A-tx B'
p2203
(dp2204
g72
Nsg73
Nsg74
Nsg75
Nsg76
Nsg77
Nsg78
Nsssg107
(dp2205
S'tx B-tx A'
p2206
(dp2207
g72
Nsg73
Nsg74
Nsg75
Nsg76
Nsg77
Nsg78
NssS'tx A-tx B'
p2208
(dp2209
g72
Nsg73
Nsg74
Nsg75
Nsg76
Nsg77
Nsg78
Nsssg113
(dp2210
S'tx B-tx A'
p2211
(dp2212
g72
Nsg73
Nsg74
Nsg75
Nsg76
Nsg77
Nsg78
NssS'tx A-tx B'
p2213
(dp2214
g72
Nsg73
Nsg74
Nsg75
Nsg76
Nsg77
Nsg78
Nsssg119
(dp2215
g51
(dp2216
g72
Nsg73
Nsg74
Nsg75
Nsg76
Nsg77
Nsg78
Nssg57
(dp2217
g72
Nsg73
Nsg74
Nsg75
Nsg76
Nsg77
Nsg78
Nsssg123
(dp2218
g51
(dp2219
g72
Nsg73
Nsg74
Nsg75
Nsg76
Nsg77
Nsg78
Nssg57
(dp2220
g72
Nsg73
Nsg74
Nsg75
Nsg76
Nsg77
Nsg78
Nsssg127
(dp2221
g51
(dp2222
g72
Nsg73
Nsg74
Nsg75
Nsg76
Nsg77
Nsg78
Nssg57
(dp2223
g72
Nsg73
Nsg74
Nsg75
Nsg76
Nsg77
Nsg78
Nsssg131
(dp2224
S'tx B-tx A'
p2225
(dp2226
g72
Nsg73
Nsg74
Nsg75
Nsg76
Nsg77
Nsg78
NssS'tx A-tx B'
p2227
(dp2228
g72
F0.30861037825175408
sg73
F-1.2296477480020416
sg74
F-0.46051868487514369
sg75
F1.3615317847519925
sg76
F0.63095629313177792
sg77
F0.29239555646151172
sg78
Nssssg137
I2
sbsssg138
I00
sg139
I1988
sg140
(lp2229
g62
asg56
I29
sba(ima_dataset
Study
p2230
(dp2231
g29
I01
sg30
VRaizner
p2232
sg32
(dp2233
g34
g35
(g36
S'QString'
p2234
(V2
p2235
tp2236
tp2237
Rp2238
sg42
F3.5
ssg18
g19
sg43
Nsg44
(dp2239
g7
(dp2240
g12
(ima_dataset
MetaAnalyticUnit
p2241
(dp2242
g22
I00
sg49
(dp2243
g51
(ima_dataset
TreatmentGroup
p2244
(dp2245
g54
(lp2246
F4.0
aF29.0
asg56
I0
sg30
g51
sbsg57
(ima_dataset
TreatmentGroup
p2247
(dp2248
g54
(lp2249
F2.0
aF35.0
asg56
I1
sg30
g57
sbssg61
g62
sg66
(dp2250
g68
(dp2251
S'tx B-tx A'
p2252
(dp2253
g72
Nsg73
Nsg74
Nsg75
Nsg76
Nsg77
Nsg78
NssS'tx A-tx B'
p2254
(dp2255
g72
Nsg73
Nsg74
Nsg75
Nsg76
Nsg77
Nsg78
Nsssg81
(dp2256
g51
(dp2257
g72
Nsg73
Nsg74
Nsg75
Nsg76
Nsg77
Nsg78
Nssg57
(dp2258
g72
Nsg73
Nsg74
Nsg75
Nsg76
Nsg77
Nsg78
Nsssg85
(dp2259
g51
(dp2260
g72
Nsg73
Nsg74
Nsg75
Nsg76
Nsg77
Nsg78
Nssg57
(dp2261
g72
Nsg73
Nsg74
Nsg75
Nsg76
Nsg77
Nsg78
Nsssg89
(dp2262
S'tx B-tx A'
p2263
(dp2264
g72
Nsg73
Nsg74
Nsg75
Nsg76
Nsg77
Nsg78
NssS'tx A-tx B'
p2265
(dp2266
g72
Nsg73
Nsg74
Nsg75
Nsg76
Nsg77
Nsg78
Nsssg95
(dp2267
S'tx B-tx A'
p2268
(dp2269
g72
Nsg73
Nsg74
Nsg75
Nsg76
Nsg77
Nsg78
NssS'tx A-tx B'
p2270
(dp2271
g72
Nsg73
Nsg74
Nsg75
Nsg76
Nsg77
Nsg78
Nsssg101
(dp2272
S'tx B-tx A'
p2273
(dp2274
g72
Nsg73
Nsg74
Nsg75
Nsg76
Nsg77
Nsg78
NssS'tx A-tx B'
p2275
(dp2276
g72
Nsg73
Nsg74
Nsg75
Nsg76
Nsg77
Nsg78
Nsssg107
(dp2277
S'tx B-tx A'
p2278
(dp2279
g72
Nsg73
Nsg74
Nsg75
Nsg76
Nsg77
Nsg78
NssS'tx A-tx B'
p2280
(dp2281
g72
Nsg73
Nsg74
Nsg75
Nsg76
Nsg77
Nsg78
Nsssg113
(dp2282
S'tx B-tx A'
p2283
(dp2284
g72
Nsg73
Nsg74
Nsg75
Nsg76
Nsg77
Nsg78
NssS'tx A-tx B'
p2285
(dp2286
g72
Nsg73
Nsg74
Nsg75
Nsg76
Nsg77
Nsg78
Nsssg119
(dp2287
g51
(dp2288
g72
Nsg73
Nsg74
Nsg75
Nsg76
Nsg77
Nsg78
Nssg57
(dp2289
g72
Nsg73
Nsg74
Nsg75
Nsg76
Nsg77
Nsg78
Nsssg123
(dp2290
g51
(dp2291
g72
Nsg73
Nsg74
Nsg75
Nsg76
Nsg77
Nsg78
Nssg57
(dp2292
g72
Nsg73
Nsg74
Nsg75
Nsg76
Nsg77
Nsg78
Nsssg127
(dp2293
g51
(dp2294
g72
Nsg73
Nsg74
Nsg75
Nsg76
Nsg77
Nsg78
Nssg57
(dp2295
g72
Nsg73
Nsg74
Nsg75
Nsg76
Nsg77
Nsg78
Nsssg131
(dp2296
S'tx B-tx A'
p2297
(dp2298
g72
Nsg73
Nsg74
Nsg75
Nsg76
Nsg77
Nsg78
NssS'tx A-tx B'
p2299
(dp2300
g72
F2.7459297026972154
sg73
F-0.80437186838076591
sg74
F0.97077891715822462
sg75
F15.579091124438007
sg76
F2.6399999999999997
sg77
F0.44736884484019718
sg78
Nssssg137
I2
sbsssg138
I00
sg139
I1985
sg140
(lp2301
g62
asg56
I30
sba(ima_dataset
Study
p2302
(dp2303
g29
I01
sg30
VBett
p2304
sg32
(dp2305
g34
g35
(g36
S'QString'
p2306
(V2
p2307
tp2308
tp2309
Rp2310
sg42
F3.5
ssg18
g19
sg43
Nsg44
(dp2311
g7
(dp2312
g12
(ima_dataset
MetaAnalyticUnit
p2313
(dp2314
g22
I00
sg49
(dp2315
g51
(ima_dataset
TreatmentGroup
p2316
(dp2317
g54
(lp2318
F1.0
aF34.0
asg56
I0
sg30
g51
sbsg57
(ima_dataset
TreatmentGroup
p2319
(dp2320
g54
(lp2321
F5.0
aF35.0
asg56
I1
sg30
g57
sbssg61
g62
sg66
(dp2322
g68
(dp2323
S'tx B-tx A'
p2324
(dp2325
g72
Nsg73
Nsg74
Nsg75
Nsg76
Nsg77
Nsg78
NssS'tx A-tx B'
p2326
(dp2327
g72
Nsg73
Nsg74
Nsg75
Nsg76
Nsg77
Nsg78
Nsssg81
(dp2328
g51
(dp2329
g72
Nsg73
Nsg74
Nsg75
Nsg76
Nsg77
Nsg78
Nssg57
(dp2330
g72
Nsg73
Nsg74
Nsg75
Nsg76
Nsg77
Nsg78
Nsssg85
(dp2331
g51
(dp2332
g72
Nsg73
Nsg74
Nsg75
Nsg76
Nsg77
Nsg78
Nssg57
(dp2333
g72
Nsg73
Nsg74
Nsg75
Nsg76
Nsg77
Nsg78
Nsssg89
(dp2334
S'tx B-tx A'
p2335
(dp2336
g72
Nsg73
Nsg74
Nsg75
Nsg76
Nsg77
Nsg78
NssS'tx A-tx B'
p2337
(dp2338
g72
Nsg73
Nsg74
Nsg75
Nsg76
Nsg77
Nsg78
Nsssg95
(dp2339
S'tx B-tx A'
p2340
(dp2341
g72
Nsg73
Nsg74
Nsg75
Nsg76
Nsg77
Nsg78
NssS'tx A-tx B'
p2342
(dp2343
g72
Nsg73
Nsg74
Nsg75
Nsg76
Nsg77
Nsg78
Nsssg101
(dp2344
S'tx B-tx A'
p2345
(dp2346
g72
Nsg73
Nsg74
Nsg75
Nsg76
Nsg77
Nsg78
NssS'tx A-tx B'
p2347
(dp2348
g72
Nsg73
Nsg74
Nsg75
Nsg76
Nsg77
Nsg78
Nsssg107
(dp2349
S'tx B-tx A'
p2350
(dp2351
g72
Nsg73
Nsg74
Nsg75
Nsg76
Nsg77
Nsg78
NssS'tx A-tx B'
p2352
(dp2353
g72
Nsg73
Nsg74
Nsg75
Nsg76
Nsg77
Nsg78
Nsssg113
(dp2354
S'tx B-tx A'
p2355
(dp2356
g72
Nsg73
Nsg74
Nsg75
Nsg76
Nsg77
Nsg78
NssS'tx A-tx B'
p2357
(dp2358
g72
Nsg73
Nsg74
Nsg75
Nsg76
Nsg77
Nsg78
Nsssg119
(dp2359
g51
(dp2360
g72
Nsg73
Nsg74
Nsg75
Nsg76
Nsg77
Nsg78
Nssg57
(dp2361
g72
Nsg73
Nsg74
Nsg75
Nsg76
Nsg77
Nsg78
Nsssg123
(dp2362
g51
(dp2363
g72
Nsg73
Nsg74
Nsg75
Nsg76
Nsg77
Nsg78
Nssg57
(dp2364
g72
Nsg73
Nsg74
Nsg75
Nsg76
Nsg77
Nsg78
Nsssg127
(dp2365
g51
(dp2366
g72
Nsg73
Nsg74
Nsg75
Nsg76
Nsg77
Nsg78
Nssg57
(dp2367
g72
Nsg73
Nsg74
Nsg75
Nsg76
Nsg77
Nsg78
Nsssg131
(dp2368
S'tx B-tx A'
p2369
(dp2370
g72
Nsg73
Nsg74
Nsg75
Nsg76
Nsg77
Nsg78
NssS'tx A-tx B'
p2371
(dp2372
g72
F0.4984784179599151
sg73
F-3.9079746024367656
sg74
F-1.7047480922384253
sg75
F1.6462145136274347
sg76
F0.18181818181818182
sg77
F0.020081132176891347
sg78
Nssssg137
I2
sbsssg138
I00
sg139
I1973
sg140
(lp2373
g62
asg56
I31
sba(ima_dataset
Study
p2374
(dp2375
g29
I01
sg30
VTopol
p2376
sg32
(dp2377
g34
g35
(g36
S'QString'
p2378
(V2
p2379
tp2380
tp2381
Rp2382
sg42
F3.6000000000000001
ssg18
g19
sg43
Nsg44
(dp2383
g7
(dp2384
g12
(ima_dataset
MetaAnalyticUnit
p2385
(dp2386
g22
I00
sg49
(dp2387
g51
(ima_dataset
TreatmentGroup
p2388
(dp2389
g54
(lp2390
F3.0
aF75.0
asg56
I0
sg30
g51
sbsg57
(ima_dataset
TreatmentGroup
p2391
(dp2392
g54
(lp2393
F2.0
aF25.0
asg56
I1
sg30
g57
sbssg61
g62
sg66
(dp2394
g68
(dp2395
S'tx B-tx A'
p2396
(dp2397
g72
Nsg73
Nsg74
Nsg75
Nsg76
Nsg77
Nsg78
NssS'tx A-tx B'
p2398
(dp2399
g72
Nsg73
Nsg74
Nsg75
Nsg76
Nsg77
Nsg78
Nsssg81
(dp2400
g51
(dp2401
g72
Nsg73
Nsg74
Nsg75
Nsg76
Nsg77
Nsg78
Nssg57
(dp2402
g72
Nsg73
Nsg74
Nsg75
Nsg76
Nsg77
Nsg78
Nsssg85
(dp2403
g51
(dp2404
g72
Nsg73
Nsg74
Nsg75
Nsg76
Nsg77
Nsg78
Nssg57
(dp2405
g72
Nsg73
Nsg74
Nsg75
Nsg76
Nsg77
Nsg78
Nsssg89
(dp2406
S'tx B-tx A'
p2407
(dp2408
g72
Nsg73
Nsg74
Nsg75
Nsg76
Nsg77
Nsg78
NssS'tx A-tx B'
p2409
(dp2410
g72
Nsg73
Nsg74
Nsg75
Nsg76
Nsg77
Nsg78
Nsssg95
(dp2411
S'tx B-tx A'
p2412
(dp2413
g72
Nsg73
Nsg74
Nsg75
Nsg76
Nsg77
Nsg78
NssS'tx A-tx B'
p2414
(dp2415
g72
Nsg73
Nsg74
Nsg75
Nsg76
Nsg77
Nsg78
Nsssg101
(dp2416
S'tx B-tx A'
p2417
(dp2418
g72
Nsg73
Nsg74
Nsg75
Nsg76
Nsg77
Nsg78
NssS'tx A-tx B'
p2419
(dp2420
g72
Nsg73
Nsg74
Nsg75
Nsg76
Nsg77
Nsg78
Nsssg107
(dp2421
S'tx B-tx A'
p2422
(dp2423
g72
Nsg73
Nsg74
Nsg75
Nsg76
Nsg77
Nsg78
NssS'tx A-tx B'
p2424
(dp2425
g72
Nsg73
Nsg74
Nsg75
Nsg76
Nsg77
Nsg78
Nsssg113
(dp2426
S'tx B-tx A'
p2427
(dp2428
g72
Nsg73
Nsg74
Nsg75
Nsg76
Nsg77
Nsg78
NssS'tx A-tx B'
p2429
(dp2430
g72
Nsg73
Nsg74
Nsg75
Nsg76
Nsg77
Nsg78
Nsssg119
(dp2431
g51
(dp2432
g72
Nsg73
Nsg74
Nsg75
Nsg76
Nsg77
Nsg78
Nssg57
(dp2433
g72
Nsg73
Nsg74
Nsg75
Nsg76
Nsg77
Nsg78
Nsssg123
(dp2434
g51
(dp2435
g72
Nsg73
Nsg74
Nsg75
Nsg76
Nsg77
Nsg78
Nssg57
(dp2436
g72
Nsg73
Nsg74
Nsg75
Nsg76
Nsg77
Nsg78
Nsssg127
(dp2437
g51
(dp2438
g72
Nsg73
Nsg74
Nsg75
Nsg76
Nsg77
Nsg78
Nssg57
(dp2439
g72
Nsg73
Nsg74
Nsg75
Nsg76
Nsg77
Nsg78
Nsssg131
(dp2440
S'tx B-tx A'
p2441
(dp2442
g72
Nsg73
Nsg74
Nsg75
Nsg76
Nsg77
Nsg78
NssS'tx A-tx B'
p2443
(dp2444
g72
F1.1140470338778081
sg73
F-2.5854606238352904
sg74
F-0.73570679497874103
sg75
F3.0466634283050253
sg76
F0.47916666666666674
sg77
F0.075361358367103934
sg78
Nssssg137
I2
sbsssg138
I00
sg139
I1987
sg140
(lp2445
g62
asg56
I32
sba(ima_dataset
Study
p2446
(dp2447
g29
I01
sg30
VLeiboff
p2448
sg32
(dp2449
g34
g35
(g36
S'QString'
p2450
(V2
p2451
tp2452
tp2453
Rp2454
sg42
F4.0
ssg18
g19
sg43
Nsg44
(dp2455
g7
(dp2456
g12
(ima_dataset
MetaAnalyticUnit
p2457
(dp2458
g22
I00
sg49
(dp2459
g51
(ima_dataset
TreatmentGroup
p2460
(dp2461
g54
(lp2462
F4.0
aF22.0
asg56
I0
sg30
g51
sbsg57
(ima_dataset
TreatmentGroup
p2463
(dp2464
g54
(lp2465
F2.0
aF18.0
asg56
I1
sg30
g57
sbssg61
g62
sg66
(dp2466
g68
(dp2467
S'tx B-tx A'
p2468
(dp2469
g72
Nsg73
Nsg74
Nsg75
Nsg76
Nsg77
Nsg78
NssS'tx A-tx B'
p2470
(dp2471
g72
Nsg73
Nsg74
Nsg75
Nsg76
Nsg77
Nsg78
Nsssg81
(dp2472
g51
(dp2473
g72
Nsg73
Nsg74
Nsg75
Nsg76
Nsg77
Nsg78
Nssg57
(dp2474
g72
Nsg73
Nsg74
Nsg75
Nsg76
Nsg77
Nsg78
Nsssg85
(dp2475
g51
(dp2476
g72
Nsg73
Nsg74
Nsg75
Nsg76
Nsg77
Nsg78
Nssg57
(dp2477
g72
Nsg73
Nsg74
Nsg75
Nsg76
Nsg77
Nsg78
Nsssg89
(dp2478
S'tx B-tx A'
p2479
(dp2480
g72
Nsg73
Nsg74
Nsg75
Nsg76
Nsg77
Nsg78
NssS'tx A-tx B'
p2481
(dp2482
g72
Nsg73
Nsg74
Nsg75
Nsg76
Nsg77
Nsg78
Nsssg95
(dp2483
S'tx B-tx A'
p2484
(dp2485
g72
Nsg73
Nsg74
Nsg75
Nsg76
Nsg77
Nsg78
NssS'tx A-tx B'
p2486
(dp2487
g72
Nsg73
Nsg74
Nsg75
Nsg76
Nsg77
Nsg78
Nsssg101
(dp2488
S'tx B-tx A'
p2489
(dp2490
g72
Nsg73
Nsg74
Nsg75
Nsg76
Nsg77
Nsg78
NssS'tx A-tx B'
p2491
(dp2492
g72
Nsg73
Nsg74
Nsg75
Nsg76
Nsg77
Nsg78
Nsssg107
(dp2493
S'tx B-tx A'
p2494
(dp2495
g72
Nsg73
Nsg74
Nsg75
Nsg76
Nsg77
Nsg78
NssS'tx A-tx B'
p2496
(dp2497
g72
Nsg73
Nsg74
Nsg75
Nsg76
Nsg77
Nsg78
Nsssg113
(dp2498
S'tx B-tx A'
p2499
(dp2500
g72
Nsg73
Nsg74
Nsg75
Nsg76
Nsg77
Nsg78
NssS'tx A-tx B'
p2501
(dp2502
g72
Nsg73
Nsg74
Nsg75
Nsg76
Nsg77
Nsg78
Nsssg119
(dp2503
g51
(dp2504
g72
Nsg73
Nsg74
Nsg75
Nsg76
Nsg77
Nsg78
Nssg57
(dp2505
g72
Nsg73
Nsg74
Nsg75
Nsg76
Nsg77
Nsg78
Nsssg123
(dp2506
g51
(dp2507
g72
Nsg73
Nsg74
Nsg75
Nsg76
Nsg77
Nsg78
Nssg57
(dp2508
g72
Nsg73
Nsg74
Nsg75
Nsg76
Nsg77
Nsg78
Nsssg127
(dp2509
g51
(dp2510
g72
Nsg73
Nsg74
Nsg75
Nsg76
Nsg77
Nsg78
Nssg57
(dp2511
g72
Nsg73
Nsg74
Nsg75
Nsg76
Nsg77
Nsg78
Nsssg131
(dp2512
S'tx B-tx A'
p2513
(dp2514
g72
Nsg73
Nsg74
Nsg75
Nsg76
Nsg77
Nsg78
NssS'tx A-tx B'
p2515
(dp2516
g72
F2.4014527711047728
sg73
F-1.2507244812976492
sg74
F0.5753641449035618
sg75
F11.039202170854093
sg76
F1.7777777777777777
sg77
F0.28629730466436132
sg78
Nssssg137
I2
sbsssg138
I00
sg139
I1984
sg140
(lp2517
g62
asg56
I33
sba(ima_dataset
Study
p2518
(dp2519
g29
I01
sg30
VECSG-2
p2520
sg32
(dp2521
g34
g35
(g36
S'QString'
p2522
(V2
p2523
tp2524
tp2525
Rp2526
sg42
F4.0
ssg18
g19
sg43
Nsg44
(dp2527
g7
(dp2528
g12
(ima_dataset
MetaAnalyticUnit
p2529
(dp2530
g22
I00
sg49
(dp2531
g51
(ima_dataset
TreatmentGroup
p2532
(dp2533
g54
(lp2534
F8.0
aF176.0
asg56
I0
sg30
g51
sbsg57
(ima_dataset
TreatmentGroup
p2535
(dp2536
g54
(lp2537
F8.0
aF159.0
asg56
I1
sg30
g57
sbssg61
g62
sg66
(dp2538
g68
(dp2539
S'tx B-tx A'
p2540
(dp2541
g72
Nsg73
Nsg74
Nsg75
Nsg76
Nsg77
Nsg78
NssS'tx A-tx B'
p2542
(dp2543
g72
Nsg73
Nsg74
Nsg75
Nsg76
Nsg77
Nsg78
Nsssg81
(dp2544
g51
(dp2545
g72
Nsg73
Nsg74
Nsg75
Nsg76
Nsg77
Nsg78
Nssg57
(dp2546
g72
Nsg73
Nsg74
Nsg75
Nsg76
Nsg77
Nsg78
Nsssg85
(dp2547
g51
(dp2548
g72
Nsg73
Nsg74
Nsg75
Nsg76
Nsg77
Nsg78
Nssg57
(dp2549
g72
Nsg73
Nsg74
Nsg75
Nsg76
Nsg77
Nsg78
Nsssg89
(dp2550
S'tx B-tx A'
p2551
(dp2552
g72
Nsg73
Nsg74
Nsg75
Nsg76
Nsg77
Nsg78
NssS'tx A-tx B'
p2553
(dp2554
g72
Nsg73
Nsg74
Nsg75
Nsg76
Nsg77
Nsg78
Nsssg95
(dp2555
S'tx B-tx A'
p2556
(dp2557
g72
Nsg73
Nsg74
Nsg75
Nsg76
Nsg77
Nsg78
NssS'tx A-tx B'
p2558
(dp2559
g72
Nsg73
Nsg74
Nsg75
Nsg76
Nsg77
Nsg78
Nsssg101
(dp2560
S'tx B-tx A'
p2561
(dp2562
g72
Nsg73
Nsg74
Nsg75
Nsg76
Nsg77
Nsg78
NssS'tx A-tx B'
p2563
(dp2564
g72
Nsg73
Nsg74
Nsg75
Nsg76
Nsg77
Nsg78
Nsssg107
(dp2565
S'tx B-tx A'
p2566
(dp2567
g72
Nsg73
Nsg74
Nsg75
Nsg76
Nsg77
Nsg78
NssS'tx A-tx B'
p2568
(dp2569
g72
Nsg73
Nsg74
Nsg75
Nsg76
Nsg77
Nsg78
Nsssg113
(dp2570
S'tx B-tx A'
p2571
(dp2572
g72
Nsg73
Nsg74
Nsg75
Nsg76
Nsg77
Nsg78
NssS'tx A-tx B'
p2573
(dp2574
g72
Nsg73
Nsg74
Nsg75
Nsg76
Nsg77
Nsg78
Nsssg119
(dp2575
g51
(dp2576
g72
Nsg73
Nsg74
Nsg75
Nsg76
Nsg77
Nsg78
Nssg57
(dp2577
g72
Nsg73
Nsg74
Nsg75
Nsg76
Nsg77
Nsg78
Nsssg123
(dp2578
g51
(dp2579
g72
Nsg73
Nsg74
Nsg75
Nsg76
Nsg77
Nsg78
Nssg57
(dp2580
g72
Nsg73
Nsg74
Nsg75
Nsg76
Nsg77
Nsg78
Nsssg127
(dp2581
g51
(dp2582
g72
Nsg73
Nsg74
Nsg75
Nsg76
Nsg77
Nsg78
Nssg57
(dp2583
g72
Nsg73
Nsg74
Nsg75
Nsg76
Nsg77
Nsg78
Nsssg131
(dp2584
S'tx B-tx A'
p2585
(dp2586
g72
Nsg73
Nsg74
Nsg75
Nsg76
Nsg77
Nsg78
NssS'tx A-tx B'
p2587
(dp2588
g72
F0.89764182846267082
sg73
F-1.1110101136393398
sg74
F-0.10668414258833447
sg75
F2.4538097786277451
sg76
F0.89880952380952395
sg77
F0.32922623714642035
sg78
Nssssg137
I2
sbsssg138
I00
sg139
I1988
sg140
(lp2589
g62
asg56
I34
sba(ima_dataset
Study
p2590
(dp2591
g29
I01
sg30
VASSET
p2592
sg32
(dp2593
g34
g35
(g36
S'QString'
p2594
(V2
p2595
tp2596
tp2597
Rp2598
sg42
F4.0999999999999996
ssg18
g19
sg43
Nsg44
(dp2599
g7
(dp2600
g12
(ima_dataset
MetaAnalyticUnit
p2601
(dp2602
g22
I00
sg49
(dp2603
g51
(ima_dataset
TreatmentGroup
p2604
(dp2605
g54
(lp2606
F99.0
aF1504.0
asg56
I0
sg30
g51
sbsg57
(ima_dataset
TreatmentGroup
p2607
(dp2608
g54
(lp2609
F129.0
aF1488.0
asg56
I1
sg30
g57
sbssg61
g62
sg66
(dp2610
g68
(dp2611
S'tx B-tx A'
p2612
(dp2613
g72
Nsg73
Nsg74
Nsg75
Nsg76
Nsg77
Nsg78
NssS'tx A-tx B'
p2614
(dp2615
g72
Nsg73
Nsg74
Nsg75
Nsg76
Nsg77
Nsg78
Nsssg81
(dp2616
g51
(dp2617
g72
Nsg73
Nsg74
Nsg75
Nsg76
Nsg77
Nsg78
Nssg57
(dp2618
g72
Nsg73
Nsg74
Nsg75
Nsg76
Nsg77
Nsg78
Nsssg85
(dp2619
g51
(dp2620
g72
Nsg73
Nsg74
Nsg75
Nsg76
Nsg77
Nsg78
Nssg57
(dp2621
g72
Nsg73
Nsg74
Nsg75
Nsg76
Nsg77
Nsg78
Nsssg89
(dp2622
S'tx B-tx A'
p2623
(dp2624
g72
Nsg73
Nsg74
Nsg75
Nsg76
Nsg77
Nsg78
NssS'tx A-tx B'
p2625
(dp2626
g72
Nsg73
Nsg74
Nsg75
Nsg76
Nsg77
Nsg78
Nsssg95
(dp2627
S'tx B-tx A'
p2628
(dp2629
g72
Nsg73
Nsg74
Nsg75
Nsg76
Nsg77
Nsg78
NssS'tx A-tx B'
p2630
(dp2631
g72
Nsg73
Nsg74
Nsg75
Nsg76
Nsg77
Nsg78
Nsssg101
(dp2632
S'tx B-tx A'
p2633
(dp2634
g72
Nsg73
Nsg74
Nsg75
Nsg76
Nsg77
Nsg78
NssS'tx A-tx B'
p2635
(dp2636
g72
Nsg73
Nsg74
Nsg75
Nsg76
Nsg77
Nsg78
Nsssg107
(dp2637
S'tx B-tx A'
p2638
(dp2639
g72
Nsg73
Nsg74
Nsg75
Nsg76
Nsg77
Nsg78
NssS'tx A-tx B'
p2640
(dp2641
g72
Nsg73
Nsg74
Nsg75
Nsg76
Nsg77
Nsg78
Nsssg113
(dp2642
S'tx B-tx A'
p2643
(dp2644
g72
Nsg73
Nsg74
Nsg75
Nsg76
Nsg77
Nsg78
NssS'tx A-tx B'
p2645
(dp2646
g72
Nsg73
Nsg74
Nsg75
Nsg76
Nsg77
Nsg78
Nsssg119
(dp2647
g51
(dp2648
g72
Nsg73
Nsg74
Nsg75
Nsg76
Nsg77
Nsg78
Nssg57
(dp2649
g72
Nsg73
Nsg74
Nsg75
Nsg76
Nsg77
Nsg78
Nsssg123
(dp2650
g51
(dp2651
g72
Nsg73
Nsg74
Nsg75
Nsg76
Nsg77
Nsg78
Nssg57
(dp2652
g72
Nsg73
Nsg74
Nsg75
Nsg76
Nsg77
Nsg78
Nsssg127
(dp2653
g51
(dp2654
g72
Nsg73
Nsg74
Nsg75
Nsg76
Nsg77
Nsg78
Nssg57
(dp2655
g72
Nsg73
Nsg74
Nsg75
Nsg76
Nsg77
Nsg78
Nsssg131
(dp2656
S'tx B-tx A'
p2657
(dp2658
g72
Nsg73
Nsg74
Nsg75
Nsg76
Nsg77
Nsg78
NssS'tx A-tx B'
p2659
(dp2660
g72
F-0.025690105395089036
sg73
F-0.57027133829248022
sg74
F-0.29798072184378466
sg75
F0.97463707758620022
sg76
F0.74231565008689893
sg77
F0.56537201080901844
sg78
Nssssg137
I2
sbsssg138
I00
sg139
I1988
sg140
(lp2661
g62
asg56
I35
sba(ima_dataset
Study
p2662
(dp2663
g29
I01
sg30
VRentrop
p2664
sg32
(dp2665
g34
g35
(g36
S'QString'
p2666
(V2
p2667
tp2668
tp2669
Rp2670
sg42
F4.0999999999999996
ssg18
g19
sg43
Nsg44
(dp2671
g7
(dp2672
g12
(ima_dataset
MetaAnalyticUnit
p2673
(dp2674
g22
I00
sg49
(dp2675
g51
(ima_dataset
TreatmentGroup
p2676
(dp2677
g54
(lp2678
F13.0
aF63.0
asg56
I0
sg30
g51
sbsg57
(ima_dataset
TreatmentGroup
p2679
(dp2680
g54
(lp2681
F6.0
aF61.0
asg56
I1
sg30
g57
sbssg61
g62
sg66
(dp2682
g68
(dp2683
S'tx B-tx A'
p2684
(dp2685
g72
Nsg73
Nsg74
Nsg75
Nsg76
Nsg77
Nsg78
NssS'tx A-tx B'
p2686
(dp2687
g72
Nsg73
Nsg74
Nsg75
Nsg76
Nsg77
Nsg78
Nsssg81
(dp2688
g51
(dp2689
g72
Nsg73
Nsg74
Nsg75
Nsg76
Nsg77
Nsg78
Nssg57
(dp2690
g72
Nsg73
Nsg74
Nsg75
Nsg76
Nsg77
Nsg78
Nsssg85
(dp2691
g51
(dp2692
g72
Nsg73
Nsg74
Nsg75
Nsg76
Nsg77
Nsg78
Nssg57
(dp2693
g72
Nsg73
Nsg74
Nsg75
Nsg76
Nsg77
Nsg78
Nsssg89
(dp2694
S'tx B-tx A'
p2695
(dp2696
g72
Nsg73
Nsg74
Nsg75
Nsg76
Nsg77
Nsg78
NssS'tx A-tx B'
p2697
(dp2698
g72
Nsg73
Nsg74
Nsg75
Nsg76
Nsg77
Nsg78
Nsssg95
(dp2699
S'tx B-tx A'
p2700
(dp2701
g72
Nsg73
Nsg74
Nsg75
Nsg76
Nsg77
Nsg78
NssS'tx A-tx B'
p2702
(dp2703
g72
Nsg73
Nsg74
Nsg75
Nsg76
Nsg77
Nsg78
Nsssg101
(dp2704
S'tx B-tx A'
p2705
(dp2706
g72
Nsg73
Nsg74
Nsg75
Nsg76
Nsg77
Nsg78
NssS'tx A-tx B'
p2707
(dp2708
g72
Nsg73
Nsg74
Nsg75
Nsg76
Nsg77
Nsg78
Nsssg107
(dp2709
S'tx B-tx A'
p2710
(dp2711
g72
Nsg73
Nsg74
Nsg75
Nsg76
Nsg77
Nsg78
NssS'tx A-tx B'
p2712
(dp2713
g72
Nsg73
Nsg74
Nsg75
Nsg76
Nsg77
Nsg78
Nsssg113
(dp2714
S'tx B-tx A'
p2715
(dp2716
g72
Nsg73
Nsg74
Nsg75
Nsg76
Nsg77
Nsg78
NssS'tx A-tx B'
p2717
(dp2718
g72
Nsg73
Nsg74
Nsg75
Nsg76
Nsg77
Nsg78
Nsssg119
(dp2719
g51
(dp2720
g72
Nsg73
Nsg74
Nsg75
Nsg76
Nsg77
Nsg78
Nssg57
(dp2721
g72
Nsg73
Nsg74
Nsg75
Nsg76
Nsg77
Nsg78
Nsssg123
(dp2722
g51
(dp2723
g72
Nsg73
Nsg74
Nsg75
Nsg76
Nsg77
Nsg78
Nssg57
(dp2724
g72
Nsg73
Nsg74
Nsg75
Nsg76
Nsg77
Nsg78
Nsssg127
(dp2725
g51
(dp2726
g72
Nsg73
Nsg74
Nsg75
Nsg76
Nsg77
Nsg78
Nssg57
(dp2727
g72
Nsg73
Nsg74
Nsg75
Nsg76
Nsg77
Nsg78
Nsssg131
(dp2728
S'tx B-tx A'
p2729
(dp2730
g72
Nsg73
Nsg74
Nsg75
Nsg76
Nsg77
Nsg78
NssS'tx A-tx B'
p2731
(dp2732
g72
F1.9088912691675184
sg73
F-0.17189113309190573
sg74
F0.86850006803780633
sg75
F6.7456055899644829
sg76
F2.3833333333333329
sg77
F0.84207084182751368
sg78
Nssssg137
I2
sbsssg138
I00
sg139
I1984
sg140
(lp2733
g62
asg56
I36
sba(ima_dataset
Study
p2734
(dp2735
g29
I01
sg30
VECSG-1
p2736
sg32
(dp2737
g34
g35
(g36
S'QString'
p2738
(V2
p2739
tp2740
tp2741
Rp2742
sg42
F4.5
ssg18
g19
sg43
Nsg44
(dp2743
g7
(dp2744
g12
(ima_dataset
MetaAnalyticUnit
p2745
(dp2746
g22
I00
sg49
(dp2747
g51
(ima_dataset
TreatmentGroup
p2748
(dp2749
g54
(lp2750
F9.0
aF49.0
asg56
I0
sg30
g51
sbsg57
(ima_dataset
TreatmentGroup
p2751
(dp2752
g54
(lp2753
F14.0
aF48.0
asg56
I1
sg30
g57
sbssg61
g62
sg66
(dp2754
g68
(dp2755
S'tx B-tx A'
p2756
(dp2757
g72
Nsg73
Nsg74
Nsg75
Nsg76
Nsg77
Nsg78
NssS'tx A-tx B'
p2758
(dp2759
g72
Nsg73
Nsg74
Nsg75
Nsg76
Nsg77
Nsg78
Nsssg81
(dp2760
g51
(dp2761
g72
Nsg73
Nsg74
Nsg75
Nsg76
Nsg77
Nsg78
Nssg57
(dp2762
g72
Nsg73
Nsg74
Nsg75
Nsg76
Nsg77
Nsg78
Nsssg85
(dp2763
g51
(dp2764
g72
Nsg73
Nsg74
Nsg75
Nsg76
Nsg77
Nsg78
Nssg57
(dp2765
g72
Nsg73
Nsg74
Nsg75
Nsg76
Nsg77
Nsg78
Nsssg89
(dp2766
S'tx B-tx A'
p2767
(dp2768
g72
Nsg73
Nsg74
Nsg75
Nsg76
Nsg77
Nsg78
NssS'tx A-tx B'
p2769
(dp2770
g72
Nsg73
Nsg74
Nsg75
Nsg76
Nsg77
Nsg78
Nsssg95
(dp2771
S'tx B-tx A'
p2772
(dp2773
g72
Nsg73
Nsg74
Nsg75
Nsg76
Nsg77
Nsg78
NssS'tx A-tx B'
p2774
(dp2775
g72
Nsg73
Nsg74
Nsg75
Nsg76
Nsg77
Nsg78
Nsssg101
(dp2776
S'tx B-tx A'
p2777
(dp2778
g72
Nsg73
Nsg74
Nsg75
Nsg76
Nsg77
Nsg78
NssS'tx A-tx B'
p2779
(dp2780
g72
Nsg73
Nsg74
Nsg75
Nsg76
Nsg77
Nsg78
Nsssg107
(dp2781
S'tx B-tx A'
p2782
(dp2783
g72
Nsg73
Nsg74
Nsg75
Nsg76
Nsg77
Nsg78
NssS'tx A-tx B'
p2784
(dp2785
g72
Nsg73
Nsg74
Nsg75
Nsg76
Nsg77
Nsg78
Nsssg113
(dp2786
S'tx B-tx A'
p2787
(dp2788
g72
Nsg73
Nsg74
Nsg75
Nsg76
Nsg77
Nsg78
NssS'tx A-tx B'
p2789
(dp2790
g72
Nsg73
Nsg74
Nsg75
Nsg76
Nsg77
Nsg78
Nsssg119
(dp2791
g51
(dp2792
g72
Nsg73
Nsg74
Nsg75
Nsg76
Nsg77
Nsg78
Nssg57
(dp2793
g72
Nsg73
Nsg74
Nsg75
Nsg76
Nsg77
Nsg78
Nsssg123
(dp2794
g51
(dp2795
g72
Nsg73
Nsg74
Nsg75
Nsg76
Nsg77
Nsg78
Nssg57
(dp2796
g72
Nsg73
Nsg74
Nsg75
Nsg76
Nsg77
Nsg78
Nsssg127
(dp2797
g51
(dp2798
g72
Nsg73
Nsg74
Nsg75
Nsg76
Nsg77
Nsg78
Nssg57
(dp2799
g72
Nsg73
Nsg74
Nsg75
Nsg76
Nsg77
Nsg78
Nsssg131
(dp2800
S'tx B-tx A'
p2801
(dp2802
g72
Nsg73
Nsg74
Nsg75
Nsg76
Nsg77
Nsg78
NssS'tx A-tx B'
p2803
(dp2804
g72
F0.34971290046996073
sg73
F-1.5584162640235895
sg74
F-0.60435168177681431
sg75
F1.4186601934454959
sg76
F0.54642857142857137
sg77
F0.21046913492955541
sg78
Nssssg137
I2
sbsssg138
I00
sg139
I1979
sg140
(lp2805
g62
asg56
I37
sba(ima_dataset
Study
p2806
(dp2807
g29
I01
sg30
VEWP
p2808
sg32
(dp2809
g34
g35
(g36
S'QString'
p2810
(V2
p2811
tp2812
tp2813
Rp2814
sg42
F4.5
ssg18
g19
sg43
Nsg44
(dp2815
g7
(dp2816
g12
(ima_dataset
MetaAnalyticUnit
p2817
(dp2818
g22
I00
sg49
(dp2819
g51
(ima_dataset
TreatmentGroup
p2820
(dp2821
g54
(lp2822
F20.0
aF99.0
asg56
I0
sg30
g51
sbsg57
(ima_dataset
TreatmentGroup
p2823
(dp2824
g54
(lp2825
F26.0
aF95.0
asg56
I1
sg30
g57
sbssg61
g62
sg66
(dp2826
g68
(dp2827
S'tx B-tx A'
p2828
(dp2829
g72
Nsg73
Nsg74
Nsg75
Nsg76
Nsg77
Nsg78
NssS'tx A-tx B'
p2830
(dp2831
g72
Nsg73
Nsg74
Nsg75
Nsg76
Nsg77
Nsg78
Nsssg81
(dp2832
g51
(dp2833
g72
Nsg73
Nsg74
Nsg75
Nsg76
Nsg77
Nsg78
Nssg57
(dp2834
g72
Nsg73
Nsg74
Nsg75
Nsg76
Nsg77
Nsg78
Nsssg85
(dp2835
g51
(dp2836
g72
Nsg73
Nsg74
Nsg75
Nsg76
Nsg77
Nsg78
Nssg57
(dp2837
g72
Nsg73
Nsg74
Nsg75
Nsg76
Nsg77
Nsg78
Nsssg89
(dp2838
S'tx B-tx A'
p2839
(dp2840
g72
Nsg73
Nsg74
Nsg75
Nsg76
Nsg77
Nsg78
NssS'tx A-tx B'
p2841
(dp2842
g72
Nsg73
Nsg74
Nsg75
Nsg76
Nsg77
Nsg78
Nsssg95
(dp2843
S'tx B-tx A'
p2844
(dp2845
g72
Nsg73
Nsg74
Nsg75
Nsg76
Nsg77
Nsg78
NssS'tx A-tx B'
p2846
(dp2847
g72
Nsg73
Nsg74
Nsg75
Nsg76
Nsg77
Nsg78
Nsssg101
(dp2848
S'tx B-tx A'
p2849
(dp2850
g72
Nsg73
Nsg74
Nsg75
Nsg76
Nsg77
Nsg78
NssS'tx A-tx B'
p2851
(dp2852
g72
Nsg73
Nsg74
Nsg75
Nsg76
Nsg77
Nsg78
Nsssg107
(dp2853
S'tx B-tx A'
p2854
(dp2855
g72
Nsg73
Nsg74
Nsg75
Nsg76
Nsg77
Nsg78
NssS'tx A-tx B'
p2856
(dp2857
g72
Nsg73
Nsg74
Nsg75
Nsg76
Nsg77
Nsg78
Nsssg113
(dp2858
S'tx B-tx A'
p2859
(dp2860
g72
Nsg73
Nsg74
Nsg75
Nsg76
Nsg77
Nsg78
NssS'tx A-tx B'
p2861
(dp2862
g72
Nsg73
Nsg74
Nsg75
Nsg76
Nsg77
Nsg78
Nsssg119
(dp2863
g51
(dp2864
g72
Nsg73
Nsg74
Nsg75
Nsg76
Nsg77
Nsg78
Nssg57
(dp2865
g72
Nsg73
Nsg74
Nsg75
Nsg76
Nsg77
Nsg78
Nsssg123
(dp2866
g51
(dp2867
g72
Nsg73
Nsg74
Nsg75
Nsg76
Nsg77
Nsg78
Nssg57
(dp2868
g72
Nsg73
Nsg74
Nsg75
Nsg76
Nsg77
Nsg78
Nsssg127
(dp2869
g51
(dp2870
g72
Nsg73
Nsg74
Nsg75
Nsg76
Nsg77
Nsg78
Nssg57
(dp2871
g72
Nsg73
Nsg74
Nsg75
Nsg76
Nsg77
Nsg78
Nsssg131
(dp2872
S'tx B-tx A'
p2873
(dp2874
g72
Nsg73
Nsg74
Nsg75
Nsg76
Nsg77
Nsg78
NssS'tx A-tx B'
p2875
(dp2876
g72
F0.26871822763145436
sg73
F-1.064129452305961
sg74
F-0.39770561233725332
sg75
F1.3082864501336597
sg76
F0.67185978578383632
sg77
F0.3450280874707416
sg78
Nssssg137
I2
sbsssg138
I00
sg139
I1971
sg140
(lp2877
g62
asg56
I38
sba(ima_dataset
Study
p2878
(dp2879
g29
I01
sg30
VWWICSK
p2880
sg32
(dp2881
g34
g35
(g36
S'QString'
p2882
(V2
p2883
tp2884
tp2885
Rp2886
sg42
F4.5
ssg18
g19
sg43
Nsg44
(dp2887
g7
(dp2888
g12
(ima_dataset
MetaAnalyticUnit
p2889
(dp2890
g22
I00
sg49
(dp2891
g51
(ima_dataset
TreatmentGroup
p2892
(dp2893
g54
(lp2894
F5.0
aF134.0
asg56
I0
sg30
g51
sbsg57
(ima_dataset
TreatmentGroup
p2895
(dp2896
g54
(lp2897
F13.0
aF116.0
asg56
I1
sg30
g57
sbssg61
g62
sg66
(dp2898
g68
(dp2899
S'tx B-tx A'
p2900
(dp2901
g72
Nsg73
Nsg74
Nsg75
Nsg76
Nsg77
Nsg78
NssS'tx A-tx B'
p2902
(dp2903
g72
Nsg73
Nsg74
Nsg75
Nsg76
Nsg77
Nsg78
Nsssg81
(dp2904
g51
(dp2905
g72
Nsg73
Nsg74
Nsg75
Nsg76
Nsg77
Nsg78
Nssg57
(dp2906
g72
Nsg73
Nsg74
Nsg75
Nsg76
Nsg77
Nsg78
Nsssg85
(dp2907
g51
(dp2908
g72
Nsg73
Nsg74
Nsg75
Nsg76
Nsg77
Nsg78
Nssg57
(dp2909
g72
Nsg73
Nsg74
Nsg75
Nsg76
Nsg77
Nsg78
Nsssg89
(dp2910
S'tx B-tx A'
p2911
(dp2912
g72
Nsg73
Nsg74
Nsg75
Nsg76
Nsg77
Nsg78
NssS'tx A-tx B'
p2913
(dp2914
g72
Nsg73
Nsg74
Nsg75
Nsg76
Nsg77
Nsg78
Nsssg95
(dp2915
S'tx B-tx A'
p2916
(dp2917
g72
Nsg73
Nsg74
Nsg75
Nsg76
Nsg77
Nsg78
NssS'tx A-tx B'
p2918
(dp2919
g72
Nsg73
Nsg74
Nsg75
Nsg76
Nsg77
Nsg78
Nsssg101
(dp2920
S'tx B-tx A'
p2921
(dp2922
g72
Nsg73
Nsg74
Nsg75
Nsg76
Nsg77
Nsg78
NssS'tx A-tx B'
p2923
(dp2924
g72
Nsg73
Nsg74
Nsg75
Nsg76
Nsg77
Nsg78
Nsssg107
(dp2925
S'tx B-tx A'
p2926
(dp2927
g72
Nsg73
Nsg74
Nsg75
Nsg76
Nsg77
Nsg78
NssS'tx A-tx B'
p2928
(dp2929
g72
Nsg73
Nsg74
Nsg75
Nsg76
Nsg77
Nsg78
Nsssg113
(dp2930
S'tx B-tx A'
p2931
(dp2932
g72
Nsg73
Nsg74
Nsg75
Nsg76
Nsg77
Nsg78
NssS'tx A-tx B'
p2933
(dp2934
g72
Nsg73
Nsg74
Nsg75
Nsg76
Nsg77
Nsg78
Nsssg119
(dp2935
g51
(dp2936
g72
Nsg73
Nsg74
Nsg75
Nsg76
Nsg77
Nsg78
Nssg57
(dp2937
g72
Nsg73
Nsg74
Nsg75
Nsg76
Nsg77
Nsg78
Nsssg123
(dp2938
g51
(dp2939
g72
Nsg73
Nsg74
Nsg75
Nsg76
Nsg77
Nsg78
Nssg57
(dp2940
g72
Nsg73
Nsg74
Nsg75
Nsg76
Nsg77
Nsg78
Nsssg127
(dp2941
g51
(dp2942
g72
Nsg73
Nsg74
Nsg75
Nsg76
Nsg77
Nsg78
Nssg57
(dp2943
g72
Nsg73
Nsg74
Nsg75
Nsg76
Nsg77
Nsg78
Nsssg131
(dp2944
S'tx B-tx A'
p2945
(dp2946
g72
Nsg73
Nsg74
Nsg75
Nsg76
Nsg77
Nsg78
NssS'tx A-tx B'
p2947
(dp2948
g72
F-0.11717440632813192
sg73
F-2.2440153159908136
sg74
F-1.1805948611594728
sg75
F0.88943005740503345
sg76
F0.30709600477042337
sg77
F0.10603189689935273
sg78
Nssssg137
I2
sbsssg138
I00
sg139
I1983
sg140
(lp2949
g62
asg56
I39
sba(ima_dataset
Study
p2950
(dp2951
g29
I01
sg30
VGISSI
p2952
sg32
(dp2953
g34
g35
(g36
S'QString'
p2954
(V2
p2955
tp2956
tp2957
Rp2958
sg42
F4.5
ssg18
g19
sg43
Nsg44
(dp2959
g7
(dp2960
g12
(ima_dataset
MetaAnalyticUnit
p2961
(dp2962
g22
I00
sg49
(dp2963
g51
(ima_dataset
TreatmentGroup
p2964
(dp2965
g54
(lp2966
F217.0
aF1849.0
asg56
I0
sg30
g51
sbsg57
(ima_dataset
TreatmentGroup
p2967
(dp2968
g54
(lp2969
F254.0
aF1800.0
asg56
I1
sg30
g57
sbssg61
g62
sg66
(dp2970
g68
(dp2971
S'tx B-tx A'
p2972
(dp2973
g72
Nsg73
Nsg74
Nsg75
Nsg76
Nsg77
Nsg78
NssS'tx A-tx B'
p2974
(dp2975
g72
Nsg73
Nsg74
Nsg75
Nsg76
Nsg77
Nsg78
Nsssg81
(dp2976
g51
(dp2977
g72
Nsg73
Nsg74
Nsg75
Nsg76
Nsg77
Nsg78
Nssg57
(dp2978
g72
Nsg73
Nsg74
Nsg75
Nsg76
Nsg77
Nsg78
Nsssg85
(dp2979
g51
(dp2980
g72
Nsg73
Nsg74
Nsg75
Nsg76
Nsg77
Nsg78
Nssg57
(dp2981
g72
Nsg73
Nsg74
Nsg75
Nsg76
Nsg77
Nsg78
Nsssg89
(dp2982
S'tx B-tx A'
p2983
(dp2984
g72
Nsg73
Nsg74
Nsg75
Nsg76
Nsg77
Nsg78
NssS'tx A-tx B'
p2985
(dp2986
g72
Nsg73
Nsg74
Nsg75
Nsg76
Nsg77
Nsg78
Nsssg95
(dp2987
S'tx B-tx A'
p2988
(dp2989
g72
Nsg73
Nsg74
Nsg75
Nsg76
Nsg77
Nsg78
NssS'tx A-tx B'
p2990
(dp2991
g72
Nsg73
Nsg74
Nsg75
Nsg76
Nsg77
Nsg78
Nsssg101
(dp2992
S'tx B-tx A'
p2993
(dp2994
g72
Nsg73
Nsg74
Nsg75
Nsg76
Nsg77
Nsg78
NssS'tx A-tx B'
p2995
(dp2996
g72
Nsg73
Nsg74
Nsg75
Nsg76
Nsg77
Nsg78
Nsssg107
(dp2997
S'tx B-tx A'
p2998
(dp2999
g72
Nsg73
Nsg74
Nsg75
Nsg76
Nsg77
Nsg78
NssS'tx A-tx B'
p3000
(dp3001
g72
Nsg73
Nsg74
Nsg75
Nsg76
Nsg77
Nsg78
Nsssg113
(dp3002
S'tx B-tx A'
p3003
(dp3004
g72
Nsg73
Nsg74
Nsg75
Nsg76
Nsg77
Nsg78
NssS'tx A-tx B'
p3005
(dp3006
g72
Nsg73
Nsg74
Nsg75
Nsg76
Nsg77
Nsg78
Nsssg119
(dp3007
g51
(dp3008
g72
Nsg73
Nsg74
Nsg75
Nsg76
Nsg77
Nsg78
Nssg57
(dp3009
g72
Nsg73
Nsg74
Nsg75
Nsg76
Nsg77
Nsg78
Nsssg123
(dp3010
g51
(dp3011
g72
Nsg73
Nsg74
Nsg75
Nsg76
Nsg77
Nsg78
Nssg57
(dp3012
g72
Nsg73
Nsg74
Nsg75
Nsg76
Nsg77
Nsg78
Nsssg127
(dp3013
g51
(dp3014
g72
Nsg73
Nsg74
Nsg75
Nsg76
Nsg77
Nsg78
Nssg57
(dp3015
g72
Nsg73
Nsg74
Nsg75
Nsg76
Nsg77
Nsg78
Nsssg131
(dp3016
S'tx B-tx A'
p3017
(dp3018
g72
Nsg73
Nsg74
Nsg75
Nsg76
Nsg77
Nsg78
NssS'tx A-tx B'
p3019
(dp3020
g72
F-0.017497397315734409
sg73
F-0.40564704239379012
sg74
F-0.21157221985476227
sg75
F0.98265479320191373
sg76
F0.80931083063146503
sg77
F0.66654538817560849
sg78
Nssssg137
I2
sbsssg138
I00
sg139
I1986
sg140
(lp3021
g62
asg56
I40
sba(ima_dataset
Study
p3022
(dp3023
g29
I01
sg30
VOlson
p3024
sg32
(dp3025
g34
g35
(g36
S'QString'
p3026
(V2
p3027
tp3028
tp3029
Rp3030
sg42
F4.9000000000000004
ssg18
g19
sg43
Nsg44
(dp3031
g7
(dp3032
g12
(ima_dataset
MetaAnalyticUnit
p3033
(dp3034
g22
I00
sg49
(dp3035
g51
(ima_dataset
TreatmentGroup
p3036
(dp3037
g54
(lp3038
F5.0
aF28.0
asg56
I0
sg30
g51
sbsg57
(ima_dataset
TreatmentGroup
p3039
(dp3040
g54
(lp3041
F5.0
aF24.0
asg56
I1
sg30
g57
sbssg61
g62
sg66
(dp3042
g68
(dp3043
S'tx B-tx A'
p3044
(dp3045
g72
Nsg73
Nsg74
Nsg75
Nsg76
Nsg77
Nsg78
NssS'tx A-tx B'
p3046
(dp3047
g72
Nsg73
Nsg74
Nsg75
Nsg76
Nsg77
Nsg78
Nsssg81
(dp3048
g51
(dp3049
g72
Nsg73
Nsg74
Nsg75
Nsg76
Nsg77
Nsg78
Nssg57
(dp3050
g72
Nsg73
Nsg74
Nsg75
Nsg76
Nsg77
Nsg78
Nsssg85
(dp3051
g51
(dp3052
g72
Nsg73
Nsg74
Nsg75
Nsg76
Nsg77
Nsg78
Nssg57
(dp3053
g72
Nsg73
Nsg74
Nsg75
Nsg76
Nsg77
Nsg78
Nsssg89
(dp3054
S'tx B-tx A'
p3055
(dp3056
g72
Nsg73
Nsg74
Nsg75
Nsg76
Nsg77
Nsg78
NssS'tx A-tx B'
p3057
(dp3058
g72
Nsg73
Nsg74
Nsg75
Nsg76
Nsg77
Nsg78
Nsssg95
(dp3059
S'tx B-tx A'
p3060
(dp3061
g72
Nsg73
Nsg74
Nsg75
Nsg76
Nsg77
Nsg78
NssS'tx A-tx B'
p3062
(dp3063
g72
Nsg73
Nsg74
Nsg75
Nsg76
Nsg77
Nsg78
Nsssg101
(dp3064
S'tx B-tx A'
p3065
(dp3066
g72
Nsg73
Nsg74
Nsg75
Nsg76
Nsg77
Nsg78
NssS'tx A-tx B'
p3067
(dp3068
g72
Nsg73
Nsg74
Nsg75
Nsg76
Nsg77
Nsg78
Nsssg107
(dp3069
S'tx B-tx A'
p3070
(dp3071
g72
Nsg73
Nsg74
Nsg75
Nsg76
Nsg77
Nsg78
NssS'tx A-tx B'
p3072
(dp3073
g72
Nsg73
Nsg74
Nsg75
Nsg76
Nsg77
Nsg78
Nsssg113
(dp3074
S'tx B-tx A'
p3075
(dp3076
g72
Nsg73
Nsg74
Nsg75
Nsg76
Nsg77
Nsg78
NssS'tx A-tx B'
p3077
(dp3078
g72
Nsg73
Nsg74
Nsg75
Nsg76
Nsg77
Nsg78
Nsssg119
(dp3079
g51
(dp3080
g72
Nsg73
Nsg74
Nsg75
Nsg76
Nsg77
Nsg78
Nssg57
(dp3081
g72
Nsg73
Nsg74
Nsg75
Nsg76
Nsg77
Nsg78
Nsssg123
(dp3082
g51
(dp3083
g72
Nsg73
Nsg74
Nsg75
Nsg76
Nsg77
Nsg78
Nssg57
(dp3084
g72
Nsg73
Nsg74
Nsg75
Nsg76
Nsg77
Nsg78
Nsssg127
(dp3085
g51
(dp3086
g72
Nsg73
Nsg74
Nsg75
Nsg76
Nsg77
Nsg78
Nssg57
(dp3087
g72
Nsg73
Nsg74
Nsg75
Nsg76
Nsg77
Nsg78
Nsssg131
(dp3088
S'tx B-tx A'
p3089
(dp3090
g72
Nsg73
Nsg74
Nsg75
Nsg76
Nsg77
Nsg78
NssS'tx A-tx B'
p3091
(dp3092
g72
F1.1894466720363726
sg73
F-1.5715571455617909
sg74
F-0.19105523676270919
sg75
F3.2852628765454024
sg76
F0.82608695652173914
sg77
F0.20772147781761194
sg78
Nssssg137
I2
sbsssg138
I00
sg139
I1986
sg140
(lp3093
g62
asg56
I41
sba(ima_dataset
Study
p3094
(dp3095
g29
I01
sg30
VISIS-2
p3096
sg32
(dp3097
g34
g35
(g36
S'QString'
p3098
(V2
p3099
tp3100
tp3101
Rp3102
sg42
F5.0
ssg18
g19
sg43
Nsg44
(dp3103
g7
(dp3104
g12
(ima_dataset
MetaAnalyticUnit
p3105
(dp3106
g22
I00
sg49
(dp3107
g51
(ima_dataset
TreatmentGroup
p3108
(dp3109
g54
(lp3110
F164.0
aF1621.0
asg56
I0
sg30
g51
sbsg57
(ima_dataset
TreatmentGroup
p3111
(dp3112
g54
(lp3113
F190.0
aF1622.0
asg56
I1
sg30
g57
sbssg61
g62
sg66
(dp3114
g68
(dp3115
S'tx B-tx A'
p3116
(dp3117
g72
Nsg73
Nsg74
Nsg75
Nsg76
Nsg77
Nsg78
NssS'tx A-tx B'
p3118
(dp3119
g72
Nsg73
Nsg74
Nsg75
Nsg76
Nsg77
Nsg78
Nsssg81
(dp3120
g51
(dp3121
g72
Nsg73
Nsg74
Nsg75
Nsg76
Nsg77
Nsg78
Nssg57
(dp3122
g72
Nsg73
Nsg74
Nsg75
Nsg76
Nsg77
Nsg78
Nsssg85
(dp3123
g51
(dp3124
g72
Nsg73
Nsg74
Nsg75
Nsg76
Nsg77
Nsg78
Nssg57
(dp3125
g72
Nsg73
Nsg74
Nsg75
Nsg76
Nsg77
Nsg78
Nsssg89
(dp3126
S'tx B-tx A'
p3127
(dp3128
g72
Nsg73
Nsg74
Nsg75
Nsg76
Nsg77
Nsg78
NssS'tx A-tx B'
p3129
(dp3130
g72
Nsg73
Nsg74
Nsg75
Nsg76
Nsg77
Nsg78
Nsssg95
(dp3131
S'tx B-tx A'
p3132
(dp3133
g72
Nsg73
Nsg74
Nsg75
Nsg76
Nsg77
Nsg78
NssS'tx A-tx B'
p3134
(dp3135
g72
Nsg73
Nsg74
Nsg75
Nsg76
Nsg77
Nsg78
Nsssg101
(dp3136
S'tx B-tx A'
p3137
(dp3138
g72
Nsg73
Nsg74
Nsg75
Nsg76
Nsg77
Nsg78
NssS'tx A-tx B'
p3139
(dp3140
g72
Nsg73
Nsg74
Nsg75
Nsg76
Nsg77
Nsg78
Nsssg107
(dp3141
S'tx B-tx A'
p3142
(dp3143
g72
Nsg73
Nsg74
Nsg75
Nsg76
Nsg77
Nsg78
NssS'tx A-tx B'
p3144
(dp3145
g72
Nsg73
Nsg74
Nsg75
Nsg76
Nsg77
Nsg78
Nsssg113
(dp3146
S'tx B-tx A'
p3147
(dp3148
g72
Nsg73
Nsg74
Nsg75
Nsg76
Nsg77
Nsg78
NssS'tx A-tx B'
p3149
(dp3150
g72
Nsg73
Nsg74
Nsg75
Nsg76
Nsg77
Nsg78
Nsssg119
(dp3151
g51
(dp3152
g72
Nsg73
Nsg74
Nsg75
Nsg76
Nsg77
Nsg78
Nssg57
(dp3153
g72
Nsg73
Nsg74
Nsg75
Nsg76
Nsg77
Nsg78
Nsssg123
(dp3154
g51
(dp3155
g72
Nsg73
Nsg74
Nsg75
Nsg76
Nsg77
Nsg78
Nssg57
(dp3156
g72
Nsg73
Nsg74
Nsg75
Nsg76
Nsg77
Nsg78
Nsssg127
(dp3157
g51
(dp3158
g72
Nsg73
Nsg74
Nsg75
Nsg76
Nsg77
Nsg78
Nssg57
(dp3159
g72
Nsg73
Nsg74
Nsg75
Nsg76
Nsg77
Nsg78
Nsssg131
(dp3160
S'tx B-tx A'
p3161
(dp3162
g72
Nsg73
Nsg74
Nsg75
Nsg76
Nsg77
Nsg78
NssS'tx A-tx B'
p3163
(dp3164
g72
F0.05680593089103117
sg73
F-0.38573613691283404
sg74
F-0.16446510301090145
sg75
F1.0584503779403636
sg76
F0.84834736119640231
sg77
F0.67994991569595231
sg78
Nssssg137
I2
sbsssg138
I00
sg139
I1988
sg140
(lp3165
g62
asg56
I42
sba(ima_dataset
Study
p3166
(dp3167
g29
I01
sg30
VAIMS
p3168
sg32
(dp3169
g34
g35
(g36
S'QString'
p3170
(V2
p3171
tp3172
tp3173
Rp3174
sg42
F5.0
ssg18
g19
sg43
Nsg44
(dp3175
g7
(dp3176
g12
(ima_dataset
MetaAnalyticUnit
p3177
(dp3178
g22
I00
sg49
(dp3179
g51
(ima_dataset
TreatmentGroup
p3180
(dp3181
g54
(lp3182
F14.0
aF168.0
asg56
I0
sg30
g51
sbsg57
(ima_dataset
TreatmentGroup
p3183
(dp3184
g54
(lp3185
F31.0
aF176.0
asg56
I1
sg30
g57
sbssg61
g62
sg66
(dp3186
g68
(dp3187
S'tx B-tx A'
p3188
(dp3189
g72
Nsg73
Nsg74
Nsg75
Nsg76
Nsg77
Nsg78
NssS'tx A-tx B'
p3190
(dp3191
g72
Nsg73
Nsg74
Nsg75
Nsg76
Nsg77
Nsg78
Nsssg81
(dp3192
g51
(dp3193
g72
Nsg73
Nsg74
Nsg75
Nsg76
Nsg77
Nsg78
Nssg57
(dp3194
g72
Nsg73
Nsg74
Nsg75
Nsg76
Nsg77
Nsg78
Nsssg85
(dp3195
g51
(dp3196
g72
Nsg73
Nsg74
Nsg75
Nsg76
Nsg77
Nsg78
Nssg57
(dp3197
g72
Nsg73
Nsg74
Nsg75
Nsg76
Nsg77
Nsg78
Nsssg89
(dp3198
S'tx B-tx A'
p3199
(dp3200
g72
Nsg73
Nsg74
Nsg75
Nsg76
Nsg77
Nsg78
NssS'tx A-tx B'
p3201
(dp3202
g72
Nsg73
Nsg74
Nsg75
Nsg76
Nsg77
Nsg78
Nsssg95
(dp3203
S'tx B-tx A'
p3204
(dp3205
g72
Nsg73
Nsg74
Nsg75
Nsg76
Nsg77
Nsg78
NssS'tx A-tx B'
p3206
(dp3207
g72
Nsg73
Nsg74
Nsg75
Nsg76
Nsg77
Nsg78
Nsssg101
(dp3208
S'tx B-tx A'
p3209
(dp3210
g72
Nsg73
Nsg74
Nsg75
Nsg76
Nsg77
Nsg78
NssS'tx A-tx B'
p3211
(dp3212
g72
Nsg73
Nsg74
Nsg75
Nsg76
Nsg77
Nsg78
Nsssg107
(dp3213
S'tx B-tx A'
p3214
(dp3215
g72
Nsg73
Nsg74
Nsg75
Nsg76
Nsg77
Nsg78
NssS'tx A-tx B'
p3216
(dp3217
g72
Nsg73
Nsg74
Nsg75
Nsg76
Nsg77
Nsg78
Nsssg113
(dp3218
S'tx B-tx A'
p3219
(dp3220
g72
Nsg73
Nsg74
Nsg75
Nsg76
Nsg77
Nsg78
NssS'tx A-tx B'
p3221
(dp3222
g72
Nsg73
Nsg74
Nsg75
Nsg76
Nsg77
Nsg78
Nsssg119
(dp3223
g51
(dp3224
g72
Nsg73
Nsg74
Nsg75
Nsg76
Nsg77
Nsg78
Nssg57
(dp3225
g72
Nsg73
Nsg74
Nsg75
Nsg76
Nsg77
Nsg78
Nsssg123
(dp3226
g51
(dp3227
g72
Nsg73
Nsg74
Nsg75
Nsg76
Nsg77
Nsg78
Nssg57
(dp3228
g72
Nsg73
Nsg74
Nsg75
Nsg76
Nsg77
Nsg78
Nsssg127
(dp3229
g51
(dp3230
g72
Nsg73
Nsg74
Nsg75
Nsg76
Nsg77
Nsg78
Nssg57
(dp3231
g72
Nsg73
Nsg74
Nsg75
Nsg76
Nsg77
Nsg78
Nsssg131
(dp3232
S'tx B-tx A'
p3233
(dp3234
g72
Nsg73
Nsg74
Nsg75
Nsg76
Nsg77
Nsg78
NssS'tx A-tx B'
p3235
(dp3236
g72
F-0.18451821103656019
sg73
F-1.5257792586893248
sg74
F-0.85514873486294252
sg75
F0.83150479719726056
sg76
F0.42521994134897356
sg77
F0.21745153982308282
sg78
Nssssg137
I2
sbsssg138
I00
sg139
I1988
sg140
(lp3237
g62
asg56
I43
sba(ima_dataset
Study
p3238
(dp3239
g29
I01
sg30
VKhaja
p3240
sg32
(dp3241
g34
g35
(g36
S'QString'
p3242
(V2
p3243
tp3244
tp3245
Rp3246
sg42
F5.0
ssg18
g19
sg43
Nsg44
(dp3247
g7
(dp3248
g12
(ima_dataset
MetaAnalyticUnit
p3249
(dp3250
g22
I00
sg49
(dp3251
g51
(ima_dataset
TreatmentGroup
p3252
(dp3253
g54
(lp3254
F1.0
aF20.0
asg56
I0
sg30
g51
sbsg57
(ima_dataset
TreatmentGroup
p3255
(dp3256
g54
(lp3257
F4.0
aF20.0
asg56
I1
sg30
g57
sbssg61
g62
sg66
(dp3258
g68
(dp3259
S'tx B-tx A'
p3260
(dp3261
g72
Nsg73
Nsg74
Nsg75
Nsg76
Nsg77
Nsg78
NssS'tx A-tx B'
p3262
(dp3263
g72
Nsg73
Nsg74
Nsg75
Nsg76
Nsg77
Nsg78
Nsssg81
(dp3264
g51
(dp3265
g72
Nsg73
Nsg74
Nsg75
Nsg76
Nsg77
Nsg78
Nssg57
(dp3266
g72
Nsg73
Nsg74
Nsg75
Nsg76
Nsg77
Nsg78
Nsssg85
(dp3267
g51
(dp3268
g72
Nsg73
Nsg74
Nsg75
Nsg76
Nsg77
Nsg78
Nssg57
(dp3269
g72
Nsg73
Nsg74
Nsg75
Nsg76
Nsg77
Nsg78
Nsssg89
(dp3270
S'tx B-tx A'
p3271
(dp3272
g72
Nsg73
Nsg74
Nsg75
Nsg76
Nsg77
Nsg78
NssS'tx A-tx B'
p3273
(dp3274
g72
Nsg73
Nsg74
Nsg75
Nsg76
Nsg77
Nsg78
Nsssg95
(dp3275
S'tx B-tx A'
p3276
(dp3277
g72
Nsg73
Nsg74
Nsg75
Nsg76
Nsg77
Nsg78
NssS'tx A-tx B'
p3278
(dp3279
g72
Nsg73
Nsg74
Nsg75
Nsg76
Nsg77
Nsg78
Nsssg101
(dp3280
S'tx B-tx A'
p3281
(dp3282
g72
Nsg73
Nsg74
Nsg75
Nsg76
Nsg77
Nsg78
NssS'tx A-tx B'
p3283
(dp3284
g72
Nsg73
Nsg74
Nsg75
Nsg76
Nsg77
Nsg78
Nsssg107
(dp3285
S'tx B-tx A'
p3286
(dp3287
g72
Nsg73
Nsg74
Nsg75
Nsg76
Nsg77
Nsg78
NssS'tx A-tx B'
p3288
(dp3289
g72
Nsg73
Nsg74
Nsg75
Nsg76
Nsg77
Nsg78
Nsssg113
(dp3290
S'tx B-tx A'
p3291
(dp3292
g72
Nsg73
Nsg74
Nsg75
Nsg76
Nsg77
Nsg78
NssS'tx A-tx B'
p3293
(dp3294
g72
Nsg73
Nsg74
Nsg75
Nsg76
Nsg77
Nsg78
Nsssg119
(dp3295
g51
(dp3296
g72
Nsg73
Nsg74
Nsg75
Nsg76
Nsg77
Nsg78
Nssg57
(dp3297
g72
Nsg73
Nsg74
Nsg75
Nsg76
Nsg77
Nsg78
Nsssg123
(dp3298
g51
(dp3299
g72
Nsg73
Nsg74
Nsg75
Nsg76
Nsg77
Nsg78
Nssg57
(dp3300
g72
Nsg73
Nsg74
Nsg75
Nsg76
Nsg77
Nsg78
Nsssg127
(dp3301
g51
(dp3302
g72
Nsg73
Nsg74
Nsg75
Nsg76
Nsg77
Nsg78
Nssg57
(dp3303
g72
Nsg73
Nsg74
Nsg75
Nsg76
Nsg77
Nsg78
Nsssg131
(dp3304
S'tx B-tx A'
p3305
(dp3306
g72
Nsg73
Nsg74
Nsg75
Nsg76
Nsg77
Nsg78
NssS'tx A-tx B'
p3307
(dp3308
g72
F0.73185467133226267
sg73
F-3.8481439074253618
sg74
F-1.5581446180465497
sg75
F2.078932771333839
sg76
F0.21052631578947373
sg77
F0.021319270277053139
sg78
Nssssg137
I2
sbsssg138
I00
sg139
I1983
sg140
(lp3309
g62
asg56
I44
sba(ima_dataset
Study
p3310
(dp3311
g29
I01
sg30
VDewar
p3312
sg32
(dp3313
g34
g35
(g36
S'QString'
p3314
(V3
p3315
tp3316
tp3317
Rp3318
sg42
F6.2000000000000002
ssg18
g19
sg43
Nsg44
(dp3319
g7
(dp3320
g12
(ima_dataset
MetaAnalyticUnit
p3321
(dp3322
g22
I00
sg49
(dp3323
g51
(ima_dataset
TreatmentGroup
p3324
(dp3325
g54
(lp3326
F4.0
aF21.0
asg56
I0
sg30
g51
sbsg57
(ima_dataset
TreatmentGroup
p3327
(dp3328
g54
(lp3329
F7.0
aF21.0
asg56
I1
sg30
g57
sbssg61
g62
sg66
(dp3330
g68
(dp3331
S'tx B-tx A'
p3332
(dp3333
g72
Nsg73
Nsg74
Nsg75
Nsg76
Nsg77
Nsg78
NssS'tx A-tx B'
p3334
(dp3335
g72
Nsg73
Nsg74
Nsg75
Nsg76
Nsg77
Nsg78
Nsssg81
(dp3336
g51
(dp3337
g72
Nsg73
Nsg74
Nsg75
Nsg76
Nsg77
Nsg78
Nssg57
(dp3338
g72
Nsg73
Nsg74
Nsg75
Nsg76
Nsg77
Nsg78
Nsssg85
(dp3339
g51
(dp3340
g72
Nsg73
Nsg74
Nsg75
Nsg76
Nsg77
Nsg78
Nssg57
(dp3341
g72
Nsg73
Nsg74
Nsg75
Nsg76
Nsg77
Nsg78
Nsssg89
(dp3342
S'tx B-tx A'
p3343
(dp3344
g72
Nsg73
Nsg74
Nsg75
Nsg76
Nsg77
Nsg78
NssS'tx A-tx B'
p3345
(dp3346
g72
Nsg73
Nsg74
Nsg75
Nsg76
Nsg77
Nsg78
Nsssg95
(dp3347
S'tx B-tx A'
p3348
(dp3349
g72
Nsg73
Nsg74
Nsg75
Nsg76
Nsg77
Nsg78
NssS'tx A-tx B'
p3350
(dp3351
g72
Nsg73
Nsg74
Nsg75
Nsg76
Nsg77
Nsg78
Nsssg101
(dp3352
S'tx B-tx A'
p3353
(dp3354
g72
Nsg73
Nsg74
Nsg75
Nsg76
Nsg77
Nsg78
NssS'tx A-tx B'
p3355
(dp3356
g72
Nsg73
Nsg74
Nsg75
Nsg76
Nsg77
Nsg78
Nsssg107
(dp3357
S'tx B-tx A'
p3358
(dp3359
g72
Nsg73
Nsg74
Nsg75
Nsg76
Nsg77
Nsg78
NssS'tx A-tx B'
p3360
(dp3361
g72
Nsg73
Nsg74
Nsg75
Nsg76
Nsg77
Nsg78
Nsssg113
(dp3362
S'tx B-tx A'
p3363
(dp3364
g72
Nsg73
Nsg74
Nsg75
Nsg76
Nsg77
Nsg78
NssS'tx A-tx B'
p3365
(dp3366
g72
Nsg73
Nsg74
Nsg75
Nsg76
Nsg77
Nsg78
Nsssg119
(dp3367
g51
(dp3368
g72
Nsg73
Nsg74
Nsg75
Nsg76
Nsg77
Nsg78
Nssg57
(dp3369
g72
Nsg73
Nsg74
Nsg75
Nsg76
Nsg77
Nsg78
Nsssg123
(dp3370
g51
(dp3371
g72
Nsg73
Nsg74
Nsg75
Nsg76
Nsg77
Nsg78
Nssg57
(dp3372
g72
Nsg73
Nsg74
Nsg75
Nsg76
Nsg77
Nsg78
Nsssg127
(dp3373
g51
(dp3374
g72
Nsg73
Nsg74
Nsg75
Nsg76
Nsg77
Nsg78
Nssg57
(dp3375
g72
Nsg73
Nsg74
Nsg75
Nsg76
Nsg77
Nsg78
Nsssg131
(dp3376
S'tx B-tx A'
p3377
(dp3378
g72
Nsg73
Nsg74
Nsg75
Nsg76
Nsg77
Nsg78
NssS'tx A-tx B'
p3379
(dp3380
g72
F0.66379746167681375
sg73
F-2.1713410664295734
sg74
F-0.75377180237637986
sg75
F1.9421536023647801
sg76
F0.47058823529411781
sg77
F0.11402459976779844
sg78
Nssssg137
I2
sbsssg138
I00
sg139
I1963
sg140
(lp3381
g62
asg56
I45
sba(ima_dataset
Study
p3382
(dp3383
g29
I01
sg30
VISIS Pilot
p3384
sg32
(dp3385
g34
g35
(g36
S'QString'
p3386
(V3
p3387
tp3388
tp3389
Rp3390
sg42
F6.5
ssg18
g19
sg43
Nsg44
(dp3391
g7
(dp3392
g12
(ima_dataset
MetaAnalyticUnit
p3393
(dp3394
g22
I00
sg49
(dp3395
g51
(ima_dataset
TreatmentGroup
p3396
(dp3397
g54
(lp3398
F31.0
aF413.0
asg56
I0
sg30
g51
sbsg57
(ima_dataset
TreatmentGroup
p3399
(dp3400
g54
(lp3401
F20.0
aF206.0
asg56
I1
sg30
g57
sbssg61
g62
sg66
(dp3402
g68
(dp3403
S'tx B-tx A'
p3404
(dp3405
g72
Nsg73
Nsg74
Nsg75
Nsg76
Nsg77
Nsg78
NssS'tx A-tx B'
p3406
(dp3407
g72
Nsg73
Nsg74
Nsg75
Nsg76
Nsg77
Nsg78
Nsssg81
(dp3408
g51
(dp3409
g72
Nsg73
Nsg74
Nsg75
Nsg76
Nsg77
Nsg78
Nssg57
(dp3410
g72
Nsg73
Nsg74
Nsg75
Nsg76
Nsg77
Nsg78
Nsssg85
(dp3411
g51
(dp3412
g72
Nsg73
Nsg74
Nsg75
Nsg76
Nsg77
Nsg78
Nssg57
(dp3413
g72
Nsg73
Nsg74
Nsg75
Nsg76
Nsg77
Nsg78
Nsssg89
(dp3414
S'tx B-tx A'
p3415
(dp3416
g72
Nsg73
Nsg74
Nsg75
Nsg76
Nsg77
Nsg78
NssS'tx A-tx B'
p3417
(dp3418
g72
Nsg73
Nsg74
Nsg75
Nsg76
Nsg77
Nsg78
Nsssg95
(dp3419
S'tx B-tx A'
p3420
(dp3421
g72
Nsg73
Nsg74
Nsg75
Nsg76
Nsg77
Nsg78
NssS'tx A-tx B'
p3422
(dp3423
g72
Nsg73
Nsg74
Nsg75
Nsg76
Nsg77
Nsg78
Nsssg101
(dp3424
S'tx B-tx A'
p3425
(dp3426
g72
Nsg73
Nsg74
Nsg75
Nsg76
Nsg77
Nsg78
NssS'tx A-tx B'
p3427
(dp3428
g72
Nsg73
Nsg74
Nsg75
Nsg76
Nsg77
Nsg78
Nsssg107
(dp3429
S'tx B-tx A'
p3430
(dp3431
g72
Nsg73
Nsg74
Nsg75
Nsg76
Nsg77
Nsg78
NssS'tx A-tx B'
p3432
(dp3433
g72
Nsg73
Nsg74
Nsg75
Nsg76
Nsg77
Nsg78
Nsssg113
(dp3434
S'tx B-tx A'
p3435
(dp3436
g72
Nsg73
Nsg74
Nsg75
Nsg76
Nsg77
Nsg78
NssS'tx A-tx B'
p3437
(dp3438
g72
Nsg73
Nsg74
Nsg75
Nsg76
Nsg77
Nsg78
Nsssg119
(dp3439
g51
(dp3440
g72
Nsg73
Nsg74
Nsg75
Nsg76
Nsg77
Nsg78
Nssg57
(dp3441
g72
Nsg73
Nsg74
Nsg75
Nsg76
Nsg77
Nsg78
Nsssg123
(dp3442
g51
(dp3443
g72
Nsg73
Nsg74
Nsg75
Nsg76
Nsg77
Nsg78
Nssg57
(dp3444
g72
Nsg73
Nsg74
Nsg75
Nsg76
Nsg77
Nsg78
Nsssg127
(dp3445
g51
(dp3446
g72
Nsg73
Nsg74
Nsg75
Nsg76
Nsg77
Nsg78
Nssg57
(dp3447
g72
Nsg73
Nsg74
Nsg75
Nsg76
Nsg77
Nsg78
Nsssg131
(dp3448
S'tx B-tx A'
p3449
(dp3450
g72
Nsg73
Nsg74
Nsg75
Nsg76
Nsg77
Nsg78
NssS'tx A-tx B'
p3451
(dp3452
g72
F0.30739348473373895
sg73
F-0.87023149265817623
sg74
F-0.28141900396221864
sg75
F1.3598759532382081
sg76
F0.75471204188481678
sg77
F0.41885457626455647
sg78
Nssssg137
I2
sbsssg138
I00
sg139
I1987
sg140
(lp3453
g62
asg56
I46
sba(ima_dataset
Study
p3454
(dp3455
g29
I01
sg30
VBett
p3456
sg32
(dp3457
g34
g35
(g36
S'QString'
p3458
(V3
p3459
tp3460
tp3461
Rp3462
sg42
F6.5
ssg18
g19
sg43
Nsg44
(dp3463
g7
(dp3464
g12
(ima_dataset
MetaAnalyticUnit
p3465
(dp3466
g22
I00
sg49
(dp3467
g51
(ima_dataset
TreatmentGroup
p3468
(dp3469
g54
(lp3470
F4.0
aF84.0
asg56
I0
sg30
g51
sbsg57
(ima_dataset
TreatmentGroup
p3471
(dp3472
g54
(lp3473
F10.0
aF76.0
asg56
I1
sg30
g57
sbssg61
g62
sg66
(dp3474
g68
(dp3475
S'tx B-tx A'
p3476
(dp3477
g72
Nsg73
Nsg74
Nsg75
Nsg76
Nsg77
Nsg78
NssS'tx A-tx B'
p3478
(dp3479
g72
Nsg73
Nsg74
Nsg75
Nsg76
Nsg77
Nsg78
Nsssg81
(dp3480
g51
(dp3481
g72
Nsg73
Nsg74
Nsg75
Nsg76
Nsg77
Nsg78
Nssg57
(dp3482
g72
Nsg73
Nsg74
Nsg75
Nsg76
Nsg77
Nsg78
Nsssg85
(dp3483
g51
(dp3484
g72
Nsg73
Nsg74
Nsg75
Nsg76
Nsg77
Nsg78
Nssg57
(dp3485
g72
Nsg73
Nsg74
Nsg75
Nsg76
Nsg77
Nsg78
Nsssg89
(dp3486
S'tx B-tx A'
p3487
(dp3488
g72
Nsg73
Nsg74
Nsg75
Nsg76
Nsg77
Nsg78
NssS'tx A-tx B'
p3489
(dp3490
g72
Nsg73
Nsg74
Nsg75
Nsg76
Nsg77
Nsg78
Nsssg95
(dp3491
S'tx B-tx A'
p3492
(dp3493
g72
Nsg73
Nsg74
Nsg75
Nsg76
Nsg77
Nsg78
NssS'tx A-tx B'
p3494
(dp3495
g72
Nsg73
Nsg74
Nsg75
Nsg76
Nsg77
Nsg78
Nsssg101
(dp3496
S'tx B-tx A'
p3497
(dp3498
g72
Nsg73
Nsg74
Nsg75
Nsg76
Nsg77
Nsg78
NssS'tx A-tx B'
p3499
(dp3500
g72
Nsg73
Nsg74
Nsg75
Nsg76
Nsg77
Nsg78
Nsssg107
(dp3501
S'tx B-tx A'
p3502
(dp3503
g72
Nsg73
Nsg74
Nsg75
Nsg76
Nsg77
Nsg78
NssS'tx A-tx B'
p3504
(dp3505
g72
Nsg73
Nsg74
Nsg75
Nsg76
Nsg77
Nsg78
Nsssg113
(dp3506
S'tx B-tx A'
p3507
(dp3508
g72
Nsg73
Nsg74
Nsg75
Nsg76
Nsg77
Nsg78
NssS'tx A-tx B'
p3509
(dp3510
g72
Nsg73
Nsg74
Nsg75
Nsg76
Nsg77
Nsg78
Nsssg119
(dp3511
g51
(dp3512
g72
Nsg73
Nsg74
Nsg75
Nsg76
Nsg77
Nsg78
Nssg57
(dp3513
g72
Nsg73
Nsg74
Nsg75
Nsg76
Nsg77
Nsg78
Nsssg123
(dp3514
g51
(dp3515
g72
Nsg73
Nsg74
Nsg75
Nsg76
Nsg77
Nsg78
Nssg57
(dp3516
g72
Nsg73
Nsg74
Nsg75
Nsg76
Nsg77
Nsg78
Nsssg127
(dp3517
g51
(dp3518
g72
Nsg73
Nsg74
Nsg75
Nsg76
Nsg77
Nsg78
Nssg57
(dp3519
g72
Nsg73
Nsg74
Nsg75
Nsg76
Nsg77
Nsg78
Nsssg131
(dp3520
S'tx B-tx A'
p3521
(dp3522
g72
Nsg73
Nsg74
Nsg75
Nsg76
Nsg77
Nsg78
NssS'tx A-tx B'
p3523
(dp3524
g72
F0.095801050325948767
sg73
F-2.3131262993691708
sg74
F-1.1086626245216109
sg75
F1.100540090120101
sg76
F0.33000000000000007
sg77
F0.098951415743624441
sg78
Nssssg137
I2
sbsssg138
I00
sg139
I1973
sg140
(lp3525
g62
asg56
I47
sba(ima_dataset
Study
p3526
(dp3527
g29
I01
sg30
VAber
p3528
sg32
(dp3529
g34
g35
(g36
S'QString'
p3530
(V3
p3531
tp3532
tp3533
Rp3534
sg42
F7.0
ssg18
g19
sg43
Nsg44
(dp3535
g7
(dp3536
g12
(ima_dataset
MetaAnalyticUnit
p3537
(dp3538
g22
I00
sg49
(dp3539
g51
(ima_dataset
TreatmentGroup
p3540
(dp3541
g54
(lp3542
F57.0
aF302.0
asg56
I0
sg30
g51
sbsg57
(ima_dataset
TreatmentGroup
p3543
(dp3544
g54
(lp3545
F55.0
aF293.0
asg56
I1
sg30
g57
sbssg61
g62
sg66
(dp3546
g68
(dp3547
S'tx B-tx A'
p3548
(dp3549
g72
Nsg73
Nsg74
Nsg75
Nsg76
Nsg77
Nsg78
NssS'tx A-tx B'
p3550
(dp3551
g72
Nsg73
Nsg74
Nsg75
Nsg76
Nsg77
Nsg78
Nsssg81
(dp3552
g51
(dp3553
g72
Nsg73
Nsg74
Nsg75
Nsg76
Nsg77
Nsg78
Nssg57
(dp3554
g72
Nsg73
Nsg74
Nsg75
Nsg76
Nsg77
Nsg78
Nsssg85
(dp3555
g51
(dp3556
g72
Nsg73
Nsg74
Nsg75
Nsg76
Nsg77
Nsg78
Nssg57
(dp3557
g72
Nsg73
Nsg74
Nsg75
Nsg76
Nsg77
Nsg78
Nsssg89
(dp3558
S'tx B-tx A'
p3559
(dp3560
g72
Nsg73
Nsg74
Nsg75
Nsg76
Nsg77
Nsg78
NssS'tx A-tx B'
p3561
(dp3562
g72
Nsg73
Nsg74
Nsg75
Nsg76
Nsg77
Nsg78
Nsssg95
(dp3563
S'tx B-tx A'
p3564
(dp3565
g72
Nsg73
Nsg74
Nsg75
Nsg76
Nsg77
Nsg78
NssS'tx A-tx B'
p3566
(dp3567
g72
Nsg73
Nsg74
Nsg75
Nsg76
Nsg77
Nsg78
Nsssg101
(dp3568
S'tx B-tx A'
p3569
(dp3570
g72
Nsg73
Nsg74
Nsg75
Nsg76
Nsg77
Nsg78
NssS'tx A-tx B'
p3571
(dp3572
g72
Nsg73
Nsg74
Nsg75
Nsg76
Nsg77
Nsg78
Nsssg107
(dp3573
S'tx B-tx A'
p3574
(dp3575
g72
Nsg73
Nsg74
Nsg75
Nsg76
Nsg77
Nsg78
NssS'tx A-tx B'
p3576
(dp3577
g72
Nsg73
Nsg74
Nsg75
Nsg76
Nsg77
Nsg78
Nsssg113
(dp3578
S'tx B-tx A'
p3579
(dp3580
g72
Nsg73
Nsg74
Nsg75
Nsg76
Nsg77
Nsg78
NssS'tx A-tx B'
p3581
(dp3582
g72
Nsg73
Nsg74
Nsg75
Nsg76
Nsg77
Nsg78
Nsssg119
(dp3583
g51
(dp3584
g72
Nsg73
Nsg74
Nsg75
Nsg76
Nsg77
Nsg78
Nssg57
(dp3585
g72
Nsg73
Nsg74
Nsg75
Nsg76
Nsg77
Nsg78
Nsssg123
(dp3586
g51
(dp3587
g72
Nsg73
Nsg74
Nsg75
Nsg76
Nsg77
Nsg78
Nssg57
(dp3588
g72
Nsg73
Nsg74
Nsg75
Nsg76
Nsg77
Nsg78
Nsssg127
(dp3589
g51
(dp3590
g72
Nsg73
Nsg74
Nsg75
Nsg76
Nsg77
Nsg78
Nssg57
(dp3591
g72
Nsg73
Nsg74
Nsg75
Nsg76
Nsg77
Nsg78
Nsssg131
(dp3592
S'tx B-tx A'
p3593
(dp3594
g72
Nsg73
Nsg74
Nsg75
Nsg76
Nsg77
Nsg78
NssS'tx A-tx B'
p3595
(dp3596
g72
F0.41789806300993138
sg73
F-0.40443697155227754
sg74
F0.0067305457288269199
sg75
F1.5187658480919364
sg76
F1.0067532467532467
sg77
F0.66735244351297107
sg78
Nssssg137
I2
sbsssg138
I00
sg139
I1976
sg140
(lp3597
g62
asg56
I48
sba(ima_dataset
Study
p3598
(dp3599
g29
I01
sg30
VECSG-1
p3600
sg32
(dp3601
g34
g35
(g36
S'QString'
p3602
(V3
p3603
tp3604
tp3605
Rp3606
sg42
F7.5
ssg18
g19
sg43
Nsg44
(dp3607
g7
(dp3608
g12
(ima_dataset
MetaAnalyticUnit
p3609
(dp3610
g22
I00
sg49
(dp3611
g51
(ima_dataset
TreatmentGroup
p3612
(dp3613
g54
(lp3614
F8.0
aF47.0
asg56
I0
sg30
g51
sbsg57
(ima_dataset
TreatmentGroup
p3615
(dp3616
g54
(lp3617
F15.0
aF50.0
asg56
I1
sg30
g57
sbssg61
g62
sg66
(dp3618
g68
(dp3619
S'tx B-tx A'
p3620
(dp3621
g72
Nsg73
Nsg74
Nsg75
Nsg76
Nsg77
Nsg78
NssS'tx A-tx B'
p3622
(dp3623
g72
Nsg73
Nsg74
Nsg75
Nsg76
Nsg77
Nsg78
Nsssg81
(dp3624
g51
(dp3625
g72
Nsg73
Nsg74
Nsg75
Nsg76
Nsg77
Nsg78
Nssg57
(dp3626
g72
Nsg73
Nsg74
Nsg75
Nsg76
Nsg77
Nsg78
Nsssg85
(dp3627
g51
(dp3628
g72
Nsg73
Nsg74
Nsg75
Nsg76
Nsg77
Nsg78
Nssg57
(dp3629
g72
Nsg73
Nsg74
Nsg75
Nsg76
Nsg77
Nsg78
Nsssg89
(dp3630
S'tx B-tx A'
p3631
(dp3632
g72
Nsg73
Nsg74
Nsg75
Nsg76
Nsg77
Nsg78
NssS'tx A-tx B'
p3633
(dp3634
g72
Nsg73
Nsg74
Nsg75
Nsg76
Nsg77
Nsg78
Nsssg95
(dp3635
S'tx B-tx A'
p3636
(dp3637
g72
Nsg73
Nsg74
Nsg75
Nsg76
Nsg77
Nsg78
NssS'tx A-tx B'
p3638
(dp3639
g72
Nsg73
Nsg74
Nsg75
Nsg76
Nsg77
Nsg78
Nsssg101
(dp3640
S'tx B-tx A'
p3641
(dp3642
g72
Nsg73
Nsg74
Nsg75
Nsg76
Nsg77
Nsg78
NssS'tx A-tx B'
p3643
(dp3644
g72
Nsg73
Nsg74
Nsg75
Nsg76
Nsg77
Nsg78
Nsssg107
(dp3645
S'tx B-tx A'
p3646
(dp3647
g72
Nsg73
Nsg74
Nsg75
Nsg76
Nsg77
Nsg78
NssS'tx A-tx B'
p3648
(dp3649
g72
Nsg73
Nsg74
Nsg75
Nsg76
Nsg77
Nsg78
Nsssg113
(dp3650
S'tx B-tx A'
p3651
(dp3652
g72
Nsg73
Nsg74
Nsg75
Nsg76
Nsg77
Nsg78
NssS'tx A-tx B'
p3653
(dp3654
g72
Nsg73
Nsg74
Nsg75
Nsg76
Nsg77
Nsg78
Nsssg119
(dp3655
g51
(dp3656
g72
Nsg73
Nsg74
Nsg75
Nsg76
Nsg77
Nsg78
Nssg57
(dp3657
g72
Nsg73
Nsg74
Nsg75
Nsg76
Nsg77
Nsg78
Nsssg123
(dp3658
g51
(dp3659
g72
Nsg73
Nsg74
Nsg75
Nsg76
Nsg77
Nsg78
Nssg57
(dp3660
g72
Nsg73
Nsg74
Nsg75
Nsg76
Nsg77
Nsg78
Nsssg127
(dp3661
g51
(dp3662
g72
Nsg73
Nsg74
Nsg75
Nsg76
Nsg77
Nsg78
Nssg57
(dp3663
g72
Nsg73
Nsg74
Nsg75
Nsg76
Nsg77
Nsg78
Nsssg131
(dp3664
S'tx B-tx A'
p3665
(dp3666
g72
Nsg73
Nsg74
Nsg75
Nsg76
Nsg77
Nsg78
NssS'tx A-tx B'
p3667
(dp3668
g72
F0.2350494129608991
sg73
F-1.7086939010861131
sg74
F-0.73682224406260699
sg75
F1.2649712731646738
sg76
F0.4786324786324786
sg77
F0.181102175568573
sg78
Nssssg137
I2
sbsssg138
I00
sg139
I1979
sg140
(lp3669
g62
asg56
I49
sba(ima_dataset
Study
p3670
(dp3671
g29
I01
sg30
VGISSI
p3672
sg32
(dp3673
g34
g35
(g36
S'QString'
p3674
(V3
p3675
tp3676
tp3677
Rp3678
sg42
F7.5
ssg18
g19
sg43
Nsg44
(dp3679
g7
(dp3680
g12
(ima_dataset
MetaAnalyticUnit
p3681
(dp3682
g22
I00
sg49
(dp3683
g51
(ima_dataset
TreatmentGroup
p3684
(dp3685
g54
(lp3686
F87.0
aF693.0
asg56
I0
sg30
g51
sbsg57
(ima_dataset
TreatmentGroup
p3687
(dp3688
g54
(lp3689
F93.0
aF659.0
asg56
I1
sg30
g57
sbssg61
g62
sg66
(dp3690
g68
(dp3691
S'tx B-tx A'
p3692
(dp3693
g72
Nsg73
Nsg74
Nsg75
Nsg76
Nsg77
Nsg78
NssS'tx A-tx B'
p3694
(dp3695
g72
Nsg73
Nsg74
Nsg75
Nsg76
Nsg77
Nsg78
Nsssg81
(dp3696
g51
(dp3697
g72
Nsg73
Nsg74
Nsg75
Nsg76
Nsg77
Nsg78
Nssg57
(dp3698
g72
Nsg73
Nsg74
Nsg75
Nsg76
Nsg77
Nsg78
Nsssg85
(dp3699
g51
(dp3700
g72
Nsg73
Nsg74
Nsg75
Nsg76
Nsg77
Nsg78
Nssg57
(dp3701
g72
Nsg73
Nsg74
Nsg75
Nsg76
Nsg77
Nsg78
Nsssg89
(dp3702
S'tx B-tx A'
p3703
(dp3704
g72
Nsg73
Nsg74
Nsg75
Nsg76
Nsg77
Nsg78
NssS'tx A-tx B'
p3705
(dp3706
g72
Nsg73
Nsg74
Nsg75
Nsg76
Nsg77
Nsg78
Nsssg95
(dp3707
S'tx B-tx A'
p3708
(dp3709
g72
Nsg73
Nsg74
Nsg75
Nsg76
Nsg77
Nsg78
NssS'tx A-tx B'
p3710
(dp3711
g72
Nsg73
Nsg74
Nsg75
Nsg76
Nsg77
Nsg78
Nsssg101
(dp3712
S'tx B-tx A'
p3713
(dp3714
g72
Nsg73
Nsg74
Nsg75
Nsg76
Nsg77
Nsg78
NssS'tx A-tx B'
p3715
(dp3716
g72
Nsg73
Nsg74
Nsg75
Nsg76
Nsg77
Nsg78
Nsssg107
(dp3717
S'tx B-tx A'
p3718
(dp3719
g72
Nsg73
Nsg74
Nsg75
Nsg76
Nsg77
Nsg78
NssS'tx A-tx B'
p3720
(dp3721
g72
Nsg73
Nsg74
Nsg75
Nsg76
Nsg77
Nsg78
Nsssg113
(dp3722
S'tx B-tx A'
p3723
(dp3724
g72
Nsg73
Nsg74
Nsg75
Nsg76
Nsg77
Nsg78
NssS'tx A-tx B'
p3725
(dp3726
g72
Nsg73
Nsg74
Nsg75
Nsg76
Nsg77
Nsg78
Nsssg119
(dp3727
g51
(dp3728
g72
Nsg73
Nsg74
Nsg75
Nsg76
Nsg77
Nsg78
Nssg57
(dp3729
g72
Nsg73
Nsg74
Nsg75
Nsg76
Nsg77
Nsg78
Nsssg123
(dp3730
g51
(dp3731
g72
Nsg73
Nsg74
Nsg75
Nsg76
Nsg77
Nsg78
Nssg57
(dp3732
g72
Nsg73
Nsg74
Nsg75
Nsg76
Nsg77
Nsg78
Nsssg127
(dp3733
g51
(dp3734
g72
Nsg73
Nsg74
Nsg75
Nsg76
Nsg77
Nsg78
Nssg57
(dp3735
g72
Nsg73
Nsg74
Nsg75
Nsg76
Nsg77
Nsg78
Nsssg131
(dp3736
S'tx B-tx A'
p3737
(dp3738
g72
Nsg73
Nsg74
Nsg75
Nsg76
Nsg77
Nsg78
NssS'tx A-tx B'
p3739
(dp3740
g72
F0.17900803351778349
sg73
F-0.44896259824739126
sg74
F-0.13497728236480389
sg75
F1.1960303524603955
sg76
F0.87373576067284131
sg77
F0.63828997141092869
sg78
Nssssg137
I2
sbsssg138
I00
sg139
I1986
sg140
(lp3741
g62
asg56
I50
sba(ima_dataset
Study
p3742
(dp3743
g29
I01
sg30
VGormsen
p3744
sg32
(dp3745
g34
g35
(g36
S'QString'
p3746
(V3
p3747
tp3748
tp3749
Rp3750
sg42
F8.5
ssg18
g19
sg43
Nsg44
(dp3751
g7
(dp3752
g12
(ima_dataset
MetaAnalyticUnit
p3753
(dp3754
g22
I00
sg49
(dp3755
g51
(ima_dataset
TreatmentGroup
p3756
(dp3757
g54
(lp3758
F2.0
aF14.0
asg56
I0
sg30
g51
sbsg57
(ima_dataset
TreatmentGroup
p3759
(dp3760
g54
(lp3761
F3.0
aF14.0
asg56
I1
sg30
g57
sbssg61
g62
sg66
(dp3762
g68
(dp3763
S'tx B-tx A'
p3764
(dp3765
g72
Nsg73
Nsg74
Nsg75
Nsg76
Nsg77
Nsg78
NssS'tx A-tx B'
p3766
(dp3767
g72
Nsg73
Nsg74
Nsg75
Nsg76
Nsg77
Nsg78
Nsssg81
(dp3768
g51
(dp3769
g72
Nsg73
Nsg74
Nsg75
Nsg76
Nsg77
Nsg78
Nssg57
(dp3770
g72
Nsg73
Nsg74
Nsg75
Nsg76
Nsg77
Nsg78
Nsssg85
(dp3771
g51
(dp3772
g72
Nsg73
Nsg74
Nsg75
Nsg76
Nsg77
Nsg78
Nssg57
(dp3773
g72
Nsg73
Nsg74
Nsg75
Nsg76
Nsg77
Nsg78
Nsssg89
(dp3774
S'tx B-tx A'
p3775
(dp3776
g72
Nsg73
Nsg74
Nsg75
Nsg76
Nsg77
Nsg78
NssS'tx A-tx B'
p3777
(dp3778
g72
Nsg73
Nsg74
Nsg75
Nsg76
Nsg77
Nsg78
Nsssg95
(dp3779
S'tx B-tx A'
p3780
(dp3781
g72
Nsg73
Nsg74
Nsg75
Nsg76
Nsg77
Nsg78
NssS'tx A-tx B'
p3782
(dp3783
g72
Nsg73
Nsg74
Nsg75
Nsg76
Nsg77
Nsg78
Nsssg101
(dp3784
S'tx B-tx A'
p3785
(dp3786
g72
Nsg73
Nsg74
Nsg75
Nsg76
Nsg77
Nsg78
NssS'tx A-tx B'
p3787
(dp3788
g72
Nsg73
Nsg74
Nsg75
Nsg76
Nsg77
Nsg78
Nsssg107
(dp3789
S'tx B-tx A'
p3790
(dp3791
g72
Nsg73
Nsg74
Nsg75
Nsg76
Nsg77
Nsg78
NssS'tx A-tx B'
p3792
(dp3793
g72
Nsg73
Nsg74
Nsg75
Nsg76
Nsg77
Nsg78
Nsssg113
(dp3794
S'tx B-tx A'
p3795
(dp3796
g72
Nsg73
Nsg74
Nsg75
Nsg76
Nsg77
Nsg78
NssS'tx A-tx B'
p3797
(dp3798
g72
Nsg73
Nsg74
Nsg75
Nsg76
Nsg77
Nsg78
Nsssg119
(dp3799
g51
(dp3800
g72
Nsg73
Nsg74
Nsg75
Nsg76
Nsg77
Nsg78
Nssg57
(dp3801
g72
Nsg73
Nsg74
Nsg75
Nsg76
Nsg77
Nsg78
Nsssg123
(dp3802
g51
(dp3803
g72
Nsg73
Nsg74
Nsg75
Nsg76
Nsg77
Nsg78
Nssg57
(dp3804
g72
Nsg73
Nsg74
Nsg75
Nsg76
Nsg77
Nsg78
Nsssg127
(dp3805
g51
(dp3806
g72
Nsg73
Nsg74
Nsg75
Nsg76
Nsg77
Nsg78
Nssg57
(dp3807
g72
Nsg73
Nsg74
Nsg75
Nsg76
Nsg77
Nsg78
Nsssg131
(dp3808
S'tx B-tx A'
p3809
(dp3810
g72
Nsg73
Nsg74
Nsg75
Nsg76
Nsg77
Nsg78
NssS'tx A-tx B'
p3811
(dp3812
g72
F1.4748975976472636
sg73
F-2.4598505678428517
sg74
F-0.49247648509779407
sg75
F4.3705881914998015
sg76
F0.61111111111111116
sg77
F0.085447718650267582
sg78
Nssssg137
I2
sbsssg138
I00
sg139
I1973
sg140
(lp3813
g62
asg56
I51
sba(ima_dataset
Study
p3814
(dp3815
g29
I01
sg30
VFletcher
p3816
sg32
(dp3817
g34
g35
(g36
S'QString'
p3818
(V3
p3819
tp3820
tp3821
Rp3822
sg42
F9.0
ssg18
g19
sg43
Nsg44
(dp3823
g7
(dp3824
g12
(ima_dataset
MetaAnalyticUnit
p3825
(dp3826
g22
I00
sg49
(dp3827
g51
(ima_dataset
TreatmentGroup
p3828
(dp3829
g54
(lp3830
F1.0
aF12.0
asg56
I0
sg30
g51
sbsg57
(ima_dataset
TreatmentGroup
p3831
(dp3832
g54
(lp3833
F4.0
aF11.0
asg56
I1
sg30
g57
sbssg61
g62
sg66
(dp3834
g68
(dp3835
S'tx B-tx A'
p3836
(dp3837
g72
Nsg73
Nsg74
Nsg75
Nsg76
Nsg77
Nsg78
NssS'tx A-tx B'
p3838
(dp3839
g72
Nsg73
Nsg74
Nsg75
Nsg76
Nsg77
Nsg78
Nsssg81
(dp3840
g51
(dp3841
g72
Nsg73
Nsg74
Nsg75
Nsg76
Nsg77
Nsg78
Nssg57
(dp3842
g72
Nsg73
Nsg74
Nsg75
Nsg76
Nsg77
Nsg78
Nsssg85
(dp3843
g51
(dp3844
g72
Nsg73
Nsg74
Nsg75
Nsg76
Nsg77
Nsg78
Nssg57
(dp3845
g72
Nsg73
Nsg74
Nsg75
Nsg76
Nsg77
Nsg78
Nsssg89
(dp3846
S'tx B-tx A'
p3847
(dp3848
g72
Nsg73
Nsg74
Nsg75
Nsg76
Nsg77
Nsg78
NssS'tx A-tx B'
p3849
(dp3850
g72
Nsg73
Nsg74
Nsg75
Nsg76
Nsg77
Nsg78
Nsssg95
(dp3851
S'tx B-tx A'
p3852
(dp3853
g72
Nsg73
Nsg74
Nsg75
Nsg76
Nsg77
Nsg78
NssS'tx A-tx B'
p3854
(dp3855
g72
Nsg73
Nsg74
Nsg75
Nsg76
Nsg77
Nsg78
Nsssg101
(dp3856
S'tx B-tx A'
p3857
(dp3858
g72
Nsg73
Nsg74
Nsg75
Nsg76
Nsg77
Nsg78
NssS'tx A-tx B'
p3859
(dp3860
g72
Nsg73
Nsg74
Nsg75
Nsg76
Nsg77
Nsg78
Nsssg107
(dp3861
S'tx B-tx A'
p3862
(dp3863
g72
Nsg73
Nsg74
Nsg75
Nsg76
Nsg77
Nsg78
NssS'tx A-tx B'
p3864
(dp3865
g72
Nsg73
Nsg74
Nsg75
Nsg76
Nsg77
Nsg78
Nsssg113
(dp3866
S'tx B-tx A'
p3867
(dp3868
g72
Nsg73
Nsg74
Nsg75
Nsg76
Nsg77
Nsg78
NssS'tx A-tx B'
p3869
(dp3870
g72
Nsg73
Nsg74
Nsg75
Nsg76
Nsg77
Nsg78
Nsssg119
(dp3871
g51
(dp3872
g72
Nsg73
Nsg74
Nsg75
Nsg76
Nsg77
Nsg78
Nssg57
(dp3873
g72
Nsg73
Nsg74
Nsg75
Nsg76
Nsg77
Nsg78
Nsssg123
(dp3874
g51
(dp3875
g72
Nsg73
Nsg74
Nsg75
Nsg76
Nsg77
Nsg78
Nssg57
(dp3876
g72
Nsg73
Nsg74
Nsg75
Nsg76
Nsg77
Nsg78
Nsssg127
(dp3877
g51
(dp3878
g72
Nsg73
Nsg74
Nsg75
Nsg76
Nsg77
Nsg78
Nssg57
(dp3879
g72
Nsg73
Nsg74
Nsg75
Nsg76
Nsg77
Nsg78
Nsssg131
(dp3880
S'tx B-tx A'
p3881
(dp3882
g72
Nsg73
Nsg74
Nsg75
Nsg76
Nsg77
Nsg78
NssS'tx A-tx B'
p3883
(dp3884
g72
F0.5491515375017606
sg73
F-4.2257105072276566
sg74
F-1.838279484862948
sg75
F1.7317830413799209
sg76
F0.15909090909090906
sg77
F0.014614946994286549
sg78
Nssssg137
I2
sbsssg138
I00
sg139
I1959
sg140
(lp3885
g62
asg56
I52
sba(ima_dataset
Study
p3886
(dp3887
g29
I01
sg30
VISIS-2
p3888
sg32
(dp3889
g34
g35
(g36
S'QString'
p3890
(V3
p3891
tp3892
tp3893
Rp3894
sg42
F9.0
ssg18
g19
sg43
Nsg44
(dp3895
g7
(dp3896
g12
(ima_dataset
MetaAnalyticUnit
p3897
(dp3898
g22
I00
sg49
(dp3899
g51
(ima_dataset
TreatmentGroup
p3900
(dp3901
g54
(lp3902
F214.0
aF2018.0
asg56
I0
sg30
g51
sbsg57
(ima_dataset
TreatmentGroup
p3903
(dp3904
g54
(lp3905
F249.0
aF2008.0
asg56
I1
sg30
g57
sbssg61
g62
sg66
(dp3906
g68
(dp3907
S'tx B-tx A'
p3908
(dp3909
g72
Nsg73
Nsg74
Nsg75
Nsg76
Nsg77
Nsg78
NssS'tx A-tx B'
p3910
(dp3911
g72
Nsg73
Nsg74
Nsg75
Nsg76
Nsg77
Nsg78
Nsssg81
(dp3912
g51
(dp3913
g72
Nsg73
Nsg74
Nsg75
Nsg76
Nsg77
Nsg78
Nssg57
(dp3914
g72
Nsg73
Nsg74
Nsg75
Nsg76
Nsg77
Nsg78
Nsssg85
(dp3915
g51
(dp3916
g72
Nsg73
Nsg74
Nsg75
Nsg76
Nsg77
Nsg78
Nssg57
(dp3917
g72
Nsg73
Nsg74
Nsg75
Nsg76
Nsg77
Nsg78
Nsssg89
(dp3918
S'tx B-tx A'
p3919
(dp3920
g72
Nsg73
Nsg74
Nsg75
Nsg76
Nsg77
Nsg78
NssS'tx A-tx B'
p3921
(dp3922
g72
Nsg73
Nsg74
Nsg75
Nsg76
Nsg77
Nsg78
Nsssg95
(dp3923
S'tx B-tx A'
p3924
(dp3925
g72
Nsg73
Nsg74
Nsg75
Nsg76
Nsg77
Nsg78
NssS'tx A-tx B'
p3926
(dp3927
g72
Nsg73
Nsg74
Nsg75
Nsg76
Nsg77
Nsg78
Nsssg101
(dp3928
S'tx B-tx A'
p3929
(dp3930
g72
Nsg73
Nsg74
Nsg75
Nsg76
Nsg77
Nsg78
NssS'tx A-tx B'
p3931
(dp3932
g72
Nsg73
Nsg74
Nsg75
Nsg76
Nsg77
Nsg78
Nsssg107
(dp3933
S'tx B-tx A'
p3934
(dp3935
g72
Nsg73
Nsg74
Nsg75
Nsg76
Nsg77
Nsg78
NssS'tx A-tx B'
p3936
(dp3937
g72
Nsg73
Nsg74
Nsg75
Nsg76
Nsg77
Nsg78
Nsssg113
(dp3938
S'tx B-tx A'
p3939
(dp3940
g72
Nsg73
Nsg74
Nsg75
Nsg76
Nsg77
Nsg78
NssS'tx A-tx B'
p3941
(dp3942
g72
Nsg73
Nsg74
Nsg75
Nsg76
Nsg77
Nsg78
Nsssg119
(dp3943
g51
(dp3944
g72
Nsg73
Nsg74
Nsg75
Nsg76
Nsg77
Nsg78
Nssg57
(dp3945
g72
Nsg73
Nsg74
Nsg75
Nsg76
Nsg77
Nsg78
Nsssg123
(dp3946
g51
(dp3947
g72
Nsg73
Nsg74
Nsg75
Nsg76
Nsg77
Nsg78
Nssg57
(dp3948
g72
Nsg73
Nsg74
Nsg75
Nsg76
Nsg77
Nsg78
Nsssg127
(dp3949
g51
(dp3950
g72
Nsg73
Nsg74
Nsg75
Nsg76
Nsg77
Nsg78
Nssg57
(dp3951
g72
Nsg73
Nsg74
Nsg75
Nsg76
Nsg77
Nsg78
Nsssg131
(dp3952
S'tx B-tx A'
p3953
(dp3954
g72
Nsg73
Nsg74
Nsg75
Nsg76
Nsg77
Nsg78
NssS'tx A-tx B'
p3955
(dp3956
g72
F0.017405376004861667
sg73
F-0.37088105066059518
sg74
F-0.17673783732786674
sg75
F1.0175577322172582
sg76
F0.83799944790247483
sg77
F0.69012602671168832
sg78
Nssssg137
I2
sbsssg138
I00
sg139
I1988
sg140
(lp3957
g62
asg56
I53
sba(ima_dataset
Study
p3958
(dp3959
g29
I01
sg30
VEWP
p3960
sg32
(dp3961
g34
g35
(g36
S'QString'
p3962
(V3
p3963
tp3964
tp3965
Rp3966
sg42
F9.0
ssg18
g19
sg43
Nsg44
(dp3967
g7
(dp3968
g12
(ima_dataset
MetaAnalyticUnit
p3969
(dp3970
g22
I00
sg49
(dp3971
g51
(ima_dataset
TreatmentGroup
p3972
(dp3973
g54
(lp3974
F18.0
aF85.0
asg56
I0
sg30
g51
sbsg57
(ima_dataset
TreatmentGroup
p3975
(dp3976
g54
(lp3977
F16.0
aF80.0
asg56
I1
sg30
g57
sbssg61
g62
sg66
(dp3978
g68
(dp3979
S'tx B-tx A'
p3980
(dp3981
g72
Nsg73
Nsg74
Nsg75
Nsg76
Nsg77
Nsg78
NssS'tx A-tx B'
p3982
(dp3983
g72
Nsg73
Nsg74
Nsg75
Nsg76
Nsg77
Nsg78
Nsssg81
(dp3984
g51
(dp3985
g72
Nsg73
Nsg74
Nsg75
Nsg76
Nsg77
Nsg78
Nssg57
(dp3986
g72
Nsg73
Nsg74
Nsg75
Nsg76
Nsg77
Nsg78
Nsssg85
(dp3987
g51
(dp3988
g72
Nsg73
Nsg74
Nsg75
Nsg76
Nsg77
Nsg78
Nssg57
(dp3989
g72
Nsg73
Nsg74
Nsg75
Nsg76
Nsg77
Nsg78
Nsssg89
(dp3990
S'tx B-tx A'
p3991
(dp3992
g72
Nsg73
Nsg74
Nsg75
Nsg76
Nsg77
Nsg78
NssS'tx A-tx B'
p3993
(dp3994
g72
Nsg73
Nsg74
Nsg75
Nsg76
Nsg77
Nsg78
Nsssg95
(dp3995
S'tx B-tx A'
p3996
(dp3997
g72
Nsg73
Nsg74
Nsg75
Nsg76
Nsg77
Nsg78
NssS'tx A-tx B'
p3998
(dp3999
g72
Nsg73
Nsg74
Nsg75
Nsg76
Nsg77
Nsg78
Nsssg101
(dp4000
S'tx B-tx A'
p4001
(dp4002
g72
Nsg73
Nsg74
Nsg75
Nsg76
Nsg77
Nsg78
NssS'tx A-tx B'
p4003
(dp4004
g72
Nsg73
Nsg74
Nsg75
Nsg76
Nsg77
Nsg78
Nsssg107
(dp4005
S'tx B-tx A'
p4006
(dp4007
g72
Nsg73
Nsg74
Nsg75
Nsg76
Nsg77
Nsg78
NssS'tx A-tx B'
p4008
(dp4009
g72
Nsg73
Nsg74
Nsg75
Nsg76
Nsg77
Nsg78
Nsssg113
(dp4010
S'tx B-tx A'
p4011
(dp4012
g72
Nsg73
Nsg74
Nsg75
Nsg76
Nsg77
Nsg78
NssS'tx A-tx B'
p4013
(dp4014
g72
Nsg73
Nsg74
Nsg75
Nsg76
Nsg77
Nsg78
Nsssg119
(dp4015
g51
(dp4016
g72
Nsg73
Nsg74
Nsg75
Nsg76
Nsg77
Nsg78
Nssg57
(dp4017
g72
Nsg73
Nsg74
Nsg75
Nsg76
Nsg77
Nsg78
Nsssg123
(dp4018
g51
(dp4019
g72
Nsg73
Nsg74
Nsg75
Nsg76
Nsg77
Nsg78
Nssg57
(dp4020
g72
Nsg73
Nsg74
Nsg75
Nsg76
Nsg77
Nsg78
Nsssg127
(dp4021
g51
(dp4022
g72
Nsg73
Nsg74
Nsg75
Nsg76
Nsg77
Nsg78
Nssg57
(dp4023
g72
Nsg73
Nsg74
Nsg75
Nsg76
Nsg77
Nsg78
Nsssg131
(dp4024
S'tx B-tx A'
p4025
(dp4026
g72
Nsg73
Nsg74
Nsg75
Nsg76
Nsg77
Nsg78
NssS'tx A-tx B'
p4027
(dp4028
g72
F0.82752863035559809
sg73
F-0.68358163110541981
sg74
F0.071973499625089143
sg75
F2.2876580995934259
sg76
F1.0746268656716418
sg77
F0.50480572277321401
sg78
Nssssg137
I2
sbsssg138
I00
sg139
I1971
sg140
(lp4029
g62
asg56
I54
sba(ima_dataset
Study
p4030
(dp4031
g29
I01
sg30
VHeikinheim
p4032
sg32
(dp4033
g34
g35
(g36
S'QString'
p4034
(V3
p4035
tp4036
tp4037
Rp4038
sg42
F9.5
ssg18
g19
sg43
Nsg44
(dp4039
g7
(dp4040
g12
(ima_dataset
MetaAnalyticUnit
p4041
(dp4042
g22
I00
sg49
(dp4043
g51
(ima_dataset
TreatmentGroup
p4044
(dp4045
g54
(lp4046
F14.0
aF145.0
asg56
I0
sg30
g51
sbsg57
(ima_dataset
TreatmentGroup
p4047
(dp4048
g54
(lp4049
F12.0
aF136.0
asg56
I1
sg30
g57
sbssg61
g62
sg66
(dp4050
g68
(dp4051
S'tx B-tx A'
p4052
(dp4053
g72
Nsg73
Nsg74
Nsg75
Nsg76
Nsg77
Nsg78
NssS'tx A-tx B'
p4054
(dp4055
g72
Nsg73
Nsg74
Nsg75
Nsg76
Nsg77
Nsg78
Nsssg81
(dp4056
g51
(dp4057
g72
Nsg73
Nsg74
Nsg75
Nsg76
Nsg77
Nsg78
Nssg57
(dp4058
g72
Nsg73
Nsg74
Nsg75
Nsg76
Nsg77
Nsg78
Nsssg85
(dp4059
g51
(dp4060
g72
Nsg73
Nsg74
Nsg75
Nsg76
Nsg77
Nsg78
Nssg57
(dp4061
g72
Nsg73
Nsg74
Nsg75
Nsg76
Nsg77
Nsg78
Nsssg89
(dp4062
S'tx B-tx A'
p4063
(dp4064
g72
Nsg73
Nsg74
Nsg75
Nsg76
Nsg77
Nsg78
NssS'tx A-tx B'
p4065
(dp4066
g72
Nsg73
Nsg74
Nsg75
Nsg76
Nsg77
Nsg78
Nsssg95
(dp4067
S'tx B-tx A'
p4068
(dp4069
g72
Nsg73
Nsg74
Nsg75
Nsg76
Nsg77
Nsg78
NssS'tx A-tx B'
p4070
(dp4071
g72
Nsg73
Nsg74
Nsg75
Nsg76
Nsg77
Nsg78
Nsssg101
(dp4072
S'tx B-tx A'
p4073
(dp4074
g72
Nsg73
Nsg74
Nsg75
Nsg76
Nsg77
Nsg78
NssS'tx A-tx B'
p4075
(dp4076
g72
Nsg73
Nsg74
Nsg75
Nsg76
Nsg77
Nsg78
Nsssg107
(dp4077
S'tx B-tx A'
p4078
(dp4079
g72
Nsg73
Nsg74
Nsg75
Nsg76
Nsg77
Nsg78
NssS'tx A-tx B'
p4080
(dp4081
g72
Nsg73
Nsg74
Nsg75
Nsg76
Nsg77
Nsg78
Nsssg113
(dp4082
S'tx B-tx A'
p4083
(dp4084
g72
Nsg73
Nsg74
Nsg75
Nsg76
Nsg77
Nsg78
NssS'tx A-tx B'
p4085
(dp4086
g72
Nsg73
Nsg74
Nsg75
Nsg76
Nsg77
Nsg78
Nsssg119
(dp4087
g51
(dp4088
g72
Nsg73
Nsg74
Nsg75
Nsg76
Nsg77
Nsg78
Nssg57
(dp4089
g72
Nsg73
Nsg74
Nsg75
Nsg76
Nsg77
Nsg78
Nsssg123
(dp4090
g51
(dp4091
g72
Nsg73
Nsg74
Nsg75
Nsg76
Nsg77
Nsg78
Nssg57
(dp4092
g72
Nsg73
Nsg74
Nsg75
Nsg76
Nsg77
Nsg78
Nsssg127
(dp4093
g51
(dp4094
g72
Nsg73
Nsg74
Nsg75
Nsg76
Nsg77
Nsg78
Nssg57
(dp4095
g72
Nsg73
Nsg74
Nsg75
Nsg76
Nsg77
Nsg78
Nsssg131
(dp4096
S'tx B-tx A'
p4097
(dp4098
g72
Nsg73
Nsg74
Nsg75
Nsg76
Nsg77
Nsg78
NssS'tx A-tx B'
p4099
(dp4100
g72
F0.90844138779392769
sg73
F-0.7099715433316407
sg74
F0.099234922231143496
sg75
F2.4804534539409402
sg76
F1.1043256997455468
sg77
F0.49165818821590723
sg78
Nssssg137
I2
sbsssg138
I00
sg139
I1971
sg140
(lp4101
g62
asg56
I55
sba(ima_dataset
Study
p4102
(dp4103
g29
I01
sg30
VECSG-1
p4104
sg32
(dp4105
g34
g35
(g36
S'QString'
p4106
(V4
p4107
tp4108
tp4109
Rp4110
sg42
F10.5
ssg18
g19
sg43
Nsg44
(dp4111
g7
(dp4112
g12
(ima_dataset
MetaAnalyticUnit
p4113
(dp4114
g22
I00
sg49
(dp4115
g51
(ima_dataset
TreatmentGroup
p4116
(dp4117
g54
(lp4118
F5.0
aF44.0
asg56
I0
sg30
g51
sbsg57
(ima_dataset
TreatmentGroup
p4119
(dp4120
g54
(lp4121
F11.0
aF34.0
asg56
I1
sg30
g57
sbssg61
g62
sg66
(dp4122
g68
(dp4123
S'tx B-tx A'
p4124
(dp4125
g72
Nsg73
Nsg74
Nsg75
Nsg76
Nsg77
Nsg78
NssS'tx A-tx B'
p4126
(dp4127
g72
Nsg73
Nsg74
Nsg75
Nsg76
Nsg77
Nsg78
Nsssg81
(dp4128
g51
(dp4129
g72
Nsg73
Nsg74
Nsg75
Nsg76
Nsg77
Nsg78
Nssg57
(dp4130
g72
Nsg73
Nsg74
Nsg75
Nsg76
Nsg77
Nsg78
Nsssg85
(dp4131
g51
(dp4132
g72
Nsg73
Nsg74
Nsg75
Nsg76
Nsg77
Nsg78
Nssg57
(dp4133
g72
Nsg73
Nsg74
Nsg75
Nsg76
Nsg77
Nsg78
Nsssg89
(dp4134
S'tx B-tx A'
p4135
(dp4136
g72
Nsg73
Nsg74
Nsg75
Nsg76
Nsg77
Nsg78
NssS'tx A-tx B'
p4137
(dp4138
g72
Nsg73
Nsg74
Nsg75
Nsg76
Nsg77
Nsg78
Nsssg95
(dp4139
S'tx B-tx A'
p4140
(dp4141
g72
Nsg73
Nsg74
Nsg75
Nsg76
Nsg77
Nsg78
NssS'tx A-tx B'
p4142
(dp4143
g72
Nsg73
Nsg74
Nsg75
Nsg76
Nsg77
Nsg78
Nsssg101
(dp4144
S'tx B-tx A'
p4145
(dp4146
g72
Nsg73
Nsg74
Nsg75
Nsg76
Nsg77
Nsg78
NssS'tx A-tx B'
p4147
(dp4148
g72
Nsg73
Nsg74
Nsg75
Nsg76
Nsg77
Nsg78
Nsssg107
(dp4149
S'tx B-tx A'
p4150
(dp4151
g72
Nsg73
Nsg74
Nsg75
Nsg76
Nsg77
Nsg78
NssS'tx A-tx B'
p4152
(dp4153
g72
Nsg73
Nsg74
Nsg75
Nsg76
Nsg77
Nsg78
Nsssg113
(dp4154
S'tx B-tx A'
p4155
(dp4156
g72
Nsg73
Nsg74
Nsg75
Nsg76
Nsg77
Nsg78
NssS'tx A-tx B'
p4157
(dp4158
g72
Nsg73
Nsg74
Nsg75
Nsg76
Nsg77
Nsg78
Nsssg119
(dp4159
g51
(dp4160
g72
Nsg73
Nsg74
Nsg75
Nsg76
Nsg77
Nsg78
Nssg57
(dp4161
g72
Nsg73
Nsg74
Nsg75
Nsg76
Nsg77
Nsg78
Nsssg123
(dp4162
g51
(dp4163
g72
Nsg73
Nsg74
Nsg75
Nsg76
Nsg77
Nsg78
Nssg57
(dp4164
g72
Nsg73
Nsg74
Nsg75
Nsg76
Nsg77
Nsg78
Nsssg127
(dp4165
g51
(dp4166
g72
Nsg73
Nsg74
Nsg75
Nsg76
Nsg77
Nsg78
Nssg57
(dp4167
g72
Nsg73
Nsg74
Nsg75
Nsg76
Nsg77
Nsg78
Nsssg131
(dp4168
S'tx B-tx A'
p4169
(dp4170
g72
Nsg73
Nsg74
Nsg75
Nsg76
Nsg77
Nsg78
NssS'tx A-tx B'
p4171
(dp4172
g72
F-0.14050005182028436
sg73
F-2.4925495293092501
sg74
F-1.3165247905647672
sg75
F0.8689236199049063
sg76
F0.26806526806526798
sg77
F0.082698854418030585
sg78
Nssssg137
I2
sbsssg138
I00
sg139
I1979
sg140
(lp4173
g62
asg56
I56
sba(ima_dataset
Study
p4174
(dp4175
g29
I01
sg30
VGISSI
p4176
sg32
(dp4177
g34
g35
(g36
S'QString'
p4178
(V4
p4179
tp4180
tp4181
Rp4182
sg42
F10.5
ssg18
g19
sg43
Nsg44
(dp4183
g7
(dp4184
g12
(ima_dataset
MetaAnalyticUnit
p4185
(dp4186
g22
I00
sg49
(dp4187
g51
(ima_dataset
TreatmentGroup
p4188
(dp4189
g54
(lp4190
F46.0
aF292.0
asg56
I0
sg30
g51
sbsg57
(ima_dataset
TreatmentGroup
p4191
(dp4192
g54
(lp4193
F41.0
aF302.0
asg56
I1
sg30
g57
sbssg61
g62
sg66
(dp4194
g68
(dp4195
S'tx B-tx A'
p4196
(dp4197
g72
Nsg73
Nsg74
Nsg75
Nsg76
Nsg77
Nsg78
NssS'tx A-tx B'
p4198
(dp4199
g72
Nsg73
Nsg74
Nsg75
Nsg76
Nsg77
Nsg78
Nsssg81
(dp4200
g51
(dp4201
g72
Nsg73
Nsg74
Nsg75
Nsg76
Nsg77
Nsg78
Nssg57
(dp4202
g72
Nsg73
Nsg74
Nsg75
Nsg76
Nsg77
Nsg78
Nsssg85
(dp4203
g51
(dp4204
g72
Nsg73
Nsg74
Nsg75
Nsg76
Nsg77
Nsg78
Nssg57
(dp4205
g72
Nsg73
Nsg74
Nsg75
Nsg76
Nsg77
Nsg78
Nsssg89
(dp4206
S'tx B-tx A'
p4207
(dp4208
g72
Nsg73
Nsg74
Nsg75
Nsg76
Nsg77
Nsg78
NssS'tx A-tx B'
p4209
(dp4210
g72
Nsg73
Nsg74
Nsg75
Nsg76
Nsg77
Nsg78
Nsssg95
(dp4211
S'tx B-tx A'
p4212
(dp4213
g72
Nsg73
Nsg74
Nsg75
Nsg76
Nsg77
Nsg78
NssS'tx A-tx B'
p4214
(dp4215
g72
Nsg73
Nsg74
Nsg75
Nsg76
Nsg77
Nsg78
Nsssg101
(dp4216
S'tx B-tx A'
p4217
(dp4218
g72
Nsg73
Nsg74
Nsg75
Nsg76
Nsg77
Nsg78
NssS'tx A-tx B'
p4219
(dp4220
g72
Nsg73
Nsg74
Nsg75
Nsg76
Nsg77
Nsg78
Nsssg107
(dp4221
S'tx B-tx A'
p4222
(dp4223
g72
Nsg73
Nsg74
Nsg75
Nsg76
Nsg77
Nsg78
NssS'tx A-tx B'
p4224
(dp4225
g72
Nsg73
Nsg74
Nsg75
Nsg76
Nsg77
Nsg78
Nsssg113
(dp4226
S'tx B-tx A'
p4227
(dp4228
g72
Nsg73
Nsg74
Nsg75
Nsg76
Nsg77
Nsg78
NssS'tx A-tx B'
p4229
(dp4230
g72
Nsg73
Nsg74
Nsg75
Nsg76
Nsg77
Nsg78
Nsssg119
(dp4231
g51
(dp4232
g72
Nsg73
Nsg74
Nsg75
Nsg76
Nsg77
Nsg78
Nssg57
(dp4233
g72
Nsg73
Nsg74
Nsg75
Nsg76
Nsg77
Nsg78
Nsssg123
(dp4234
g51
(dp4235
g72
Nsg73
Nsg74
Nsg75
Nsg76
Nsg77
Nsg78
Nssg57
(dp4236
g72
Nsg73
Nsg74
Nsg75
Nsg76
Nsg77
Nsg78
Nsssg127
(dp4237
g51
(dp4238
g72
Nsg73
Nsg74
Nsg75
Nsg76
Nsg77
Nsg78
Nssg57
(dp4239
g72
Nsg73
Nsg74
Nsg75
Nsg76
Nsg77
Nsg78
Nsssg131
(dp4240
S'tx B-tx A'
p4241
(dp4242
g72
Nsg73
Nsg74
Nsg75
Nsg76
Nsg77
Nsg78
NssS'tx A-tx B'
p4243
(dp4244
g72
F0.62982160097067308
sg73
F-0.28130519862043724
sg74
F0.17425820117511792
sg75
F1.8772756452363895
sg76
F1.1903628792385486
sg77
F0.75479793703426079
sg78
Nssssg137
I2
sbsssg138
I00
sg139
I1986
sg140
(lp4245
g62
asg56
I57
sba(ima_dataset
Study
p4246
(dp4247
g29
I01
sg30
VBett
p4248
sg32
(dp4249
g34
g35
(g36
S'QString'
p4250
(V4
p4251
tp4252
tp4253
Rp4254
sg42
F12.5
ssg18
g19
sg43
Nsg44
(dp4255
g7
(dp4256
g12
(ima_dataset
MetaAnalyticUnit
p4257
(dp4258
g22
I00
sg49
(dp4259
g51
(ima_dataset
TreatmentGroup
p4260
(dp4261
g54
(lp4262
F9.0
aF87.0
asg56
I0
sg30
g51
sbsg57
(ima_dataset
TreatmentGroup
p4263
(dp4264
g54
(lp4265
F12.0
aF80.0
asg56
I1
sg30
g57
sbssg61
g62
sg66
(dp4266
g68
(dp4267
S'tx B-tx A'
p4268
(dp4269
g72
Nsg73
Nsg74
Nsg75
Nsg76
Nsg77
Nsg78
NssS'tx A-tx B'
p4270
(dp4271
g72
Nsg73
Nsg74
Nsg75
Nsg76
Nsg77
Nsg78
Nsssg81
(dp4272
g51
(dp4273
g72
Nsg73
Nsg74
Nsg75
Nsg76
Nsg77
Nsg78
Nssg57
(dp4274
g72
Nsg73
Nsg74
Nsg75
Nsg76
Nsg77
Nsg78
Nsssg85
(dp4275
g51
(dp4276
g72
Nsg73
Nsg74
Nsg75
Nsg76
Nsg77
Nsg78
Nssg57
(dp4277
g72
Nsg73
Nsg74
Nsg75
Nsg76
Nsg77
Nsg78
Nsssg89
(dp4278
S'tx B-tx A'
p4279
(dp4280
g72
Nsg73
Nsg74
Nsg75
Nsg76
Nsg77
Nsg78
NssS'tx A-tx B'
p4281
(dp4282
g72
Nsg73
Nsg74
Nsg75
Nsg76
Nsg77
Nsg78
Nsssg95
(dp4283
S'tx B-tx A'
p4284
(dp4285
g72
Nsg73
Nsg74
Nsg75
Nsg76
Nsg77
Nsg78
NssS'tx A-tx B'
p4286
(dp4287
g72
Nsg73
Nsg74
Nsg75
Nsg76
Nsg77
Nsg78
Nsssg101
(dp4288
S'tx B-tx A'
p4289
(dp4290
g72
Nsg73
Nsg74
Nsg75
Nsg76
Nsg77
Nsg78
NssS'tx A-tx B'
p4291
(dp4292
g72
Nsg73
Nsg74
Nsg75
Nsg76
Nsg77
Nsg78
Nsssg107
(dp4293
S'tx B-tx A'
p4294
(dp4295
g72
Nsg73
Nsg74
Nsg75
Nsg76
Nsg77
Nsg78
NssS'tx A-tx B'
p4296
(dp4297
g72
Nsg73
Nsg74
Nsg75
Nsg76
Nsg77
Nsg78
Nsssg113
(dp4298
S'tx B-tx A'
p4299
(dp4300
g72
Nsg73
Nsg74
Nsg75
Nsg76
Nsg77
Nsg78
NssS'tx A-tx B'
p4301
(dp4302
g72
Nsg73
Nsg74
Nsg75
Nsg76
Nsg77
Nsg78
Nsssg119
(dp4303
g51
(dp4304
g72
Nsg73
Nsg74
Nsg75
Nsg76
Nsg77
Nsg78
Nssg57
(dp4305
g72
Nsg73
Nsg74
Nsg75
Nsg76
Nsg77
Nsg78
Nsssg123
(dp4306
g51
(dp4307
g72
Nsg73
Nsg74
Nsg75
Nsg76
Nsg77
Nsg78
Nssg57
(dp4308
g72
Nsg73
Nsg74
Nsg75
Nsg76
Nsg77
Nsg78
Nsssg127
(dp4309
g51
(dp4310
g72
Nsg73
Nsg74
Nsg75
Nsg76
Nsg77
Nsg78
Nssg57
(dp4311
g72
Nsg73
Nsg74
Nsg75
Nsg76
Nsg77
Nsg78
Nsssg131
(dp4312
S'tx B-tx A'
p4313
(dp4314
g72
Nsg73
Nsg74
Nsg75
Nsg76
Nsg77
Nsg78
NssS'tx A-tx B'
p4315
(dp4316
g72
F0.49852995289103474
sg73
F-1.3482963408215671
sg74
F-0.42488319396526619
sg75
F1.6462993533650889
sg76
F0.65384615384615374
sg77
F0.25968229412564253
sg78
Nssssg137
I2
sbsssg138
I00
sg139
I1973
sg140
(lp4317
g62
asg56
I58
sba(ima_dataset
Study
p4318
(dp4319
g29
I01
sg30
VEWP
p4320
sg32
(dp4321
g34
g35
(g36
S'QString'
p4322
(V4
p4323
tp4324
tp4325
Rp4326
sg42
F15.0
ssg18
g19
sg43
Nsg44
(dp4327
g7
(dp4328
g12
(ima_dataset
MetaAnalyticUnit
p4329
(dp4330
g22
I00
sg49
(dp4331
g51
(ima_dataset
TreatmentGroup
p4332
(dp4333
g54
(lp4334
F7.0
aF38.0
asg56
I0
sg30
g51
sbsg57
(ima_dataset
TreatmentGroup
p4335
(dp4336
g54
(lp4337
F10.0
aF39.0
asg56
I1
sg30
g57
sbssg61
g62
sg66
(dp4338
g68
(dp4339
S'tx B-tx A'
p4340
(dp4341
g72
Nsg73
Nsg74
Nsg75
Nsg76
Nsg77
Nsg78
NssS'tx A-tx B'
p4342
(dp4343
g72
Nsg73
Nsg74
Nsg75
Nsg76
Nsg77
Nsg78
Nsssg81
(dp4344
g51
(dp4345
g72
Nsg73
Nsg74
Nsg75
Nsg76
Nsg77
Nsg78
Nssg57
(dp4346
g72
Nsg73
Nsg74
Nsg75
Nsg76
Nsg77
Nsg78
Nsssg85
(dp4347
g51
(dp4348
g72
Nsg73
Nsg74
Nsg75
Nsg76
Nsg77
Nsg78
Nssg57
(dp4349
g72
Nsg73
Nsg74
Nsg75
Nsg76
Nsg77
Nsg78
Nsssg89
(dp4350
S'tx B-tx A'
p4351
(dp4352
g72
Nsg73
Nsg74
Nsg75
Nsg76
Nsg77
Nsg78
NssS'tx A-tx B'
p4353
(dp4354
g72
Nsg73
Nsg74
Nsg75
Nsg76
Nsg77
Nsg78
Nsssg95
(dp4355
S'tx B-tx A'
p4356
(dp4357
g72
Nsg73
Nsg74
Nsg75
Nsg76
Nsg77
Nsg78
NssS'tx A-tx B'
p4358
(dp4359
g72
Nsg73
Nsg74
Nsg75
Nsg76
Nsg77
Nsg78
Nsssg101
(dp4360
S'tx B-tx A'
p4361
(dp4362
g72
Nsg73
Nsg74
Nsg75
Nsg76
Nsg77
Nsg78
NssS'tx A-tx B'
p4363
(dp4364
g72
Nsg73
Nsg74
Nsg75
Nsg76
Nsg77
Nsg78
Nsssg107
(dp4365
S'tx B-tx A'
p4366
(dp4367
g72
Nsg73
Nsg74
Nsg75
Nsg76
Nsg77
Nsg78
NssS'tx A-tx B'
p4368
(dp4369
g72
Nsg73
Nsg74
Nsg75
Nsg76
Nsg77
Nsg78
Nsssg113
(dp4370
S'tx B-tx A'
p4371
(dp4372
g72
Nsg73
Nsg74
Nsg75
Nsg76
Nsg77
Nsg78
NssS'tx A-tx B'
p4373
(dp4374
g72
Nsg73
Nsg74
Nsg75
Nsg76
Nsg77
Nsg78
Nsssg119
(dp4375
g51
(dp4376
g72
Nsg73
Nsg74
Nsg75
Nsg76
Nsg77
Nsg78
Nssg57
(dp4377
g72
Nsg73
Nsg74
Nsg75
Nsg76
Nsg77
Nsg78
Nsssg123
(dp4378
g51
(dp4379
g72
Nsg73
Nsg74
Nsg75
Nsg76
Nsg77
Nsg78
Nssg57
(dp4380
g72
Nsg73
Nsg74
Nsg75
Nsg76
Nsg77
Nsg78
Nsssg127
(dp4381
g51
(dp4382
g72
Nsg73
Nsg74
Nsg75
Nsg76
Nsg77
Nsg78
Nssg57
(dp4383
g72
Nsg73
Nsg74
Nsg75
Nsg76
Nsg77
Nsg78
Nsssg131
(dp4384
S'tx B-tx A'
p4385
(dp4386
g72
Nsg73
Nsg74
Nsg75
Nsg76
Nsg77
Nsg78
NssS'tx A-tx B'
p4387
(dp4388
g72
F0.66718759464367872
sg73
F-1.5139202315184879
sg74
F-0.42336631843740458
sg75
F1.9487489345286915
sg76
F0.65483870967741942
sg77
F0.22004565498104911
sg78
Nssssg137
I2
sbsssg138
I00
sg139
I1971
sg140
(lp4389
g62
asg56
I59
sba(ima_dataset
Study
p4390
(dp4391
g29
I01
sg30
VISIS-2
p4392
sg32
(dp4393
g34
g35
(g36
S'QString'
p4394
(V4
p4395
tp4396
tp4397
Rp4398
sg42
F18.0
ssg18
g19
sg43
Nsg44
(dp4399
g7
(dp4400
g12
(ima_dataset
MetaAnalyticUnit
p4401
(dp4402
g22
I00
sg49
(dp4403
g51
(ima_dataset
TreatmentGroup
p4404
(dp4405
g54
(lp4406
F106.0
aF1224.0
asg56
I0
sg30
g51
sbsg57
(ima_dataset
TreatmentGroup
p4407
(dp4408
g54
(lp4409
F132.0
aF1227.0
asg56
I1
sg30
g57
sbssg61
g62
sg66
(dp4410
g68
(dp4411
S'tx B-tx A'
p4412
(dp4413
g72
Nsg73
Nsg74
Nsg75
Nsg76
Nsg77
Nsg78
NssS'tx A-tx B'
p4414
(dp4415
g72
Nsg73
Nsg74
Nsg75
Nsg76
Nsg77
Nsg78
Nsssg81
(dp4416
g51
(dp4417
g72
Nsg73
Nsg74
Nsg75
Nsg76
Nsg77
Nsg78
Nssg57
(dp4418
g72
Nsg73
Nsg74
Nsg75
Nsg76
Nsg77
Nsg78
Nsssg85
(dp4419
g51
(dp4420
g72
Nsg73
Nsg74
Nsg75
Nsg76
Nsg77
Nsg78
Nssg57
(dp4421
g72
Nsg73
Nsg74
Nsg75
Nsg76
Nsg77
Nsg78
Nsssg89
(dp4422
S'tx B-tx A'
p4423
(dp4424
g72
Nsg73
Nsg74
Nsg75
Nsg76
Nsg77
Nsg78
NssS'tx A-tx B'
p4425
(dp4426
g72
Nsg73
Nsg74
Nsg75
Nsg76
Nsg77
Nsg78
Nsssg95
(dp4427
S'tx B-tx A'
p4428
(dp4429
g72
Nsg73
Nsg74
Nsg75
Nsg76
Nsg77
Nsg78
NssS'tx A-tx B'
p4430
(dp4431
g72
Nsg73
Nsg74
Nsg75
Nsg76
Nsg77
Nsg78
Nsssg101
(dp4432
S'tx B-tx A'
p4433
(dp4434
g72
Nsg73
Nsg74
Nsg75
Nsg76
Nsg77
Nsg78
NssS'tx A-tx B'
p4435
(dp4436
g72
Nsg73
Nsg74
Nsg75
Nsg76
Nsg77
Nsg78
Nsssg107
(dp4437
S'tx B-tx A'
p4438
(dp4439
g72
Nsg73
Nsg74
Nsg75
Nsg76
Nsg77
Nsg78
NssS'tx A-tx B'
p4440
(dp4441
g72
Nsg73
Nsg74
Nsg75
Nsg76
Nsg77
Nsg78
Nsssg113
(dp4442
S'tx B-tx A'
p4443
(dp4444
g72
Nsg73
Nsg74
Nsg75
Nsg76
Nsg77
Nsg78
NssS'tx A-tx B'
p4445
(dp4446
g72
Nsg73
Nsg74
Nsg75
Nsg76
Nsg77
Nsg78
Nsssg119
(dp4447
g51
(dp4448
g72
Nsg73
Nsg74
Nsg75
Nsg76
Nsg77
Nsg78
Nssg57
(dp4449
g72
Nsg73
Nsg74
Nsg75
Nsg76
Nsg77
Nsg78
Nsssg123
(dp4450
g51
(dp4451
g72
Nsg73
Nsg74
Nsg75
Nsg76
Nsg77
Nsg78
Nssg57
(dp4452
g72
Nsg73
Nsg74
Nsg75
Nsg76
Nsg77
Nsg78
Nsssg127
(dp4453
g51
(dp4454
g72
Nsg73
Nsg74
Nsg75
Nsg76
Nsg77
Nsg78
Nssg57
(dp4455
g72
Nsg73
Nsg74
Nsg75
Nsg76
Nsg77
Nsg78
Nsssg131
(dp4456
S'tx B-tx A'
p4457
(dp4458
g72
Nsg73
Nsg74
Nsg75
Nsg76
Nsg77
Nsg78
NssS'tx A-tx B'
p4459
(dp4460
g72
F0.028711331610028312
sg73
F-0.5090110114875217
sg74
F-0.24014983993874672
sg75
F1.0291274750214068
sg76
F0.78651000162628093
sg77
F0.60108975581018764
sg78
Nssssg137
I2
sbsssg138
I00
sg139
I1988
sg140
(lp4461
g62
asg56
I60
sba(ima_dataset
Study
p4462
(dp4463
g29
I01
sg30
VBett
p4464
sg32
(dp4465
g34
g35
(g36
S'QString'
p4466
(V4
p4467
tp4468
tp4469
Rp4470
sg42
F20.5
ssg18
g19
sg43
Nsg44
(dp4471
g7
(dp4472
g12
(ima_dataset
MetaAnalyticUnit
p4473
(dp4474
g22
I00
sg49
(dp4475
g51
(ima_dataset
TreatmentGroup
p4476
(dp4477
g54
(lp4478
F4.0
aF53.0
asg56
I0
sg30
g51
sbsg57
(ima_dataset
TreatmentGroup
p4479
(dp4480
g54
(lp4481
F2.0
aF57.0
asg56
I1
sg30
g57
sbssg61
g62
sg66
(dp4482
g68
(dp4483
S'tx B-tx A'
p4484
(dp4485
g72
Nsg73
Nsg74
Nsg75
Nsg76
Nsg77
Nsg78
NssS'tx A-tx B'
p4486
(dp4487
g72
Nsg73
Nsg74
Nsg75
Nsg76
Nsg77
Nsg78
Nsssg81
(dp4488
g51
(dp4489
g72
Nsg73
Nsg74
Nsg75
Nsg76
Nsg77
Nsg78
Nssg57
(dp4490
g72
Nsg73
Nsg74
Nsg75
Nsg76
Nsg77
Nsg78
Nsssg85
(dp4491
g51
(dp4492
g72
Nsg73
Nsg74
Nsg75
Nsg76
Nsg77
Nsg78
Nssg57
(dp4493
g72
Nsg73
Nsg74
Nsg75
Nsg76
Nsg77
Nsg78
Nsssg89
(dp4494
S'tx B-tx A'
p4495
(dp4496
g72
Nsg73
Nsg74
Nsg75
Nsg76
Nsg77
Nsg78
NssS'tx A-tx B'
p4497
(dp4498
g72
Nsg73
Nsg74
Nsg75
Nsg76
Nsg77
Nsg78
Nsssg95
(dp4499
S'tx B-tx A'
p4500
(dp4501
g72
Nsg73
Nsg74
Nsg75
Nsg76
Nsg77
Nsg78
NssS'tx A-tx B'
p4502
(dp4503
g72
Nsg73
Nsg74
Nsg75
Nsg76
Nsg77
Nsg78
Nsssg101
(dp4504
S'tx B-tx A'
p4505
(dp4506
g72
Nsg73
Nsg74
Nsg75
Nsg76
Nsg77
Nsg78
NssS'tx A-tx B'
p4507
(dp4508
g72
Nsg73
Nsg74
Nsg75
Nsg76
Nsg77
Nsg78
Nsssg107
(dp4509
S'tx B-tx A'
p4510
(dp4511
g72
Nsg73
Nsg74
Nsg75
Nsg76
Nsg77
Nsg78
NssS'tx A-tx B'
p4512
(dp4513
g72
Nsg73
Nsg74
Nsg75
Nsg76
Nsg77
Nsg78
Nsssg113
(dp4514
S'tx B-tx A'
p4515
(dp4516
g72
Nsg73
Nsg74
Nsg75
Nsg76
Nsg77
Nsg78
NssS'tx A-tx B'
p4517
(dp4518
g72
Nsg73
Nsg74
Nsg75
Nsg76
Nsg77
Nsg78
Nsssg119
(dp4519
g51
(dp4520
g72
Nsg73
Nsg74
Nsg75
Nsg76
Nsg77
Nsg78
Nssg57
(dp4521
g72
Nsg73
Nsg74
Nsg75
Nsg76
Nsg77
Nsg78
Nsssg123
(dp4522
g51
(dp4523
g72
Nsg73
Nsg74
Nsg75
Nsg76
Nsg77
Nsg78
Nssg57
(dp4524
g72
Nsg73
Nsg74
Nsg75
Nsg76
Nsg77
Nsg78
Nsssg127
(dp4525
g51
(dp4526
g72
Nsg73
Nsg74
Nsg75
Nsg76
Nsg77
Nsg78
Nssg57
(dp4527
g72
Nsg73
Nsg74
Nsg75
Nsg76
Nsg77
Nsg78
Nsssg131
(dp4528
S'tx B-tx A'
p4529
(dp4530
g72
Nsg73
Nsg74
Nsg75
Nsg76
Nsg77
Nsg78
NssS'tx A-tx B'
p4531
(dp4532
g72
F2.5491588295719181
sg73
F-0.93183869420833898
sg74
F0.80866006768178966
sg75
F12.796335355367928
sg76
F2.2448979591836737
sg77
F0.39382891329375613
sg78
Nssssg137
I2
sbsssg138
I00
sg139
I1973
sg140
(lp4533
g62
asg56
I61
sba(ima_dataset
Study
p4534
(dp4535
g29
I01
sg30
VAmery
p4536
sg32
(dp4537
g34
g35
(g36
S'QString'
p4538
(V4
p4539
tp4540
tp4541
Rp4542
sg42
F21.0
ssg18
g19
sg43
Nsg44
(dp4543
g7
(dp4544
g12
(ima_dataset
MetaAnalyticUnit
p4545
(dp4546
g22
I00
sg49
(dp4547
g51
(ima_dataset
TreatmentGroup
p4548
(dp4549
g54
(lp4550
F20.0
aF83.0
asg56
I0
sg30
g51
sbsg57
(ima_dataset
TreatmentGroup
p4551
(dp4552
g54
(lp4553
F15.0
aF84.0
asg56
I1
sg30
g57
sbssg61
g62
sg66
(dp4554
g68
(dp4555
S'tx B-tx A'
p4556
(dp4557
g72
Nsg73
Nsg74
Nsg75
Nsg76
Nsg77
Nsg78
NssS'tx A-tx B'
p4558
(dp4559
g72
Nsg73
Nsg74
Nsg75
Nsg76
Nsg77
Nsg78
Nsssg81
(dp4560
g51
(dp4561
g72
Nsg73
Nsg74
Nsg75
Nsg76
Nsg77
Nsg78
Nssg57
(dp4562
g72
Nsg73
Nsg74
Nsg75
Nsg76
Nsg77
Nsg78
Nsssg85
(dp4563
g51
(dp4564
g72
Nsg73
Nsg74
Nsg75
Nsg76
Nsg77
Nsg78
Nssg57
(dp4565
g72
Nsg73
Nsg74
Nsg75
Nsg76
Nsg77
Nsg78
Nsssg89
(dp4566
S'tx B-tx A'
p4567
(dp4568
g72
Nsg73
Nsg74
Nsg75
Nsg76
Nsg77
Nsg78
NssS'tx A-tx B'
p4569
(dp4570
g72
Nsg73
Nsg74
Nsg75
Nsg76
Nsg77
Nsg78
Nsssg95
(dp4571
S'tx B-tx A'
p4572
(dp4573
g72
Nsg73
Nsg74
Nsg75
Nsg76
Nsg77
Nsg78
NssS'tx A-tx B'
p4574
(dp4575
g72
Nsg73
Nsg74
Nsg75
Nsg76
Nsg77
Nsg78
Nsssg101
(dp4576
S'tx B-tx A'
p4577
(dp4578
g72
Nsg73
Nsg74
Nsg75
Nsg76
Nsg77
Nsg78
NssS'tx A-tx B'
p4579
(dp4580
g72
Nsg73
Nsg74
Nsg75
Nsg76
Nsg77
Nsg78
Nsssg107
(dp4581
S'tx B-tx A'
p4582
(dp4583
g72
Nsg73
Nsg74
Nsg75
Nsg76
Nsg77
Nsg78
NssS'tx A-tx B'
p4584
(dp4585
g72
Nsg73
Nsg74
Nsg75
Nsg76
Nsg77
Nsg78
Nsssg113
(dp4586
S'tx B-tx A'
p4587
(dp4588
g72
Nsg73
Nsg74
Nsg75
Nsg76
Nsg77
Nsg78
NssS'tx A-tx B'
p4589
(dp4590
g72
Nsg73
Nsg74
Nsg75
Nsg76
Nsg77
Nsg78
Nsssg119
(dp4591
g51
(dp4592
g72
Nsg73
Nsg74
Nsg75
Nsg76
Nsg77
Nsg78
Nssg57
(dp4593
g72
Nsg73
Nsg74
Nsg75
Nsg76
Nsg77
Nsg78
Nsssg123
(dp4594
g51
(dp4595
g72
Nsg73
Nsg74
Nsg75
Nsg76
Nsg77
Nsg78
Nssg57
(dp4596
g72
Nsg73
Nsg74
Nsg75
Nsg76
Nsg77
Nsg78
Nsssg127
(dp4597
g51
(dp4598
g72
Nsg73
Nsg74
Nsg75
Nsg76
Nsg77
Nsg78
Nssg57
(dp4599
g72
Nsg73
Nsg74
Nsg75
Nsg76
Nsg77
Nsg78
Nsssg131
(dp4600
S'tx B-tx A'
p4601
(dp4602
g72
Nsg73
Nsg74
Nsg75
Nsg76
Nsg77
Nsg78
NssS'tx A-tx B'
p4603
(dp4604
g72
F1.1301982930067316
sg73
F-0.37289059169171668
sg74
F0.37865385065750745
sg75
F3.0962704080247394
sg76
F1.46031746031746
sg77
F0.68874058266392779
sg78
Nssssg137
I2
sbsssg138
I00
sg139
I1969
sg140
(lp4605
g62
asg56
I62
sba(ima_dataset
Study
p4606
(dp4607
g29
I01
sg30
VEWP
p4608
sg32
(dp4609
g34
g35
(g36
S'QString'
p4610
(V4
p4611
tp4612
tp4613
Rp4614
sg42
F21.0
ssg18
g19
sg43
Nsg44
(dp4615
g7
(dp4616
g12
(ima_dataset
MetaAnalyticUnit
p4617
(dp4618
g22
I00
sg49
(dp4619
g51
(ima_dataset
TreatmentGroup
p4620
(dp4621
g54
(lp4622
F8.0
aF31.0
asg56
I0
sg30
g51
sbsg57
(ima_dataset
TreatmentGroup
p4623
(dp4624
g54
(lp4625
F10.0
aF29.0
asg56
I1
sg30
g57
sbssg61
g62
sg66
(dp4626
g68
(dp4627
S'tx B-tx A'
p4628
(dp4629
g72
Nsg73
Nsg74
Nsg75
Nsg76
Nsg77
Nsg78
NssS'tx A-tx B'
p4630
(dp4631
g72
Nsg73
Nsg74
Nsg75
Nsg76
Nsg77
Nsg78
Nsssg81
(dp4632
g51
(dp4633
g72
Nsg73
Nsg74
Nsg75
Nsg76
Nsg77
Nsg78
Nssg57
(dp4634
g72
Nsg73
Nsg74
Nsg75
Nsg76
Nsg77
Nsg78
Nsssg85
(dp4635
g51
(dp4636
g72
Nsg73
Nsg74
Nsg75
Nsg76
Nsg77
Nsg78
Nssg57
(dp4637
g72
Nsg73
Nsg74
Nsg75
Nsg76
Nsg77
Nsg78
Nsssg89
(dp4638
S'tx B-tx A'
p4639
(dp4640
g72
Nsg73
Nsg74
Nsg75
Nsg76
Nsg77
Nsg78
NssS'tx A-tx B'
p4641
(dp4642
g72
Nsg73
Nsg74
Nsg75
Nsg76
Nsg77
Nsg78
Nsssg95
(dp4643
S'tx B-tx A'
p4644
(dp4645
g72
Nsg73
Nsg74
Nsg75
Nsg76
Nsg77
Nsg78
NssS'tx A-tx B'
p4646
(dp4647
g72
Nsg73
Nsg74
Nsg75
Nsg76
Nsg77
Nsg78
Nsssg101
(dp4648
S'tx B-tx A'
p4649
(dp4650
g72
Nsg73
Nsg74
Nsg75
Nsg76
Nsg77
Nsg78
NssS'tx A-tx B'
p4651
(dp4652
g72
Nsg73
Nsg74
Nsg75
Nsg76
Nsg77
Nsg78
Nsssg107
(dp4653
S'tx B-tx A'
p4654
(dp4655
g72
Nsg73
Nsg74
Nsg75
Nsg76
Nsg77
Nsg78
NssS'tx A-tx B'
p4656
(dp4657
g72
Nsg73
Nsg74
Nsg75
Nsg76
Nsg77
Nsg78
Nsssg113
(dp4658
S'tx B-tx A'
p4659
(dp4660
g72
Nsg73
Nsg74
Nsg75
Nsg76
Nsg77
Nsg78
NssS'tx A-tx B'
p4661
(dp4662
g72
Nsg73
Nsg74
Nsg75
Nsg76
Nsg77
Nsg78
Nsssg119
(dp4663
g51
(dp4664
g72
Nsg73
Nsg74
Nsg75
Nsg76
Nsg77
Nsg78
Nssg57
(dp4665
g72
Nsg73
Nsg74
Nsg75
Nsg76
Nsg77
Nsg78
Nsssg123
(dp4666
g51
(dp4667
g72
Nsg73
Nsg74
Nsg75
Nsg76
Nsg77
Nsg78
Nssg57
(dp4668
g72
Nsg73
Nsg74
Nsg75
Nsg76
Nsg77
Nsg78
Nsssg127
(dp4669
g51
(dp4670
g72
Nsg73
Nsg74
Nsg75
Nsg76
Nsg77
Nsg78
Nssg57
(dp4671
g72
Nsg73
Nsg74
Nsg75
Nsg76
Nsg77
Nsg78
Nsssg131
(dp4672
S'tx B-tx A'
p4673
(dp4674
g72
Nsg73
Nsg74
Nsg75
Nsg76
Nsg77
Nsg78
NssS'tx A-tx B'
p4675
(dp4676
g72
F0.69644527127622791
sg73
F-1.5248428474300662
sg74
F-0.41419878807691912
sg75
F2.0066070708030241
sg76
F0.66086956521739126
sg77
F0.21765525926101778
sg78
Nssssg137
I2
sbsssg138
I00
sg139
I1971
sg140
(lp4677
g62
asg56
I63
sba(ima_dataset
Study
p4678
(dp4679
g29
I01
sg30
VHeikinheim
p4680
sg32
(dp4681
g34
g35
(g36
S'QString'
p4682
(V4
p4683
tp4684
tp4685
Rp4686
sg42
F22.0
ssg18
g19
sg43
Nsg44
(dp4687
g7
(dp4688
g12
(ima_dataset
MetaAnalyticUnit
p4689
(dp4690
g22
I00
sg49
(dp4691
g51
(ima_dataset
TreatmentGroup
p4692
(dp4693
g54
(lp4694
F8.0
aF74.0
asg56
I0
sg30
g51
sbsg57
(ima_dataset
TreatmentGroup
p4695
(dp4696
g54
(lp4697
F5.0
aF71.0
asg56
I1
sg30
g57
sbssg61
g62
sg66
(dp4698
g68
(dp4699
S'tx B-tx A'
p4700
(dp4701
g72
Nsg73
Nsg74
Nsg75
Nsg76
Nsg77
Nsg78
NssS'tx A-tx B'
p4702
(dp4703
g72
Nsg73
Nsg74
Nsg75
Nsg76
Nsg77
Nsg78
Nsssg81
(dp4704
g51
(dp4705
g72
Nsg73
Nsg74
Nsg75
Nsg76
Nsg77
Nsg78
Nssg57
(dp4706
g72
Nsg73
Nsg74
Nsg75
Nsg76
Nsg77
Nsg78
Nsssg85
(dp4707
g51
(dp4708
g72
Nsg73
Nsg74
Nsg75
Nsg76
Nsg77
Nsg78
Nssg57
(dp4709
g72
Nsg73
Nsg74
Nsg75
Nsg76
Nsg77
Nsg78
Nsssg89
(dp4710
S'tx B-tx A'
p4711
(dp4712
g72
Nsg73
Nsg74
Nsg75
Nsg76
Nsg77
Nsg78
NssS'tx A-tx B'
p4713
(dp4714
g72
Nsg73
Nsg74
Nsg75
Nsg76
Nsg77
Nsg78
Nsssg95
(dp4715
S'tx B-tx A'
p4716
(dp4717
g72
Nsg73
Nsg74
Nsg75
Nsg76
Nsg77
Nsg78
NssS'tx A-tx B'
p4718
(dp4719
g72
Nsg73
Nsg74
Nsg75
Nsg76
Nsg77
Nsg78
Nsssg101
(dp4720
S'tx B-tx A'
p4721
(dp4722
g72
Nsg73
Nsg74
Nsg75
Nsg76
Nsg77
Nsg78
NssS'tx A-tx B'
p4723
(dp4724
g72
Nsg73
Nsg74
Nsg75
Nsg76
Nsg77
Nsg78
Nsssg107
(dp4725
S'tx B-tx A'
p4726
(dp4727
g72
Nsg73
Nsg74
Nsg75
Nsg76
Nsg77
Nsg78
NssS'tx A-tx B'
p4728
(dp4729
g72
Nsg73
Nsg74
Nsg75
Nsg76
Nsg77
Nsg78
Nsssg113
(dp4730
S'tx B-tx A'
p4731
(dp4732
g72
Nsg73
Nsg74
Nsg75
Nsg76
Nsg77
Nsg78
NssS'tx A-tx B'
p4733
(dp4734
g72
Nsg73
Nsg74
Nsg75
Nsg76
Nsg77
Nsg78
Nsssg119
(dp4735
g51
(dp4736
g72
Nsg73
Nsg74
Nsg75
Nsg76
Nsg77
Nsg78
Nssg57
(dp4737
g72
Nsg73
Nsg74
Nsg75
Nsg76
Nsg77
Nsg78
Nsssg123
(dp4738
g51
(dp4739
g72
Nsg73
Nsg74
Nsg75
Nsg76
Nsg77
Nsg78
Nssg57
(dp4740
g72
Nsg73
Nsg74
Nsg75
Nsg76
Nsg77
Nsg78
Nsssg127
(dp4741
g51
(dp4742
g72
Nsg73
Nsg74
Nsg75
Nsg76
Nsg77
Nsg78
Nssg57
(dp4743
g72
Nsg73
Nsg74
Nsg75
Nsg76
Nsg77
Nsg78
Nsssg131
(dp4744
S'tx B-tx A'
p4745
(dp4746
g72
Nsg73
Nsg74
Nsg75
Nsg76
Nsg77
Nsg78
NssS'tx A-tx B'
p4747
(dp4748
g72
F1.6382852561563566
sg73
F-0.69827799766488519
sg74
F0.47000362924573569
sg75
F5.14633729171267
sg76
F1.6000000000000003
sg77
F0.49744116152714274
sg78
Nssssg137
I2
sbsssg138
I00
sg139
I1971
sg140
(lp4749
g62
asg56
I64
sba(ima_dataset
Study
p4750
(dp4751
g29
I00
sg30
g19
sg32
(dp4752
g34
Nsg42
Nssg18
g19
sg43
Nsg44
(dp4753
g7
(dp4754
g12
(ima_dataset
MetaAnalyticUnit
p4755
(dp4756
g22
I00
sg49
(dp4757
g51
(ima_dataset
TreatmentGroup
p4758
(dp4759
g54
(lp4760
g19
ag19
asg56
I0
sg30
g51
sbsg57
(ima_dataset
TreatmentGroup
p4761
(dp4762
g54
(lp4763
g19
ag19
asg56
I1
sg30
g57
sbssg61
g62
sg66
(dp4764
g68
(dp4765
S'tx B-tx A'
p4766
(dp4767
g72
Nsg73
Nsg74
Nsg75
Nsg76
Nsg77
Nsg78
NssS'tx A-tx B'
p4768
(dp4769
g72
Nsg73
Nsg74
Nsg75
Nsg76
Nsg77
Nsg78
Nsssg81
(dp4770
g51
(dp4771
g72
Nsg73
Nsg74
Nsg75
Nsg76
Nsg77
Nsg78
Nssg57
(dp4772
g72
Nsg73
Nsg74
Nsg75
Nsg76
Nsg77
Nsg78
Nsssg85
(dp4773
g51
(dp4774
g72
Nsg73
Nsg74
Nsg75
Nsg76
Nsg77
Nsg78
Nssg57
(dp4775
g72
Nsg73
Nsg74
Nsg75
Nsg76
Nsg77
Nsg78
Nsssg89
(dp4776
S'tx B-tx A'
p4777
(dp4778
g72
Nsg73
Nsg74
Nsg75
Nsg76
Nsg77
Nsg78
NssS'tx A-tx B'
p4779
(dp4780
g72
Nsg73
Nsg74
Nsg75
Nsg76
Nsg77
Nsg78
Nsssg95
(dp4781
S'tx B-tx A'
p4782
(dp4783
g72
Nsg73
Nsg74
Nsg75
Nsg76
Nsg77
Nsg78
NssS'tx A-tx B'
p4784
(dp4785
g72
Nsg73
Nsg74
Nsg75
Nsg76
Nsg77
Nsg78
Nsssg101
(dp4786
S'tx B-tx A'
p4787
(dp4788
g72
Nsg73
Nsg74
Nsg75
Nsg76
Nsg77
Nsg78
NssS'tx A-tx B'
p4789
(dp4790
g72
Nsg73
Nsg74
Nsg75
Nsg76
Nsg77
Nsg78
Nsssg107
(dp4791
S'tx B-tx A'
p4792
(dp4793
g72
Nsg73
Nsg74
Nsg75
Nsg76
Nsg77
Nsg78
NssS'tx A-tx B'
p4794
(dp4795
g72
Nsg73
Nsg74
Nsg75
Nsg76
Nsg77
Nsg78
Nsssg113
(dp4796
S'tx B-tx A'
p4797
(dp4798
g72
Nsg73
Nsg74
Nsg75
Nsg76
Nsg77
Nsg78
NssS'tx A-tx B'
p4799
(dp4800
g72
Nsg73
Nsg74
Nsg75
Nsg76
Nsg77
Nsg78
Nsssg119
(dp4801
g51
(dp4802
g72
Nsg73
Nsg74
Nsg75
Nsg76
Nsg77
Nsg78
Nssg57
(dp4803
g72
Nsg73
Nsg74
Nsg75
Nsg76
Nsg77
Nsg78
Nsssg123
(dp4804
g51
(dp4805
g72
Nsg73
Nsg74
Nsg75
Nsg76
Nsg77
Nsg78
Nssg57
(dp4806
g72
Nsg73
Nsg74
Nsg75
Nsg76
Nsg77
Nsg78
Nsssg127
(dp4807
g51
(dp4808
g72
Nsg73
Nsg74
Nsg75
Nsg76
Nsg77
Nsg78
Nssg57
(dp4809
g72
Nsg73
Nsg74
Nsg75
Nsg76
Nsg77
Nsg78
Nsssg131
(dp4810
S'tx B-tx A'
p4811
(dp4812
g72
Nsg73
Nsg74
Nsg75
Nsg76
Nsg77
Nsg78
NssS'tx A-tx B'
p4813
(dp4814
g72
Nsg73
Nsg74
Nsg75
Nsg76
Nsg77
Nsg78
Nssssg137
I2
sbsssg138
I00
sg139
Nsg140
(lp4815
g62
asg56
I65
sbasS'covariates'
p4816
(lp4817
(ima_dataset
Covariate
p4818
(dp4819
g30
g42
sg65
I1
sba(ima_dataset
Covariate
p4820
(dp4821
S'name'
p4822
g34
sS'data_type'
p4823
I4
sbasb.