(ima_dataset
Dataset
p0
(dp1
S'num_outcomes'
p2
I0
sS'title'
p3
Vaminoglycosides
p4
sS'outcome_names_to_follow_ups'
p5
(dp6
Vnephrotoxic
p7
ccopy_reg
_reconstructor
p8
(ctwo_way_dict
TwoWayDict
p9
c__builtin__
dict
p10
(dp11
I0
S'first'
p12
stp13
Rp14
(dp15
S'_reverse_map'
p16
(dp17
g12
I0
ssbsVclinical failure
p18
g8
(g9
g10
(dp19
I0
S'first'
p20
stp21
Rp22
(dp23
g16
(dp24
g20
I0
ssbssS'notes'
p25
S''
p26
sS'num_follow_ups'
p27
I0
sS'num_treatments'
p28
I0
sS'is_diag'
p29
I00
sS'summary'
p30
NsS'studies'
p31
(lp32
(ima_dataset
Study
p33
(dp34
S'include'
p35
I01
sS'name'
p36
VGonzalez
p37
sS'covariate_dict'
p38
(dp39
sg25
g26
sS'outcomes'
p40
(lp41
(ima_dataset
Outcome
p42
(dp43
S'links'
p44
Nsg36
g18
sS'data_type'
p45
I0
sba(ima_dataset
Outcome
p46
(dp47
g44
Nsg36
g7
sg45
I0
sbasS'outcomes_to_follow_ups'
p48
(dp49
g7
(dp50
g12
(ima_dataset
MetaAnalyticUnit
p51
(dp52
g29
I00
sS'tx_groups'
p53
(dp54
Vtx A
p55
(ima_dataset
TreatmentGroup
p56
(dp57
S'raw_data'
p58
(lp59
F5.0
aF27.0
asS'id'
p60
I0
sg36
S'tx A'
p61
sbsVtx B
p62
(ima_dataset
TreatmentGroup
p63
(dp64
g58
(lp65
F4.0
aF27.0
asg60
I1
sg36
S'tx B'
p66
sbssS'outcome'
p67
g46
sS'effects_dict'
p68
(dp69
S'YUY'
p70
(dp71
Vtx B-tx A
p72
(dp73
S'upper'
p74
NsS'lower'
p75
NsS'est'
p76
NsS'display_upper'
p77
NsS'display_est'
p78
NsS'display_lower'
p79
NsS'SE'
p80
NssVtx A-tx B
p81
(dp82
g74
Nsg75
Nsg76
Nsg77
Nsg78
Nsg79
Nsg80
NsssS'PR'
p83
(dp84
g55
(dp85
g74
Nsg75
Nsg76
Nsg77
Nsg78
Nsg79
Nsg80
Nssg62
(dp86
g74
Nsg75
Nsg76
Nsg77
Nsg78
Nsg79
Nsg80
NsssS'PAS'
p87
(dp88
g55
(dp89
g74
Nsg75
Nsg76
Nsg77
Nsg78
Nsg79
Nsg80
Nssg62
(dp90
g74
Nsg75
Nsg76
Nsg77
Nsg78
Nsg79
Nsg80
NsssS'RR'
p91
(dp92
Vtx B-tx A
p93
(dp94
g74
Nsg75
Nsg76
Nsg77
Nsg78
Nsg79
Nsg80
NssVtx A-tx B
p95
(dp96
g74
F1.4248523197251561
sg75
F-0.9785652170967367
sg76
F0.2231435513142097
sg77
F4.15724385450512
sg78
F1.25
sg79
F0.3758499752923444
sg80
NsssS'YUQ'
p97
(dp98
Vtx B-tx A
p99
(dp100
g74
Nsg75
Nsg76
Nsg77
Nsg78
Nsg79
Nsg80
NssVtx A-tx B
p101
(dp102
g74
Nsg75
Nsg76
Nsg77
Nsg78
Nsg79
Nsg80
NsssS'PETO'
p103
(dp104
Vtx B-tx A
p105
(dp106
g74
Nsg75
Nsg76
Nsg77
Nsg78
Nsg79
Nsg80
NssVtx A-tx B
p107
(dp108
g74
Nsg75
Nsg76
Nsg77
Nsg78
Nsg79
Nsg80
NsssS'RD'
p109
(dp110
Vtx B-tx A
p111
(dp112
g74
Nsg75
Nsg76
Nsg77
Nsg78
Nsg79
Nsg80
NssVtx A-tx B
p113
(dp114
g74
Nsg75
Nsg76
Nsg77
Nsg78
Nsg79
Nsg80
NsssS'AS'
p115
(dp116
Vtx B-tx A
p117
(dp118
g74
Nsg75
Nsg76
Nsg77
Nsg78
Nsg79
Nsg80
NssVtx A-tx B
p119
(dp120
g74
Nsg75
Nsg76
Nsg77
Nsg78
Nsg79
Nsg80
NsssS'PFT'
p121
(dp122
g55
(dp123
g74
Nsg75
Nsg76
Nsg77
Nsg78
Nsg79
Nsg80
Nssg62
(dp124
g74
Nsg75
Nsg76
Nsg77
Nsg78
Nsg79
Nsg80
NsssS'PLO'
p125
(dp126
g55
(dp127
g74
Nsg75
Nsg76
Nsg77
Nsg78
Nsg79
Nsg80
Nssg62
(dp128
g74
Nsg75
Nsg76
Nsg77
Nsg78
Nsg79
Nsg80
NsssS'PLN'
p129
(dp130
g55
(dp131
g74
Nsg75
Nsg76
Nsg77
Nsg78
Nsg79
Nsg80
Nssg62
(dp132
g74
Nsg75
Nsg76
Nsg77
Nsg78
Nsg79
Nsg80
NsssS'OR'
p133
(dp134
Vtx B-tx A
p135
(dp136
g74
F1.1712542900052285
sg75
F-1.7064449177753156
sg76
F-0.26759531388504354
sg77
F3.2260364872412746
sg78
F0.7652173913043478
sg79
F0.18150992968320936
sg80
NssVtx A-tx B
p137
(dp138
g74
F1.7064449177753156
sg75
F-1.1712542900052285
sg76
F0.26759531388504354
sg77
F5.509340462779681
sg78
F1.3068181818181817
sg79
F0.3099778951524333
sg80
NssssS'raw_data_length'
p139
I2
sbssg18
(dp140
N(ima_dataset
MetaAnalyticUnit
p141
(dp142
g68
(dp143
S'YUY'
p144
(dp145
S'tx B-tx A'
p146
(dp147
S'upper'
p148
NsS'lower'
p149
NsS'est'
p150
NsS'display_upper'
p151
NsS'display_est'
p152
NsS'display_lower'
p153
NsS'SE'
p154
NssS'tx A-tx B'
p155
(dp156
g148
Nsg149
Nsg150
Nsg151
Nsg152
Nsg153
Nsg154
NsssS'PR'
p157
(dp158
S'tx A'
p159
(dp160
g148
Nsg149
Nsg150
Nsg151
Nsg152
Nsg153
Nsg154
NssS'tx B'
p161
(dp162
g148
Nsg149
Nsg150
Nsg151
Nsg152
Nsg153
Nsg154
NsssS'PAS'
p163
(dp164
g159
(dp165
g148
Nsg149
Nsg150
Nsg151
Nsg152
Nsg153
Nsg154
Nssg161
(dp166
g148
Nsg149
Nsg150
Nsg151
Nsg152
Nsg153
Nsg154
NsssS'RR'
p167
(dp168
S'tx B-tx A'
p169
(dp170
g148
Nsg149
Nsg150
Nsg151
Nsg152
Nsg153
Nsg154
NssS'tx A-tx B'
p171
(dp172
g148
Nsg149
Nsg150
Nsg151
Nsg152
Nsg153
Nsg154
NsssS'YUQ'
p173
(dp174
S'tx B-tx A'
p175
(dp176
g148
Nsg149
Nsg150
Nsg151
Nsg152
Nsg153
Nsg154
NssS'tx A-tx B'
p177
(dp178
g148
Nsg149
Nsg150
Nsg151
Nsg152
Nsg153
Nsg154
NsssS'RD'
p179
(dp180
S'tx B-tx A'
p181
(dp182
g148
Nsg149
Nsg150
Nsg151
Nsg152
Nsg153
Nsg154
NssS'tx A-tx B'
p183
(dp184
g148
Nsg149
Nsg150
Nsg151
Nsg152
Nsg153
Nsg154
NsssS'AS'
p185
(dp186
S'tx B-tx A'
p187
(dp188
g148
Nsg149
Nsg150
Nsg151
Nsg152
Nsg153
Nsg154
NssS'tx A-tx B'
p189
(dp190
g148
Nsg149
Nsg150
Nsg151
Nsg152
Nsg153
Nsg154
NsssS'PFT'
p191
(dp192
g159
(dp193
g148
Nsg149
Nsg150
Nsg151
Nsg152
Nsg153
Nsg154
Nssg161
(dp194
g148
Nsg149
Nsg150
Nsg151
Nsg152
Nsg153
Nsg154
NsssS'PLO'
p195
(dp196
g159
(dp197
g148
Nsg149
Nsg150
Nsg151
Nsg152
Nsg153
Nsg154
Nssg161
(dp198
g148
Nsg149
Nsg150
Nsg151
Nsg152
Nsg153
Nsg154
NsssS'PLN'
p199
(dp200
g159
(dp201
g148
Nsg149
Nsg150
Nsg151
Nsg152
Nsg153
Nsg154
Nssg161
(dp202
g148
Nsg149
Nsg150
Nsg151
Nsg152
Nsg153
Nsg154
NsssS'OR'
p203
(dp204
S'tx B-tx A'
p205
(dp206
g148
Nsg149
Nsg150
Nsg151
Nsg152
Nsg153
Nsg154
NssS'tx A-tx B'
p207
(dp208
g148
Nsg149
Nsg150
Nsg151
Nsg152
Nsg153
Nsg154
Nssssg53
(dp209
g159
(ima_dataset
TreatmentGroup
p210
(dp211
g58
(lp212
g26
ag26
asg60
I0
sg36
g159
sbsg161
(ima_dataset
TreatmentGroup
p213
(dp214
g58
(lp215
g26
ag26
asg60
I1
sg36
g161
sbssg67
g42
sg29
I00
sg139
I2
sbsg20
(ima_dataset
MetaAnalyticUnit
p216
(dp217
g29
I00
sg53
(dp218
g55
(ima_dataset
TreatmentGroup
p219
(dp220
g58
(lp221
F6.0
aF27.0
asg60
I0
sg36
g61
sbsg62
(ima_dataset
TreatmentGroup
p222
(dp223
g58
(lp224
F9.0
aF27.0
asg60
I1
sg36
g66
sbssg67
g42
sg68
(dp225
S'YUY'
p226
(dp227
Vtx B-tx A
p228
(dp229
S'upper'
p230
NsS'lower'
p231
NsS'est'
p232
NsS'display_upper'
p233
NsS'display_est'
p234
NsS'display_lower'
p235
NsS'SE'
p236
NssVtx A-tx B
p237
(dp238
g230
Nsg231
Nsg232
Nsg233
Nsg234
Nsg235
Nsg236
NsssS'PR'
p239
(dp240
g55
(dp241
g230
Nsg231
Nsg232
Nsg233
Nsg234
Nsg235
Nsg236
Nssg62
(dp242
g230
Nsg231
Nsg232
Nsg233
Nsg234
Nsg235
Nsg236
NsssS'PAS'
p243
(dp244
g55
(dp245
g230
Nsg231
Nsg232
Nsg233
Nsg234
Nsg235
Nsg236
Nssg62
(dp246
g230
Nsg231
Nsg232
Nsg233
Nsg234
Nsg235
Nsg236
NsssS'RR'
p247
(dp248
Vtx B-tx A
p249
(dp250
g230
F1.290066368225204
sg231
F-0.4791361520088754
sg232
F0.4054651081081644
sg233
F3.633027665349979
sg234
F1.5
sg235
F0.6193181575409917
sg236
NssVtx A-tx B
p251
(dp252
g230
F0.4791361520088754
sg231
F-1.290066368225204
sg232
F-0.4054651081081644
sg233
F1.6146789623777686
sg234
F0.6666666666666666
sg235
F0.275252514462663
sg236
NsssS'YUQ'
p253
(dp254
Vtx B-tx A
p255
(dp256
g230
Nsg231
Nsg232
Nsg233
Nsg234
Nsg235
Nsg236
NssVtx A-tx B
p257
(dp258
g230
Nsg231
Nsg232
Nsg233
Nsg234
Nsg235
Nsg236
NsssS'PETO'
p259
(dp260
Vtx B-tx A
p261
(dp262
g230
Nsg231
Nsg232
Nsg233
Nsg234
Nsg235
Nsg236
NssVtx A-tx B
p263
(dp264
g230
Nsg231
Nsg232
Nsg233
Nsg234
Nsg235
Nsg236
NsssS'RD'
p265
(dp266
Vtx B-tx A
p267
(dp268
g230
Nsg231
Nsg232
Nsg233
Nsg234
Nsg235
Nsg236
NssVtx A-tx B
p269
(dp270
g230
Nsg231
Nsg232
Nsg233
Nsg234
Nsg235
Nsg236
NsssS'AS'
p271
(dp272
Vtx B-tx A
p273
(dp274
g230
Nsg231
Nsg232
Nsg233
Nsg234
Nsg235
Nsg236
NssVtx A-tx B
p275
(dp276
g230
Nsg231
Nsg232
Nsg233
Nsg234
Nsg235
Nsg236
NsssS'PFT'
p277
(dp278
g55
(dp279
g230
Nsg231
Nsg232
Nsg233
Nsg234
Nsg235
Nsg236
Nssg62
(dp280
g230
Nsg231
Nsg232
Nsg233
Nsg234
Nsg235
Nsg236
NsssS'PLO'
p281
(dp282
g55
(dp283
g230
Nsg231
Nsg232
Nsg233
Nsg234
Nsg235
Nsg236
Nssg62
(dp284
g230
Nsg231
Nsg232
Nsg233
Nsg234
Nsg235
Nsg236
NsssS'PLN'
p285
(dp286
g55
(dp287
g230
Nsg231
Nsg232
Nsg233
Nsg234
Nsg235
Nsg236
Nssg62
(dp288
g230
Nsg231
Nsg232
Nsg233
Nsg234
Nsg235
Nsg236
NsssS'OR'
p289
(dp290
Vtx B-tx A
p291
(dp292
g230
F1.7693318224137426
sg231
F-0.6501002465428974
sg232
F0.5596157879354225
sg233
F5.8669318990168495
sg234
F1.7499999999999998
sg235
F0.5219934460996893
sg236
NssVtx A-tx B
p293
(dp294
g230
F0.6501002465428976
sg231
F-1.7693318224137429
sg232
F-0.5596157879354227
sg233
F1.9157328649850942
sg234
F0.5714285714285714
sg235
F0.1704468395427557
sg236
Nssssg139
I2
sbsssS'manually_excluded'
p295
I00
sS'year'
p296
I1993
sS'N'
p297
Nsg60
I0
sba(ima_dataset
Study
p298
(dp299
g35
I01
sg36
VPrins
p300
sg38
(dp301
sg25
g26
sg40
(lp302
g42
ag46
asg48
(dp303
g7
(dp304
g12
(ima_dataset
MetaAnalyticUnit
p305
(dp306
g29
I00
sg53
(dp307
g55
(ima_dataset
TreatmentGroup
p308
(dp309
g58
(lp310
F2.0
aF59.0
asg60
I0
sg36
g61
sbsg62
(ima_dataset
TreatmentGroup
p311
(dp312
g58
(lp313
F11.0
aF64.0
asg60
I1
sg36
g66
sbssg67
g46
sg68
(dp314
g70
(dp315
Vtx B-tx A
p316
(dp317
g74
Nsg75
Nsg76
Nsg77
Nsg78
Nsg79
Nsg80
NssVtx A-tx B
p318
(dp319
g74
Nsg75
Nsg76
Nsg77
Nsg78
Nsg79
Nsg80
Nsssg83
(dp320
g55
(dp321
g74
Nsg75
Nsg76
Nsg77
Nsg78
Nsg79
Nsg80
Nssg62
(dp322
g74
Nsg75
Nsg76
Nsg77
Nsg78
Nsg79
Nsg80
Nsssg87
(dp323
g55
(dp324
g74
Nsg75
Nsg76
Nsg77
Nsg78
Nsg79
Nsg80
Nssg62
(dp325
g74
Nsg75
Nsg76
Nsg77
Nsg78
Nsg79
Nsg80
Nsssg91
(dp326
Vtx B-tx A
p327
(dp328
g74
Nsg75
Nsg76
Nsg77
Nsg78
Nsg79
Nsg80
NssVtx A-tx B
p329
(dp330
g74
F-0.15888182340073564
sg75
F-3.0879230821682104
sg76
F-1.623402452784473
sg77
F0.8530971691346033
sg78
F0.19722650231124803
sg79
F0.045596556431417815
sg80
Nsssg97
(dp331
Vtx B-tx A
p332
(dp333
g74
Nsg75
Nsg76
Nsg77
Nsg78
Nsg79
Nsg80
NssVtx A-tx B
p334
(dp335
g74
Nsg75
Nsg76
Nsg77
Nsg78
Nsg79
Nsg80
Nsssg103
(dp336
Vtx B-tx A
p337
(dp338
g74
Nsg75
Nsg76
Nsg77
Nsg78
Nsg79
Nsg80
NssVtx A-tx B
p339
(dp340
g74
Nsg75
Nsg76
Nsg77
Nsg78
Nsg79
Nsg80
Nsssg109
(dp341
Vtx B-tx A
p342
(dp343
g74
Nsg75
Nsg76
Nsg77
Nsg78
Nsg79
Nsg80
NssVtx A-tx B
p344
(dp345
g74
Nsg75
Nsg76
Nsg77
Nsg78
Nsg79
Nsg80
Nsssg115
(dp346
Vtx B-tx A
p347
(dp348
g74
Nsg75
Nsg76
Nsg77
Nsg78
Nsg79
Nsg80
NssVtx A-tx B
p349
(dp350
g74
Nsg75
Nsg76
Nsg77
Nsg78
Nsg79
Nsg80
Nsssg121
(dp351
g55
(dp352
g74
Nsg75
Nsg76
Nsg77
Nsg78
Nsg79
Nsg80
Nssg62
(dp353
g74
Nsg75
Nsg76
Nsg77
Nsg78
Nsg79
Nsg80
Nsssg125
(dp354
g55
(dp355
g74
Nsg75
Nsg76
Nsg77
Nsg78
Nsg79
Nsg80
Nssg62
(dp356
g74
Nsg75
Nsg76
Nsg77
Nsg78
Nsg79
Nsg80
Nsssg129
(dp357
g55
(dp358
g74
Nsg75
Nsg76
Nsg77
Nsg78
Nsg79
Nsg80
Nssg62
(dp359
g74
Nsg75
Nsg76
Nsg77
Nsg78
Nsg79
Nsg80
Nsssg133
(dp360
Vtx B-tx A
p361
(dp362
g74
F3.3298692951266005
sg75
F0.2251455979151067
sg76
F1.7775074465208536
sg77
F27.934690264456812
sg78
F5.915094339622642
sg79
F1.2525050650428668
sg80
NssVtx A-tx B
p363
(dp364
g74
F-0.2251455979151067
sg75
F-3.3298692951266005
sg76
F-1.7775074465208536
sg77
F0.7983999649261101
sg78
F0.16905901116427433
sg79
F0.035797783706675544
sg80
Nssssg139
I2
sbssg18
(dp365
N(ima_dataset
MetaAnalyticUnit
p366
(dp367
g68
(dp368
g144
(dp369
S'tx B-tx A'
p370
(dp371
g148
Nsg149
Nsg150
Nsg151
Nsg152
Nsg153
Nsg154
NssS'tx A-tx B'
p372
(dp373
g148
Nsg149
Nsg150
Nsg151
Nsg152
Nsg153
Nsg154
Nsssg157
(dp374
g159
(dp375
g148
Nsg149
Nsg150
Nsg151
Nsg152
Nsg153
Nsg154
Nssg161
(dp376
g148
Nsg149
Nsg150
Nsg151
Nsg152
Nsg153
Nsg154
Nsssg163
(dp377
g159
(dp378
g148
Nsg149
Nsg150
Nsg151
Nsg152
Nsg153
Nsg154
Nssg161
(dp379
g148
Nsg149
Nsg150
Nsg151
Nsg152
Nsg153
Nsg154
Nsssg167
(dp380
S'tx B-tx A'
p381
(dp382
g148
Nsg149
Nsg150
Nsg151
Nsg152
Nsg153
Nsg154
NssS'tx A-tx B'
p383
(dp384
g148
Nsg149
Nsg150
Nsg151
Nsg152
Nsg153
Nsg154
Nsssg173
(dp385
S'tx B-tx A'
p386
(dp387
g148
Nsg149
Nsg150
Nsg151
Nsg152
Nsg153
Nsg154
NssS'tx A-tx B'
p388
(dp389
g148
Nsg149
Nsg150
Nsg151
Nsg152
Nsg153
Nsg154
Nsssg179
(dp390
S'tx B-tx A'
p391
(dp392
g148
Nsg149
Nsg150
Nsg151
Nsg152
Nsg153
Nsg154
NssS'tx A-tx B'
p393
(dp394
g148
Nsg149
Nsg150
Nsg151
Nsg152
Nsg153
Nsg154
Nsssg185
(dp395
S'tx B-tx A'
p396
(dp397
g148
Nsg149
Nsg150
Nsg151
Nsg152
Nsg153
Nsg154
NssS'tx A-tx B'
p398
(dp399
g148
Nsg149
Nsg150
Nsg151
Nsg152
Nsg153
Nsg154
Nsssg191
(dp400
g159
(dp401
g148
Nsg149
Nsg150
Nsg151
Nsg152
Nsg153
Nsg154
Nssg161
(dp402
g148
Nsg149
Nsg150
Nsg151
Nsg152
Nsg153
Nsg154
Nsssg195
(dp403
g159
(dp404
g148
Nsg149
Nsg150
Nsg151
Nsg152
Nsg153
Nsg154
Nssg161
(dp405
g148
Nsg149
Nsg150
Nsg151
Nsg152
Nsg153
Nsg154
Nsssg199
(dp406
g159
(dp407
g148
Nsg149
Nsg150
Nsg151
Nsg152
Nsg153
Nsg154
Nssg161
(dp408
g148
Nsg149
Nsg150
Nsg151
Nsg152
Nsg153
Nsg154
Nsssg203
(dp409
S'tx B-tx A'
p410
(dp411
g148
Nsg149
Nsg150
Nsg151
Nsg152
Nsg153
Nsg154
NssS'tx A-tx B'
p412
(dp413
g148
Nsg149
Nsg150
Nsg151
Nsg152
Nsg153
Nsg154
Nssssg53
(dp414
g159
(ima_dataset
TreatmentGroup
p415
(dp416
g58
(lp417
g26
ag26
asg60
I0
sg36
g159
sbsg161
(ima_dataset
TreatmentGroup
p418
(dp419
g58
(lp420
g26
ag26
asg60
I1
sg36
g161
sbssg67
g42
sg29
I00
sg139
I2
sbsg20
(ima_dataset
MetaAnalyticUnit
p421
(dp422
g29
I00
sg53
(dp423
g55
(ima_dataset
TreatmentGroup
p424
(dp425
g58
(lp426
F3.0
aF59.0
asg60
I0
sg36
g61
sbsg62
(ima_dataset
TreatmentGroup
p427
(dp428
g58
(lp429
F7.0
aF64.0
asg60
I1
sg36
g66
sbssg67
g42
sg68
(dp430
g226
(dp431
Vtx B-tx A
p432
(dp433
g230
Nsg231
Nsg232
Nsg233
Nsg234
Nsg235
Nsg236
NssVtx A-tx B
p434
(dp435
g230
Nsg231
Nsg232
Nsg233
Nsg234
Nsg235
Nsg236
Nsssg239
(dp436
g55
(dp437
g230
Nsg231
Nsg232
Nsg233
Nsg234
Nsg235
Nsg236
Nssg62
(dp438
g230
Nsg231
Nsg232
Nsg233
Nsg234
Nsg235
Nsg236
Nsssg243
(dp439
g55
(dp440
g230
Nsg231
Nsg232
Nsg233
Nsg234
Nsg235
Nsg236
Nssg62
(dp441
g230
Nsg231
Nsg232
Nsg233
Nsg234
Nsg235
Nsg236
Nsssg247
(dp442
Vtx B-tx A
p443
(dp444
g230
F2.0713769945153624
sg231
F-0.5394725526488597
sg232
F0.7659522209332512
sg233
F7.9357430724513245
sg234
F2.1510416666666665
sg235
F0.5830557024708278
sg236
NssVtx A-tx B
p445
(dp446
g230
F0.5394725526488597
sg231
F-2.0713769945153624
sg232
F-0.7659522209332512
sg233
F1.7151019975660615
sg234
F0.4648910411622276
sg235
F0.12601214415212958
sg236
Nsssg253
(dp447
Vtx B-tx A
p448
(dp449
g230
Nsg231
Nsg232
Nsg233
Nsg234
Nsg235
Nsg236
NssVtx A-tx B
p450
(dp451
g230
Nsg231
Nsg232
Nsg233
Nsg234
Nsg235
Nsg236
Nsssg259
(dp452
Vtx B-tx A
p453
(dp454
g230
Nsg231
Nsg232
Nsg233
Nsg234
Nsg235
Nsg236
NssVtx A-tx B
p455
(dp456
g230
Nsg231
Nsg232
Nsg233
Nsg234
Nsg235
Nsg236
Nsssg265
(dp457
Vtx B-tx A
p458
(dp459
g230
Nsg231
Nsg232
Nsg233
Nsg234
Nsg235
Nsg236
NssVtx A-tx B
p460
(dp461
g230
Nsg231
Nsg232
Nsg233
Nsg234
Nsg235
Nsg236
Nsssg271
(dp462
Vtx B-tx A
p463
(dp464
g230
Nsg231
Nsg232
Nsg233
Nsg234
Nsg235
Nsg236
NssVtx A-tx B
p465
(dp466
g230
Nsg231
Nsg232
Nsg233
Nsg234
Nsg235
Nsg236
Nsssg277
(dp467
g55
(dp468
g230
Nsg231
Nsg232
Nsg233
Nsg234
Nsg235
Nsg236
Nssg62
(dp469
g230
Nsg231
Nsg232
Nsg233
Nsg234
Nsg235
Nsg236
Nsssg281
(dp470
g55
(dp471
g230
Nsg231
Nsg232
Nsg233
Nsg234
Nsg235
Nsg236
Nssg62
(dp472
g230
Nsg231
Nsg232
Nsg233
Nsg234
Nsg235
Nsg236
Nsssg285
(dp473
g55
(dp474
g230
Nsg231
Nsg232
Nsg233
Nsg234
Nsg235
Nsg236
Nssg62
(dp475
g230
Nsg231
Nsg232
Nsg233
Nsg234
Nsg235
Nsg236
Nsssg289
(dp476
Vtx B-tx A
p477
(dp478
g230
F2.2314747394819814
sg231
F-0.5722781729063757
sg232
F0.8295982832878028
sg233
F9.31359107707857
sg234
F2.2923976608187138
sg235
F0.5642385404122224
sg236
NssVtx A-tx B
p479
(dp480
g230
F0.5722781729063757
sg231
F-2.2314747394819814
sg232
F-0.8295982832878028
sg233
F1.7723000617246354
sg234
F0.4362244897959183
sg235
F0.10736997058643398
sg236
Nssssg139
I2
sbsssg295
I00
sg296
I1993
sg297
Nsg60
I1
sba(ima_dataset
Study
p481
(dp482
g35
I01
sg36
VGiamarellou
p483
sg38
(dp484
sg25
g26
sg40
(lp485
g42
ag46
asg48
(dp486
g7
(dp487
g12
(ima_dataset
MetaAnalyticUnit
p488
(dp489
g29
I00
sg53
(dp490
g55
(ima_dataset
TreatmentGroup
p491
(dp492
g58
(lp493
F3.0
aF30.0
asg60
I0
sg36
g61
sbsg62
(ima_dataset
TreatmentGroup
p494
(dp495
g58
(lp496
F1.0
aF30.0
asg60
I1
sg36
g66
sbssg67
g46
sg68
(dp497
g70
(dp498
Vtx B-tx A
p499
(dp500
g74
Nsg75
Nsg76
Nsg77
Nsg78
Nsg79
Nsg80
NssVtx A-tx B
p501
(dp502
g74
Nsg75
Nsg76
Nsg77
Nsg78
Nsg79
Nsg80
Nsssg83
(dp503
g55
(dp504
g74
Nsg75
Nsg76
Nsg77
Nsg78
Nsg79
Nsg80
Nssg62
(dp505
g74
Nsg75
Nsg76
Nsg77
Nsg78
Nsg79
Nsg80
Nsssg87
(dp506
g55
(dp507
g74
Nsg75
Nsg76
Nsg77
Nsg78
Nsg79
Nsg80
Nssg62
(dp508
g74
Nsg75
Nsg76
Nsg77
Nsg78
Nsg79
Nsg80
Nsssg91
(dp509
Vtx B-tx A
p510
(dp511
g74
Nsg75
Nsg76
Nsg77
Nsg78
Nsg79
Nsg80
NssVtx A-tx B
p512
(dp513
g74
F3.304478975380136
sg75
F-1.1072543980439158
sg76
F1.09861228866811
sg77
F27.234348125670888
sg78
F3.000000000000001
sg79
F0.33046504210308875
sg80
Nsssg97
(dp514
Vtx B-tx A
p515
(dp516
g74
Nsg75
Nsg76
Nsg77
Nsg78
Nsg79
Nsg80
NssVtx A-tx B
p517
(dp518
g74
Nsg75
Nsg76
Nsg77
Nsg78
Nsg79
Nsg80
Nsssg103
(dp519
Vtx B-tx A
p520
(dp521
g74
Nsg75
Nsg76
Nsg77
Nsg78
Nsg79
Nsg80
NssVtx A-tx B
p522
(dp523
g74
Nsg75
Nsg76
Nsg77
Nsg78
Nsg79
Nsg80
Nsssg109
(dp524
Vtx B-tx A
p525
(dp526
g74
Nsg75
Nsg76
Nsg77
Nsg78
Nsg79
Nsg80
NssVtx A-tx B
p527
(dp528
g74
Nsg75
Nsg76
Nsg77
Nsg78
Nsg79
Nsg80
Nsssg115
(dp529
Vtx B-tx A
p530
(dp531
g74
Nsg75
Nsg76
Nsg77
Nsg78
Nsg79
Nsg80
NssVtx A-tx B
p532
(dp533
g74
Nsg75
Nsg76
Nsg77
Nsg78
Nsg79
Nsg80
Nsssg121
(dp534
g55
(dp535
g74
Nsg75
Nsg76
Nsg77
Nsg78
Nsg79
Nsg80
Nssg62
(dp536
g74
Nsg75
Nsg76
Nsg77
Nsg78
Nsg79
Nsg80
Nsssg125
(dp537
g55
(dp538
g74
Nsg75
Nsg76
Nsg77
Nsg78
Nsg79
Nsg80
Nssg62
(dp539
g74
Nsg75
Nsg76
Nsg77
Nsg78
Nsg79
Nsg80
Nsssg129
(dp540
g55
(dp541
g74
Nsg75
Nsg76
Nsg77
Nsg78
Nsg79
Nsg80
Nssg62
(dp542
g74
Nsg75
Nsg76
Nsg77
Nsg78
Nsg79
Nsg80
Nsssg133
(dp543
Vtx B-tx A
p544
(dp545
g74
F1.153005466733426
sg75
F-3.493147972033936
sg76
F-1.170071252650255
sg77
F3.167699031428309
sg78
F0.3103448275862068
sg79
F0.030405007247827034
sg80
NssVtx A-tx B
p546
(dp547
g74
F3.493147972033936
sg75
F-1.153005466733426
sg76
F1.170071252650255
sg77
F32.88931957322481
sg78
F3.2222222222222237
sg79
F0.3156865567336118
sg80
Nssssg139
I2
sbssg18
(dp548
N(ima_dataset
MetaAnalyticUnit
p549
(dp550
g68
(dp551
g144
(dp552
S'tx B-tx A'
p553
(dp554
g148
Nsg149
Nsg150
Nsg151
Nsg152
Nsg153
Nsg154
NssS'tx A-tx B'
p555
(dp556
g148
Nsg149
Nsg150
Nsg151
Nsg152
Nsg153
Nsg154
Nsssg157
(dp557
g159
(dp558
g148
Nsg149
Nsg150
Nsg151
Nsg152
Nsg153
Nsg154
Nssg161
(dp559
g148
Nsg149
Nsg150
Nsg151
Nsg152
Nsg153
Nsg154
Nsssg163
(dp560
g159
(dp561
g148
Nsg149
Nsg150
Nsg151
Nsg152
Nsg153
Nsg154
Nssg161
(dp562
g148
Nsg149
Nsg150
Nsg151
Nsg152
Nsg153
Nsg154
Nsssg167
(dp563
S'tx B-tx A'
p564
(dp565
g148
Nsg149
Nsg150
Nsg151
Nsg152
Nsg153
Nsg154
NssS'tx A-tx B'
p566
(dp567
g148
Nsg149
Nsg150
Nsg151
Nsg152
Nsg153
Nsg154
Nsssg173
(dp568
S'tx B-tx A'
p569
(dp570
g148
Nsg149
Nsg150
Nsg151
Nsg152
Nsg153
Nsg154
NssS'tx A-tx B'
p571
(dp572
g148
Nsg149
Nsg150
Nsg151
Nsg152
Nsg153
Nsg154
Nsssg179
(dp573
S'tx B-tx A'
p574
(dp575
g148
Nsg149
Nsg150
Nsg151
Nsg152
Nsg153
Nsg154
NssS'tx A-tx B'
p576
(dp577
g148
Nsg149
Nsg150
Nsg151
Nsg152
Nsg153
Nsg154
Nsssg185
(dp578
S'tx B-tx A'
p579
(dp580
g148
Nsg149
Nsg150
Nsg151
Nsg152
Nsg153
Nsg154
NssS'tx A-tx B'
p581
(dp582
g148
Nsg149
Nsg150
Nsg151
Nsg152
Nsg153
Nsg154
Nsssg191
(dp583
g159
(dp584
g148
Nsg149
Nsg150
Nsg151
Nsg152
Nsg153
Nsg154
Nssg161
(dp585
g148
Nsg149
Nsg150
Nsg151
Nsg152
Nsg153
Nsg154
Nsssg195
(dp586
g159
(dp587
g148
Nsg149
Nsg150
Nsg151
Nsg152
Nsg153
Nsg154
Nssg161
(dp588
g148
Nsg149
Nsg150
Nsg151
Nsg152
Nsg153
Nsg154
Nsssg199
(dp589
g159
(dp590
g148
Nsg149
Nsg150
Nsg151
Nsg152
Nsg153
Nsg154
Nssg161
(dp591
g148
Nsg149
Nsg150
Nsg151
Nsg152
Nsg153
Nsg154
Nsssg203
(dp592
S'tx B-tx A'
p593
(dp594
g148
Nsg149
Nsg150
Nsg151
Nsg152
Nsg153
Nsg154
NssS'tx A-tx B'
p595
(dp596
g148
Nsg149
Nsg150
Nsg151
Nsg152
Nsg153
Nsg154
Nssssg53
(dp597
g159
(ima_dataset
TreatmentGroup
p598
(dp599
g58
(lp600
g26
ag26
asg60
I0
sg36
g159
sbsg161
(ima_dataset
TreatmentGroup
p601
(dp602
g58
(lp603
g26
ag26
asg60
I1
sg36
g161
sbssg67
g42
sg29
I00
sg139
I2
sbsg20
(ima_dataset
MetaAnalyticUnit
p604
(dp605
g29
I00
sg53
(dp606
g55
(ima_dataset
TreatmentGroup
p607
(dp608
g58
(lp609
F0.0
aF30.0
asg60
I0
sg36
g61
sbsg62
(ima_dataset
TreatmentGroup
p610
(dp611
g58
(lp612
F5.0
aF30.0
asg60
I1
sg36
g66
sbssg67
g42
sg68
(dp613
g226
(dp614
Vtx B-tx A
p615
(dp616
g230
Nsg231
Nsg232
Nsg233
Nsg234
Nsg235
Nsg236
NssVtx A-tx B
p617
(dp618
g230
Nsg231
Nsg232
Nsg233
Nsg234
Nsg235
Nsg236
Nsssg239
(dp619
g55
(dp620
g230
Nsg231
Nsg232
Nsg233
Nsg234
Nsg235
Nsg236
Nssg62
(dp621
g230
Nsg231
Nsg232
Nsg233
Nsg234
Nsg235
Nsg236
Nsssg243
(dp622
g55
(dp623
g230
Nsg231
Nsg232
Nsg233
Nsg234
Nsg235
Nsg236
Nssg62
(dp624
g230
Nsg231
Nsg232
Nsg233
Nsg234
Nsg235
Nsg236
Nsssg247
(dp625
Vtx B-tx A
p626
(dp627
g230
F5.24982946677064
sg231
F-0.4540389211738991
sg232
F2.3978952727983707
sg233
F190.53377334828946
sg234
F11.000000000000002
sg235
F0.6350580155614509
sg236
NssVtx A-tx B
p628
(dp629
g230
F0.4540389211738991
sg231
F-5.24982946677064
sg232
F-2.3978952727983707
sg233
F1.5746592838701612
sg234
F0.0909090909090909
sg235
F0.005248413351747529
sg236
Nsssg253
(dp630
Vtx B-tx A
p631
(dp632
g230
Nsg231
Nsg232
Nsg233
Nsg234
Nsg235
Nsg236
NssVtx A-tx B
p633
(dp634
g230
Nsg231
Nsg232
Nsg233
Nsg234
Nsg235
Nsg236
Nsssg259
(dp635
Vtx B-tx A
p636
(dp637
g230
Nsg231
Nsg232
Nsg233
Nsg234
Nsg235
Nsg236
NssVtx A-tx B
p638
(dp639
g230
Nsg231
Nsg232
Nsg233
Nsg234
Nsg235
Nsg236
Nsssg265
(dp640
Vtx B-tx A
p641
(dp642
g230
Nsg231
Nsg232
Nsg233
Nsg234
Nsg235
Nsg236
NssVtx A-tx B
p643
(dp644
g230
Nsg231
Nsg232
Nsg233
Nsg234
Nsg235
Nsg236
Nsssg271
(dp645
Vtx B-tx A
p646
(dp647
g230
Nsg231
Nsg232
Nsg233
Nsg234
Nsg235
Nsg236
NssVtx A-tx B
p648
(dp649
g230
Nsg231
Nsg232
Nsg233
Nsg234
Nsg235
Nsg236
Nsssg277
(dp650
g55
(dp651
g230
Nsg231
Nsg232
Nsg233
Nsg234
Nsg235
Nsg236
Nssg62
(dp652
g230
Nsg231
Nsg232
Nsg233
Nsg234
Nsg235
Nsg236
Nsssg281
(dp653
g55
(dp654
g230
Nsg231
Nsg232
Nsg233
Nsg234
Nsg235
Nsg236
Nssg62
(dp655
g230
Nsg231
Nsg232
Nsg233
Nsg234
Nsg235
Nsg236
Nsssg285
(dp656
g55
(dp657
g230
Nsg231
Nsg232
Nsg233
Nsg234
Nsg235
Nsg236
Nssg62
(dp658
g230
Nsg231
Nsg232
Nsg233
Nsg234
Nsg235
Nsg236
Nsssg289
(dp659
Vtx B-tx A
p660
(dp661
g230
F5.519384601903521
sg231
F-0.3654975934088083
sg232
F2.5769435042473563
sg233
F249.48145952354145
sg234
F13.156862745098042
sg235
F0.6938513091271002
sg236
NssVtx A-tx B
p662
(dp663
g230
F0.3654975934088083
sg231
F-5.519384601903521
sg232
F-2.5769435042473563
sg233
F1.4412309767896097
sg234
F0.07600596125186287
sg235
F0.004008313891981374
sg236
Nssssg139
I2
sbsssg295
I00
sg296
I1991
sg297
Nsg60
I2
sba(ima_dataset
Study
p664
(dp665
g35
I01
sg36
VMaller
p666
sg38
(dp667
sg25
g26
sg40
(lp668
g42
ag46
asg48
(dp669
g7
(dp670
g12
(ima_dataset
MetaAnalyticUnit
p671
(dp672
g29
I00
sg53
(dp673
g55
(ima_dataset
TreatmentGroup
p674
(dp675
g58
(lp676
F9.0
aF164.0
asg60
I0
sg36
g61
sbsg62
(ima_dataset
TreatmentGroup
p677
(dp678
g58
(lp679
F11.0
aF152.0
asg60
I1
sg36
g66
sbssg67
g46
sg68
(dp680
g70
(dp681
Vtx B-tx A
p682
(dp683
g74
Nsg75
Nsg76
Nsg77
Nsg78
Nsg79
Nsg80
NssVtx A-tx B
p684
(dp685
g74
Nsg75
Nsg76
Nsg77
Nsg78
Nsg79
Nsg80
Nsssg83
(dp686
g55
(dp687
g74
Nsg75
Nsg76
Nsg77
Nsg78
Nsg79
Nsg80
Nssg62
(dp688
g74
Nsg75
Nsg76
Nsg77
Nsg78
Nsg79
Nsg80
Nsssg87
(dp689
g55
(dp690
g74
Nsg75
Nsg76
Nsg77
Nsg78
Nsg79
Nsg80
Nssg62
(dp691
g74
Nsg75
Nsg76
Nsg77
Nsg78
Nsg79
Nsg80
Nsssg91
(dp692
Vtx B-tx A
p693
(dp694
g74
Nsg75
Nsg76
Nsg77
Nsg78
Nsg79
Nsg80
NssVtx A-tx B
p695
(dp696
g74
F0.5761950858475995
sg75
F-1.1295082907277463
sg76
F-0.2766566024400734
sg77
F1.7792556200375218
sg78
F0.7583148558758314
sg79
F0.32319213392725216
sg80
Nsssg97
(dp697
Vtx B-tx A
p698
(dp699
g74
Nsg75
Nsg76
Nsg77
Nsg78
Nsg79
Nsg80
NssVtx A-tx B
p700
(dp701
g74
Nsg75
Nsg76
Nsg77
Nsg78
Nsg79
Nsg80
Nsssg103
(dp702
Vtx B-tx A
p703
(dp704
g74
Nsg75
Nsg76
Nsg77
Nsg78
Nsg79
Nsg80
NssVtx A-tx B
p705
(dp706
g74
Nsg75
Nsg76
Nsg77
Nsg78
Nsg79
Nsg80
Nsssg109
(dp707
Vtx B-tx A
p708
(dp709
g74
Nsg75
Nsg76
Nsg77
Nsg78
Nsg79
Nsg80
NssVtx A-tx B
p710
(dp711
g74
Nsg75
Nsg76
Nsg77
Nsg78
Nsg79
Nsg80
Nsssg115
(dp712
Vtx B-tx A
p713
(dp714
g74
Nsg75
Nsg76
Nsg77
Nsg78
Nsg79
Nsg80
NssVtx A-tx B
p715
(dp716
g74
Nsg75
Nsg76
Nsg77
Nsg78
Nsg79
Nsg80
Nsssg121
(dp717
g55
(dp718
g74
Nsg75
Nsg76
Nsg77
Nsg78
Nsg79
Nsg80
Nssg62
(dp719
g74
Nsg75
Nsg76
Nsg77
Nsg78
Nsg79
Nsg80
Nsssg125
(dp720
g55
(dp721
g74
Nsg75
Nsg76
Nsg77
Nsg78
Nsg79
Nsg80
Nssg62
(dp722
g74
Nsg75
Nsg76
Nsg77
Nsg78
Nsg79
Nsg80
Nsssg129
(dp723
g55
(dp724
g74
Nsg75
Nsg76
Nsg77
Nsg78
Nsg79
Nsg80
Nssg62
(dp725
g74
Nsg75
Nsg76
Nsg77
Nsg78
Nsg79
Nsg80
Nsssg133
(dp726
Vtx B-tx A
p727
(dp728
g74
F1.2053250873799186
sg75
F-0.6146532433734598
sg76
F0.29533592200322945
sg77
F3.3378439926699914
sg78
F1.3435776201733647
sg79
F0.5408283986294743
sg80
NssVtx A-tx B
p729
(dp730
g74
F0.61465324337346
sg75
F-1.2053250873799188
sg76
F-0.29533592200322945
sg77
F1.8490153300642556
sg78
F0.7442815249266863
sg79
F0.2995945892606217
sg80
Nssssg139
I2
sbssg18
(dp731
N(ima_dataset
MetaAnalyticUnit
p732
(dp733
g68
(dp734
g144
(dp735
S'tx B-tx A'
p736
(dp737
g148
Nsg149
Nsg150
Nsg151
Nsg152
Nsg153
Nsg154
NssS'tx A-tx B'
p738
(dp739
g148
Nsg149
Nsg150
Nsg151
Nsg152
Nsg153
Nsg154
Nsssg157
(dp740
g159
(dp741
g148
Nsg149
Nsg150
Nsg151
Nsg152
Nsg153
Nsg154
Nssg161
(dp742
g148
Nsg149
Nsg150
Nsg151
Nsg152
Nsg153
Nsg154
Nsssg163
(dp743
g159
(dp744
g148
Nsg149
Nsg150
Nsg151
Nsg152
Nsg153
Nsg154
Nssg161
(dp745
g148
Nsg149
Nsg150
Nsg151
Nsg152
Nsg153
Nsg154
Nsssg167
(dp746
S'tx B-tx A'
p747
(dp748
g148
Nsg149
Nsg150
Nsg151
Nsg152
Nsg153
Nsg154
NssS'tx A-tx B'
p749
(dp750
g148
Nsg149
Nsg150
Nsg151
Nsg152
Nsg153
Nsg154
Nsssg173
(dp751
S'tx B-tx A'
p752
(dp753
g148
Nsg149
Nsg150
Nsg151
Nsg152
Nsg153
Nsg154
NssS'tx A-tx B'
p754
(dp755
g148
Nsg149
Nsg150
Nsg151
Nsg152
Nsg153
Nsg154
Nsssg179
(dp756
S'tx B-tx A'
p757
(dp758
g148
Nsg149
Nsg150
Nsg151
Nsg152
Nsg153
Nsg154
NssS'tx A-tx B'
p759
(dp760
g148
Nsg149
Nsg150
Nsg151
Nsg152
Nsg153
Nsg154
Nsssg185
(dp761
S'tx B-tx A'
p762
(dp763
g148
Nsg149
Nsg150
Nsg151
Nsg152
Nsg153
Nsg154
NssS'tx A-tx B'
p764
(dp765
g148
Nsg149
Nsg150
Nsg151
Nsg152
Nsg153
Nsg154
Nsssg191
(dp766
g159
(dp767
g148
Nsg149
Nsg150
Nsg151
Nsg152
Nsg153
Nsg154
Nssg161
(dp768
g148
Nsg149
Nsg150
Nsg151
Nsg152
Nsg153
Nsg154
Nsssg195
(dp769
g159
(dp770
g148
Nsg149
Nsg150
Nsg151
Nsg152
Nsg153
Nsg154
Nssg161
(dp771
g148
Nsg149
Nsg150
Nsg151
Nsg152
Nsg153
Nsg154
Nsssg199
(dp772
g159
(dp773
g148
Nsg149
Nsg150
Nsg151
Nsg152
Nsg153
Nsg154
Nssg161
(dp774
g148
Nsg149
Nsg150
Nsg151
Nsg152
Nsg153
Nsg154
Nsssg203
(dp775
S'tx B-tx A'
p776
(dp777
g148
Nsg149
Nsg150
Nsg151
Nsg152
Nsg153
Nsg154
NssS'tx A-tx B'
p778
(dp779
g148
Nsg149
Nsg150
Nsg151
Nsg152
Nsg153
Nsg154
Nssssg53
(dp780
g159
(ima_dataset
TreatmentGroup
p781
(dp782
g58
(lp783
g26
ag26
asg60
I0
sg36
g159
sbsg161
(ima_dataset
TreatmentGroup
p784
(dp785
g58
(lp786
g26
ag26
asg60
I1
sg36
g161
sbssg67
g42
sg29
I00
sg139
I2
sbsg20
(ima_dataset
MetaAnalyticUnit
p787
(dp788
g29
I00
sg53
(dp789
g55
(ima_dataset
TreatmentGroup
p790
(dp791
g58
(lp792
F19.0
aF164.0
asg60
I0
sg36
g61
sbsg62
(ima_dataset
TreatmentGroup
p793
(dp794
g58
(lp795
F13.0
aF152.0
asg60
I1
sg36
g66
sbssg67
g42
sg68
(dp796
g226
(dp797
Vtx B-tx A
p798
(dp799
g230
Nsg231
Nsg232
Nsg233
Nsg234
Nsg235
Nsg236
NssVtx A-tx B
p800
(dp801
g230
Nsg231
Nsg232
Nsg233
Nsg234
Nsg235
Nsg236
Nsssg239
(dp802
g55
(dp803
g230
Nsg231
Nsg232
Nsg233
Nsg234
Nsg235
Nsg236
Nssg62
(dp804
g230
Nsg231
Nsg232
Nsg233
Nsg234
Nsg235
Nsg236
Nsssg243
(dp805
g55
(dp806
g230
Nsg231
Nsg232
Nsg233
Nsg234
Nsg235
Nsg236
Nssg62
(dp807
g230
Nsg231
Nsg232
Nsg233
Nsg234
Nsg235
Nsg236
Nsssg247
(dp808
Vtx B-tx A
p809
(dp810
g230
F0.3665579173351251
sg231
F-0.9735653467890885
sg232
F-0.3035037147269817
sg233
F1.4427599589425772
sg234
F0.7382271468144045
sg235
F0.3777338821443039
sg236
NssVtx A-tx B
p811
(dp812
g230
F0.9735653467890885
sg231
F-0.3665579173351251
sg232
F0.3035037147269817
sg233
F2.647366432482153
sg234
F1.3545966228893058
sg235
F0.6931159918888493
sg236
Nsssg253
(dp813
Vtx B-tx A
p814
(dp815
g230
Nsg231
Nsg232
Nsg233
Nsg234
Nsg235
Nsg236
NssVtx A-tx B
p816
(dp817
g230
Nsg231
Nsg232
Nsg233
Nsg234
Nsg235
Nsg236
Nsssg259
(dp818
Vtx B-tx A
p819
(dp820
g230
Nsg231
Nsg232
Nsg233
Nsg234
Nsg235
Nsg236
NssVtx A-tx B
p821
(dp822
g230
Nsg231
Nsg232
Nsg233
Nsg234
Nsg235
Nsg236
Nsssg265
(dp823
Vtx B-tx A
p824
(dp825
g230
Nsg231
Nsg232
Nsg233
Nsg234
Nsg235
Nsg236
NssVtx A-tx B
p826
(dp827
g230
Nsg231
Nsg232
Nsg233
Nsg234
Nsg235
Nsg236
Nsssg271
(dp828
Vtx B-tx A
p829
(dp830
g230
Nsg231
Nsg232
Nsg233
Nsg234
Nsg235
Nsg236
NssVtx A-tx B
p831
(dp832
g230
Nsg231
Nsg232
Nsg233
Nsg234
Nsg235
Nsg236
Nsssg277
(dp833
g55
(dp834
g230
Nsg231
Nsg232
Nsg233
Nsg234
Nsg235
Nsg236
Nssg62
(dp835
g230
Nsg231
Nsg232
Nsg233
Nsg234
Nsg235
Nsg236
Nsssg281
(dp836
g55
(dp837
g230
Nsg231
Nsg232
Nsg233
Nsg234
Nsg235
Nsg236
Nssg62
(dp838
g230
Nsg231
Nsg232
Nsg233
Nsg234
Nsg235
Nsg236
Nsssg285
(dp839
g55
(dp840
g230
Nsg231
Nsg232
Nsg233
Nsg234
Nsg235
Nsg236
Nssg62
(dp841
g230
Nsg231
Nsg232
Nsg233
Nsg234
Nsg235
Nsg236
Nsssg289
(dp842
Vtx B-tx A
p843
(dp844
g230
F0.4056080497070301
sg231
F-1.0800676745370725
sg232
F-0.33722981241502126
sg233
F1.5002144277232543
sg234
F0.7137447936387731
sg235
F0.3395725444525788
sg236
NssVtx A-tx B
p845
(dp846
g230
F1.0800676745370728
sg231
F-0.40560804970703024
sg232
F0.33722981241502126
sg233
F2.944878837634207
sg234
F1.4010610079575598
sg235
F0.6665713790778651
sg236
Nssssg139
I2
sbsssg295
I00
sg296
I1993
sg297
Nsg60
I3
sba(ima_dataset
Study
p847
(dp848
g35
I01
sg36
VSturm
p849
sg38
(dp850
sg25
g26
sg40
(lp851
g42
ag46
asg48
(dp852
g7
(dp853
g12
(ima_dataset
MetaAnalyticUnit
p854
(dp855
g29
I00
sg53
(dp856
g55
(ima_dataset
TreatmentGroup
p857
(dp858
g58
(lp859
F1.0
aF36.0
asg60
I0
sg36
g61
sbsg62
(ima_dataset
TreatmentGroup
p860
(dp861
g58
(lp862
F0.0
aF36.0
asg60
I1
sg36
g66
sbssg67
g46
sg68
(dp863
g70
(dp864
Vtx B-tx A
p865
(dp866
g74
Nsg75
Nsg76
Nsg77
Nsg78
Nsg79
Nsg80
NssVtx A-tx B
p867
(dp868
g74
Nsg75
Nsg76
Nsg77
Nsg78
Nsg79
Nsg80
Nsssg83
(dp869
g55
(dp870
g74
Nsg75
Nsg76
Nsg77
Nsg78
Nsg79
Nsg80
Nssg62
(dp871
g74
Nsg75
Nsg76
Nsg77
Nsg78
Nsg79
Nsg80
Nsssg87
(dp872
g55
(dp873
g74
Nsg75
Nsg76
Nsg77
Nsg78
Nsg79
Nsg80
Nssg62
(dp874
g74
Nsg75
Nsg76
Nsg77
Nsg78
Nsg79
Nsg80
Nsssg91
(dp875
Vtx B-tx A
p876
(dp877
g74
Nsg75
Nsg76
Nsg77
Nsg78
Nsg79
Nsg80
NssVtx A-tx B
p878
(dp879
g74
F4.266615408265285
sg75
F-2.069390830929067
sg76
F1.0986122886681091
sg77
F71.27997327732771
sg78
F2.9999999999999982
sg79
F0.1262626735981487
sg80
Nsssg97
(dp880
Vtx B-tx A
p881
(dp882
g74
Nsg75
Nsg76
Nsg77
Nsg78
Nsg79
Nsg80
NssVtx A-tx B
p883
(dp884
g74
Nsg75
Nsg76
Nsg77
Nsg78
Nsg79
Nsg80
Nsssg103
(dp885
Vtx B-tx A
p886
(dp887
g74
Nsg75
Nsg76
Nsg77
Nsg78
Nsg79
Nsg80
NssVtx A-tx B
p888
(dp889
g74
Nsg75
Nsg76
Nsg77
Nsg78
Nsg79
Nsg80
Nsssg109
(dp890
Vtx B-tx A
p891
(dp892
g74
Nsg75
Nsg76
Nsg77
Nsg78
Nsg79
Nsg80
NssVtx A-tx B
p893
(dp894
g74
Nsg75
Nsg76
Nsg77
Nsg78
Nsg79
Nsg80
Nsssg115
(dp895
Vtx B-tx A
p896
(dp897
g74
Nsg75
Nsg76
Nsg77
Nsg78
Nsg79
Nsg80
NssVtx A-tx B
p898
(dp899
g74
Nsg75
Nsg76
Nsg77
Nsg78
Nsg79
Nsg80
Nsssg121
(dp900
g55
(dp901
g74
Nsg75
Nsg76
Nsg77
Nsg78
Nsg79
Nsg80
Nssg62
(dp902
g74
Nsg75
Nsg76
Nsg77
Nsg78
Nsg79
Nsg80
Nsssg125
(dp903
g55
(dp904
g74
Nsg75
Nsg76
Nsg77
Nsg78
Nsg79
Nsg80
Nssg62
(dp905
g74
Nsg75
Nsg76
Nsg77
Nsg78
Nsg79
Nsg80
Nsssg129
(dp906
g55
(dp907
g74
Nsg75
Nsg76
Nsg77
Nsg78
Nsg79
Nsg80
Nssg62
(dp908
g74
Nsg75
Nsg76
Nsg77
Nsg78
Nsg79
Nsg80
Nsssg133
(dp909
Vtx B-tx A
p910
(dp911
g74
F2.107390103894923
sg75
F-4.360173809445294
sg76
F-1.1263918527751855
sg77
F8.226742299086954
sg78
F0.3242009132420091
sg79
F0.012776166838071238
sg80
NssVtx A-tx B
p912
(dp913
g74
F4.360173809445294
sg75
F-2.107390103894923
sg76
F1.1263918527751855
sg77
F78.27073743434033
sg78
F3.0845070422535215
sg79
F0.12155479819891589
sg80
Nssssg139
I2
sbssg18
(dp914
N(ima_dataset
MetaAnalyticUnit
p915
(dp916
g68
(dp917
g144
(dp918
S'tx B-tx A'
p919
(dp920
g148
Nsg149
Nsg150
Nsg151
Nsg152
Nsg153
Nsg154
NssS'tx A-tx B'
p921
(dp922
g148
Nsg149
Nsg150
Nsg151
Nsg152
Nsg153
Nsg154
Nsssg157
(dp923
g159
(dp924
g148
Nsg149
Nsg150
Nsg151
Nsg152
Nsg153
Nsg154
Nssg161
(dp925
g148
Nsg149
Nsg150
Nsg151
Nsg152
Nsg153
Nsg154
Nsssg163
(dp926
g159
(dp927
g148
Nsg149
Nsg150
Nsg151
Nsg152
Nsg153
Nsg154
Nssg161
(dp928
g148
Nsg149
Nsg150
Nsg151
Nsg152
Nsg153
Nsg154
Nsssg167
(dp929
S'tx B-tx A'
p930
(dp931
g148
Nsg149
Nsg150
Nsg151
Nsg152
Nsg153
Nsg154
NssS'tx A-tx B'
p932
(dp933
g148
Nsg149
Nsg150
Nsg151
Nsg152
Nsg153
Nsg154
Nsssg173
(dp934
S'tx B-tx A'
p935
(dp936
g148
Nsg149
Nsg150
Nsg151
Nsg152
Nsg153
Nsg154
NssS'tx A-tx B'
p937
(dp938
g148
Nsg149
Nsg150
Nsg151
Nsg152
Nsg153
Nsg154
Nsssg179
(dp939
S'tx B-tx A'
p940
(dp941
g148
Nsg149
Nsg150
Nsg151
Nsg152
Nsg153
Nsg154
NssS'tx A-tx B'
p942
(dp943
g148
Nsg149
Nsg150
Nsg151
Nsg152
Nsg153
Nsg154
Nsssg185
(dp944
S'tx B-tx A'
p945
(dp946
g148
Nsg149
Nsg150
Nsg151
Nsg152
Nsg153
Nsg154
NssS'tx A-tx B'
p947
(dp948
g148
Nsg149
Nsg150
Nsg151
Nsg152
Nsg153
Nsg154
Nsssg191
(dp949
g159
(dp950
g148
Nsg149
Nsg150
Nsg151
Nsg152
Nsg153
Nsg154
Nssg161
(dp951
g148
Nsg149
Nsg150
Nsg151
Nsg152
Nsg153
Nsg154
Nsssg195
(dp952
g159
(dp953
g148
Nsg149
Nsg150
Nsg151
Nsg152
Nsg153
Nsg154
Nssg161
(dp954
g148
Nsg149
Nsg150
Nsg151
Nsg152
Nsg153
Nsg154
Nsssg199
(dp955
g159
(dp956
g148
Nsg149
Nsg150
Nsg151
Nsg152
Nsg153
Nsg154
Nssg161
(dp957
g148
Nsg149
Nsg150
Nsg151
Nsg152
Nsg153
Nsg154
Nsssg203
(dp958
S'tx B-tx A'
p959
(dp960
g148
Nsg149
Nsg150
Nsg151
Nsg152
Nsg153
Nsg154
NssS'tx A-tx B'
p961
(dp962
g148
Nsg149
Nsg150
Nsg151
Nsg152
Nsg153
Nsg154
Nssssg53
(dp963
g159
(ima_dataset
TreatmentGroup
p964
(dp965
g58
(lp966
g26
ag26
asg60
I0
sg36
g159
sbsg161
(ima_dataset
TreatmentGroup
p967
(dp968
g58
(lp969
g26
ag26
asg60
I1
sg36
g161
sbssg67
g42
sg29
I00
sg139
I2
sbsg20
(ima_dataset
MetaAnalyticUnit
p970
(dp971
g29
I00
sg53
(dp972
g55
(ima_dataset
TreatmentGroup
p973
(dp974
g58
(lp975
F0.0
aF36.0
asg60
I0
sg36
g61
sbsg62
(ima_dataset
TreatmentGroup
p976
(dp977
g58
(lp978
F2.0
aF36.0
asg60
I1
sg36
g66
sbssg67
g42
sg68
(dp979
g226
(dp980
Vtx B-tx A
p981
(dp982
g230
Nsg231
Nsg232
Nsg233
Nsg234
Nsg235
Nsg236
NssVtx A-tx B
p983
(dp984
g230
Nsg231
Nsg232
Nsg233
Nsg234
Nsg235
Nsg236
Nsssg239
(dp985
g55
(dp986
g230
Nsg231
Nsg232
Nsg233
Nsg234
Nsg235
Nsg236
Nssg62
(dp987
g230
Nsg231
Nsg232
Nsg233
Nsg234
Nsg235
Nsg236
Nsssg243
(dp988
g55
(dp989
g230
Nsg231
Nsg232
Nsg233
Nsg234
Nsg235
Nsg236
Nssg62
(dp990
g230
Nsg231
Nsg232
Nsg233
Nsg234
Nsg235
Nsg236
Nsssg247
(dp991
Vtx B-tx A
p992
(dp993
g230
F4.611413053391412
sg231
F-1.3925372285232118
sg232
F1.6094379124341
sg233
F100.62623947143506
sg234
F4.999999999999998
sg235
F0.2484441447014104
sg236
NssVtx A-tx B
p994
(dp995
g230
F1.3925372285232118
sg231
F-4.611413053391412
sg232
F-1.6094379124341
sg233
F4.025049578857405
sg234
F0.20000000000000007
sg235
F0.009937765788056422
sg236
Nsssg253
(dp996
Vtx B-tx A
p997
(dp998
g230
Nsg231
Nsg232
Nsg233
Nsg234
Nsg235
Nsg236
NssVtx A-tx B
p999
(dp1000
g230
Nsg231
Nsg232
Nsg233
Nsg234
Nsg235
Nsg236
Nsssg259
(dp1001
Vtx B-tx A
p1002
(dp1003
g230
Nsg231
Nsg232
Nsg233
Nsg234
Nsg235
Nsg236
NssVtx A-tx B
p1004
(dp1005
g230
Nsg231
Nsg232
Nsg233
Nsg234
Nsg235
Nsg236
Nsssg265
(dp1006
Vtx B-tx A
p1007
(dp1008
g230
Nsg231
Nsg232
Nsg233
Nsg234
Nsg235
Nsg236
NssVtx A-tx B
p1009
(dp1010
g230
Nsg231
Nsg232
Nsg233
Nsg234
Nsg235
Nsg236
Nsssg271
(dp1011
Vtx B-tx A
p1012
(dp1013
g230
Nsg231
Nsg232
Nsg233
Nsg234
Nsg235
Nsg236
NssVtx A-tx B
p1014
(dp1015
g230
Nsg231
Nsg232
Nsg233
Nsg234
Nsg235
Nsg236
Nsssg277
(dp1016
g55
(dp1017
g230
Nsg231
Nsg232
Nsg233
Nsg234
Nsg235
Nsg236
Nssg62
(dp1018
g230
Nsg231
Nsg232
Nsg233
Nsg234
Nsg235
Nsg236
Nsssg281
(dp1019
g55
(dp1020
g230
Nsg231
Nsg232
Nsg233
Nsg234
Nsg235
Nsg236
Nssg62
(dp1021
g230
Nsg231
Nsg232
Nsg233
Nsg234
Nsg235
Nsg236
Nsssg285
(dp1022
g55
(dp1023
g230
Nsg231
Nsg232
Nsg233
Nsg234
Nsg235
Nsg236
Nssg62
(dp1024
g230
Nsg231
Nsg232
Nsg233
Nsg234
Nsg235
Nsg236
Nsssg289
(dp1025
Vtx B-tx A
p1026
(dp1027
g230
F4.737613312815473
sg231
F-1.4060316148450087
sg232
F1.6657908489852318
sg233
F114.16140870278059
sg234
F5.289855072463766
sg235
F0.24511406267351962
sg236
NssVtx A-tx B
p1028
(dp1029
g230
F1.4060316148450092
sg231
F-4.737613312815473
sg232
F-1.6657908489852318
sg233
F4.079733284548237
sg234
F0.18904109589041102
sg235
F0.008759527509015779
sg236
Nssssg139
I2
sbsssg295
I00
sg296
I1989
sg297
Nsg60
I4
sba(ima_dataset
Study
p1030
(dp1031
g35
I01
sg36
VMarik
p1032
sg38
(dp1033
sg25
g26
sg40
(lp1034
g42
ag46
asg48
(dp1035
g7
(dp1036
g12
(ima_dataset
MetaAnalyticUnit
p1037
(dp1038
g29
I00
sg53
(dp1039
g55
(ima_dataset
TreatmentGroup
p1040
(dp1041
g58
(lp1042
F1.0
aF155.0
asg60
I0
sg36
g61
sbsg62
(ima_dataset
TreatmentGroup
p1043
(dp1044
g58
(lp1045
F4.0
aF145.0
asg60
I1
sg36
g66
sbssg67
g46
sg68
(dp1046
g70
(dp1047
Vtx B-tx A
p1048
(dp1049
g74
Nsg75
Nsg76
Nsg77
Nsg78
Nsg79
Nsg80
NssVtx A-tx B
p1050
(dp1051
g74
Nsg75
Nsg76
Nsg77
Nsg78
Nsg79
Nsg80
Nsssg83
(dp1052
g55
(dp1053
g74
Nsg75
Nsg76
Nsg77
Nsg78
Nsg79
Nsg80
Nssg62
(dp1054
g74
Nsg75
Nsg76
Nsg77
Nsg78
Nsg79
Nsg80
Nsssg87
(dp1055
g55
(dp1056
g74
Nsg75
Nsg76
Nsg77
Nsg78
Nsg79
Nsg80
Nssg62
(dp1057
g74
Nsg75
Nsg76
Nsg77
Nsg78
Nsg79
Nsg80
Nsssg91
(dp1058
Vtx B-tx A
p1059
(dp1060
g74
Nsg75
Nsg76
Nsg77
Nsg78
Nsg79
Nsg80
NssVtx A-tx B
p1061
(dp1062
g74
F0.7265892461427415
sg75
F-3.6325607173798673
sg76
F-1.452985735618563
sg77
F2.068015074733827
sg78
F0.23387096774193547
sg79
F0.02644837081740773
sg80
Nsssg97
(dp1063
Vtx B-tx A
p1064
(dp1065
g74
Nsg75
Nsg76
Nsg77
Nsg78
Nsg79
Nsg80
NssVtx A-tx B
p1066
(dp1067
g74
Nsg75
Nsg76
Nsg77
Nsg78
Nsg79
Nsg80
Nsssg103
(dp1068
Vtx B-tx A
p1069
(dp1070
g74
Nsg75
Nsg76
Nsg77
Nsg78
Nsg79
Nsg80
NssVtx A-tx B
p1071
(dp1072
g74
Nsg75
Nsg76
Nsg77
Nsg78
Nsg79
Nsg80
Nsssg109
(dp1073
Vtx B-tx A
p1074
(dp1075
g74
Nsg75
Nsg76
Nsg77
Nsg78
Nsg79
Nsg80
NssVtx A-tx B
p1076
(dp1077
g74
Nsg75
Nsg76
Nsg77
Nsg78
Nsg79
Nsg80
Nsssg115
(dp1078
Vtx B-tx A
p1079
(dp1080
g74
Nsg75
Nsg76
Nsg77
Nsg78
Nsg79
Nsg80
NssVtx A-tx B
p1081
(dp1082
g74
Nsg75
Nsg76
Nsg77
Nsg78
Nsg79
Nsg80
Nsssg121
(dp1083
g55
(dp1084
g74
Nsg75
Nsg76
Nsg77
Nsg78
Nsg79
Nsg80
Nssg62
(dp1085
g74
Nsg75
Nsg76
Nsg77
Nsg78
Nsg79
Nsg80
Nsssg125
(dp1086
g55
(dp1087
g74
Nsg75
Nsg76
Nsg77
Nsg78
Nsg79
Nsg80
Nssg62
(dp1088
g74
Nsg75
Nsg76
Nsg77
Nsg78
Nsg79
Nsg80
Nsssg129
(dp1089
g55
(dp1090
g74
Nsg75
Nsg76
Nsg77
Nsg78
Nsg79
Nsg80
Nssg62
(dp1091
g74
Nsg75
Nsg76
Nsg77
Nsg78
Nsg79
Nsg80
Nsssg133
(dp1092
Vtx B-tx A
p1093
(dp1094
g74
F3.677669419776625
sg75
F-0.7286952734659211
sg76
F1.4744870731553519
sg77
F39.55410255878158
sg78
F4.368794326241137
sg79
F0.4825381598945998
sg80
NssVtx A-tx B
p1095
(dp1096
g74
F0.7286952734659211
sg75
F-3.677669419776625
sg76
F-1.4744870731553519
sg77
F2.0723749603936583
sg78
F0.22889610389610382
sg79
F0.025281827555407036
sg80
Nssssg139
I2
sbssg18
(dp1097
N(ima_dataset
MetaAnalyticUnit
p1098
(dp1099
g68
(dp1100
g144
(dp1101
S'tx B-tx A'
p1102
(dp1103
g148
Nsg149
Nsg150
Nsg151
Nsg152
Nsg153
Nsg154
NssS'tx A-tx B'
p1104
(dp1105
g148
Nsg149
Nsg150
Nsg151
Nsg152
Nsg153
Nsg154
Nsssg157
(dp1106
g159
(dp1107
g148
Nsg149
Nsg150
Nsg151
Nsg152
Nsg153
Nsg154
Nssg161
(dp1108
g148
Nsg149
Nsg150
Nsg151
Nsg152
Nsg153
Nsg154
Nsssg163
(dp1109
g159
(dp1110
g148
Nsg149
Nsg150
Nsg151
Nsg152
Nsg153
Nsg154
Nssg161
(dp1111
g148
Nsg149
Nsg150
Nsg151
Nsg152
Nsg153
Nsg154
Nsssg167
(dp1112
S'tx B-tx A'
p1113
(dp1114
g148
Nsg149
Nsg150
Nsg151
Nsg152
Nsg153
Nsg154
NssS'tx A-tx B'
p1115
(dp1116
g148
Nsg149
Nsg150
Nsg151
Nsg152
Nsg153
Nsg154
Nsssg173
(dp1117
S'tx B-tx A'
p1118
(dp1119
g148
Nsg149
Nsg150
Nsg151
Nsg152
Nsg153
Nsg154
NssS'tx A-tx B'
p1120
(dp1121
g148
Nsg149
Nsg150
Nsg151
Nsg152
Nsg153
Nsg154
Nsssg179
(dp1122
S'tx B-tx A'
p1123
(dp1124
g148
Nsg149
Nsg150
Nsg151
Nsg152
Nsg153
Nsg154
NssS'tx A-tx B'
p1125
(dp1126
g148
Nsg149
Nsg150
Nsg151
Nsg152
Nsg153
Nsg154
Nsssg185
(dp1127
S'tx B-tx A'
p1128
(dp1129
g148
Nsg149
Nsg150
Nsg151
Nsg152
Nsg153
Nsg154
NssS'tx A-tx B'
p1130
(dp1131
g148
Nsg149
Nsg150
Nsg151
Nsg152
Nsg153
Nsg154
Nsssg191
(dp1132
g159
(dp1133
g148
Nsg149
Nsg150
Nsg151
Nsg152
Nsg153
Nsg154
Nssg161
(dp1134
g148
Nsg149
Nsg150
Nsg151
Nsg152
Nsg153
Nsg154
Nsssg195
(dp1135
g159
(dp1136
g148
Nsg149
Nsg150
Nsg151
Nsg152
Nsg153
Nsg154
Nssg161
(dp1137
g148
Nsg149
Nsg150
Nsg151
Nsg152
Nsg153
Nsg154
Nsssg199
(dp1138
g159
(dp1139
g148
Nsg149
Nsg150
Nsg151
Nsg152
Nsg153
Nsg154
Nssg161
(dp1140
g148
Nsg149
Nsg150
Nsg151
Nsg152
Nsg153
Nsg154
Nsssg203
(dp1141
S'tx B-tx A'
p1142
(dp1143
g148
Nsg149
Nsg150
Nsg151
Nsg152
Nsg153
Nsg154
NssS'tx A-tx B'
p1144
(dp1145
g148
Nsg149
Nsg150
Nsg151
Nsg152
Nsg153
Nsg154
Nssssg53
(dp1146
g159
(ima_dataset
TreatmentGroup
p1147
(dp1148
g58
(lp1149
g26
ag26
asg60
I0
sg36
g159
sbsg161
(ima_dataset
TreatmentGroup
p1150
(dp1151
g58
(lp1152
g26
ag26
asg60
I1
sg36
g161
sbssg67
g42
sg29
I00
sg139
I2
sbsg20
(ima_dataset
MetaAnalyticUnit
p1153
(dp1154
g29
I00
sg53
(dp1155
g55
(ima_dataset
TreatmentGroup
p1156
(dp1157
g58
(lp1158
F26.0
aF155.0
asg60
I0
sg36
g61
sbsg62
(ima_dataset
TreatmentGroup
p1159
(dp1160
g58
(lp1161
F49.0
aF145.0
asg60
I1
sg36
g66
sbssg67
g42
sg68
(dp1162
g226
(dp1163
Vtx B-tx A
p1164
(dp1165
g230
Nsg231
Nsg232
Nsg233
Nsg234
Nsg235
Nsg236
NssVtx A-tx B
p1166
(dp1167
g230
Nsg231
Nsg232
Nsg233
Nsg234
Nsg235
Nsg236
Nsssg239
(dp1168
g55
(dp1169
g230
Nsg231
Nsg232
Nsg233
Nsg234
Nsg235
Nsg236
Nssg62
(dp1170
g230
Nsg231
Nsg232
Nsg233
Nsg234
Nsg235
Nsg236
Nsssg243
(dp1171
g55
(dp1172
g230
Nsg231
Nsg232
Nsg233
Nsg234
Nsg235
Nsg236
Nssg62
(dp1173
g230
Nsg231
Nsg232
Nsg233
Nsg234
Nsg235
Nsg236
Nsssg247
(dp1174
Vtx B-tx A
p1175
(dp1176
g230
F1.1185886753844045
sg231
F0.2822415937912289
sg232
F0.7004151345878167
sg233
F3.060531750022502
sg234
F2.0145888594164454
sg235
F1.3260990585884347
sg236
NssVtx A-tx B
p1177
(dp1178
g230
F-0.2822415937912289
sg231
F-1.1185886753844045
sg232
F-0.7004151345878167
sg233
F0.7540914787048031
sg234
F0.4963791968400264
sg235
F0.3267406064297969
sg236
Nsssg253
(dp1179
Vtx B-tx A
p1180
(dp1181
g230
Nsg231
Nsg232
Nsg233
Nsg234
Nsg235
Nsg236
NssVtx A-tx B
p1182
(dp1183
g230
Nsg231
Nsg232
Nsg233
Nsg234
Nsg235
Nsg236
Nsssg259
(dp1184
Vtx B-tx A
p1185
(dp1186
g230
Nsg231
Nsg232
Nsg233
Nsg234
Nsg235
Nsg236
NssVtx A-tx B
p1187
(dp1188
g230
Nsg231
Nsg232
Nsg233
Nsg234
Nsg235
Nsg236
Nsssg265
(dp1189
Vtx B-tx A
p1190
(dp1191
g230
Nsg231
Nsg232
Nsg233
Nsg234
Nsg235
Nsg236
NssVtx A-tx B
p1192
(dp1193
g230
Nsg231
Nsg232
Nsg233
Nsg234
Nsg235
Nsg236
Nsssg271
(dp1194
Vtx B-tx A
p1195
(dp1196
g230
Nsg231
Nsg232
Nsg233
Nsg234
Nsg235
Nsg236
NssVtx A-tx B
p1197
(dp1198
g230
Nsg231
Nsg232
Nsg233
Nsg234
Nsg235
Nsg236
Nsssg277
(dp1199
g55
(dp1200
g230
Nsg231
Nsg232
Nsg233
Nsg234
Nsg235
Nsg236
Nssg62
(dp1201
g230
Nsg231
Nsg232
Nsg233
Nsg234
Nsg235
Nsg236
Nsssg281
(dp1202
g55
(dp1203
g230
Nsg231
Nsg232
Nsg233
Nsg234
Nsg235
Nsg236
Nssg62
(dp1204
g230
Nsg231
Nsg232
Nsg233
Nsg234
Nsg235
Nsg236
Nsssg285
(dp1205
g55
(dp1206
g230
Nsg231
Nsg232
Nsg233
Nsg234
Nsg235
Nsg236
Nssg62
(dp1207
g230
Nsg231
Nsg232
Nsg233
Nsg234
Nsg235
Nsg236
Nsssg289
(dp1208
Vtx B-tx A
p1209
(dp1210
g230
F1.4731911729433602
sg231
F0.3851847730226008
sg232
F0.9291879729829805
sg233
F4.363136471546958
sg234
F2.5324519230769234
sg235
F1.4698858916100221
sg236
NssVtx A-tx B
p1211
(dp1212
g230
F-0.3851847730226008
sg231
F-1.4731911729433602
sg232
F-0.9291879729829805
sg233
F0.6803249188987465
sg234
F0.39487422876127193
sg235
F0.2291929226878957
sg236
Nssssg139
I2
sbsssg295
I00
sg296
I1991
sg297
Nsg60
I5
sba(ima_dataset
Study
p1213
(dp1214
g35
I01
sg36
VMuijsken
p1215
sg38
(dp1216
sg25
g26
sg40
(lp1217
g42
ag46
asg48
(dp1218
g7
(dp1219
g12
(ima_dataset
MetaAnalyticUnit
p1220
(dp1221
g29
I00
sg53
(dp1222
g55
(ima_dataset
TreatmentGroup
p1223
(dp1224
g58
(lp1225
F2.0
aF29.0
asg60
I0
sg36
g61
sbsg62
(ima_dataset
TreatmentGroup
p1226
(dp1227
g58
(lp1228
F5.0
aF36.0
asg60
I1
sg36
g66
sbssg67
g46
sg68
(dp1229
g70
(dp1230
Vtx B-tx A
p1231
(dp1232
g74
Nsg75
Nsg76
Nsg77
Nsg78
Nsg79
Nsg80
NssVtx A-tx B
p1233
(dp1234
g74
Nsg75
Nsg76
Nsg77
Nsg78
Nsg79
Nsg80
Nsssg83
(dp1235
g55
(dp1236
g74
Nsg75
Nsg76
Nsg77
Nsg78
Nsg79
Nsg80
Nssg62
(dp1237
g74
Nsg75
Nsg76
Nsg77
Nsg78
Nsg79
Nsg80
Nsssg87
(dp1238
g55
(dp1239
g74
Nsg75
Nsg76
Nsg77
Nsg78
Nsg79
Nsg80
Nssg62
(dp1240
g74
Nsg75
Nsg76
Nsg77
Nsg78
Nsg79
Nsg80
Nsssg91
(dp1241
Vtx B-tx A
p1242
(dp1243
g74
Nsg75
Nsg76
Nsg77
Nsg78
Nsg79
Nsg80
NssVtx A-tx B
p1244
(dp1245
g74
F0.8651320085136736
sg75
F-2.265267255322712
sg76
F-0.7000676234045191
sg77
F2.37531962769512
sg78
F0.496551724137931
sg79
F0.10380228911912949
sg80
Nsssg97
(dp1246
Vtx B-tx A
p1247
(dp1248
g74
Nsg75
Nsg76
Nsg77
Nsg78
Nsg79
Nsg80
NssVtx A-tx B
p1249
(dp1250
g74
Nsg75
Nsg76
Nsg77
Nsg78
Nsg79
Nsg80
Nsssg103
(dp1251
Vtx B-tx A
p1252
(dp1253
g74
Nsg75
Nsg76
Nsg77
Nsg78
Nsg79
Nsg80
NssVtx A-tx B
p1254
(dp1255
g74
Nsg75
Nsg76
Nsg77
Nsg78
Nsg79
Nsg80
Nsssg109
(dp1256
Vtx B-tx A
p1257
(dp1258
g74
Nsg75
Nsg76
Nsg77
Nsg78
Nsg79
Nsg80
NssVtx A-tx B
p1259
(dp1260
g74
Nsg75
Nsg76
Nsg77
Nsg78
Nsg79
Nsg80
Nsssg115
(dp1261
Vtx B-tx A
p1262
(dp1263
g74
Nsg75
Nsg76
Nsg77
Nsg78
Nsg79
Nsg80
NssVtx A-tx B
p1264
(dp1265
g74
Nsg75
Nsg76
Nsg77
Nsg78
Nsg79
Nsg80
Nsssg121
(dp1266
g55
(dp1267
g74
Nsg75
Nsg76
Nsg77
Nsg78
Nsg79
Nsg80
Nssg62
(dp1268
g74
Nsg75
Nsg76
Nsg77
Nsg78
Nsg79
Nsg80
Nsssg125
(dp1269
g55
(dp1270
g74
Nsg75
Nsg76
Nsg77
Nsg78
Nsg79
Nsg80
Nssg62
(dp1271
g74
Nsg75
Nsg76
Nsg77
Nsg78
Nsg79
Nsg80
Nsssg129
(dp1272
g55
(dp1273
g74
Nsg75
Nsg76
Nsg77
Nsg78
Nsg79
Nsg80
Nssg62
(dp1274
g74
Nsg75
Nsg76
Nsg77
Nsg78
Nsg79
Nsg80
Nsssg133
(dp1275
Vtx B-tx A
p1276
(dp1277
g74
F2.497214403893814
sg75
F-0.9409336171071385
sg76
F0.7781403933933377
sg77
F12.148605674415208
sg78
F2.1774193548387095
sg79
F0.390263308719537
sg80
NssVtx A-tx B
p1278
(dp1279
g74
F0.9409336171071383
sg75
F-2.497214403893814
sg76
F-0.7781403933933377
sg77
F2.562372576814928
sg78
F0.4592592592592593
sg79
F0.08231397304350621
sg80
Nssssg139
I2
sbssg18
(dp1280
N(ima_dataset
MetaAnalyticUnit
p1281
(dp1282
g68
(dp1283
g144
(dp1284
S'tx B-tx A'
p1285
(dp1286
g148
Nsg149
Nsg150
Nsg151
Nsg152
Nsg153
Nsg154
NssS'tx A-tx B'
p1287
(dp1288
g148
Nsg149
Nsg150
Nsg151
Nsg152
Nsg153
Nsg154
Nsssg157
(dp1289
g159
(dp1290
g148
Nsg149
Nsg150
Nsg151
Nsg152
Nsg153
Nsg154
Nssg161
(dp1291
g148
Nsg149
Nsg150
Nsg151
Nsg152
Nsg153
Nsg154
Nsssg163
(dp1292
g159
(dp1293
g148
Nsg149
Nsg150
Nsg151
Nsg152
Nsg153
Nsg154
Nssg161
(dp1294
g148
Nsg149
Nsg150
Nsg151
Nsg152
Nsg153
Nsg154
Nsssg167
(dp1295
S'tx B-tx A'
p1296
(dp1297
g148
Nsg149
Nsg150
Nsg151
Nsg152
Nsg153
Nsg154
NssS'tx A-tx B'
p1298
(dp1299
g148
Nsg149
Nsg150
Nsg151
Nsg152
Nsg153
Nsg154
Nsssg173
(dp1300
S'tx B-tx A'
p1301
(dp1302
g148
Nsg149
Nsg150
Nsg151
Nsg152
Nsg153
Nsg154
NssS'tx A-tx B'
p1303
(dp1304
g148
Nsg149
Nsg150
Nsg151
Nsg152
Nsg153
Nsg154
Nsssg179
(dp1305
S'tx B-tx A'
p1306
(dp1307
g148
Nsg149
Nsg150
Nsg151
Nsg152
Nsg153
Nsg154
NssS'tx A-tx B'
p1308
(dp1309
g148
Nsg149
Nsg150
Nsg151
Nsg152
Nsg153
Nsg154
Nsssg185
(dp1310
S'tx B-tx A'
p1311
(dp1312
g148
Nsg149
Nsg150
Nsg151
Nsg152
Nsg153
Nsg154
NssS'tx A-tx B'
p1313
(dp1314
g148
Nsg149
Nsg150
Nsg151
Nsg152
Nsg153
Nsg154
Nsssg191
(dp1315
g159
(dp1316
g148
Nsg149
Nsg150
Nsg151
Nsg152
Nsg153
Nsg154
Nssg161
(dp1317
g148
Nsg149
Nsg150
Nsg151
Nsg152
Nsg153
Nsg154
Nsssg195
(dp1318
g159
(dp1319
g148
Nsg149
Nsg150
Nsg151
Nsg152
Nsg153
Nsg154
Nssg161
(dp1320
g148
Nsg149
Nsg150
Nsg151
Nsg152
Nsg153
Nsg154
Nsssg199
(dp1321
g159
(dp1322
g148
Nsg149
Nsg150
Nsg151
Nsg152
Nsg153
Nsg154
Nssg161
(dp1323
g148
Nsg149
Nsg150
Nsg151
Nsg152
Nsg153
Nsg154
Nsssg203
(dp1324
S'tx B-tx A'
p1325
(dp1326
g148
Nsg149
Nsg150
Nsg151
Nsg152
Nsg153
Nsg154
NssS'tx A-tx B'
p1327
(dp1328
g148
Nsg149
Nsg150
Nsg151
Nsg152
Nsg153
Nsg154
Nssssg53
(dp1329
g159
(ima_dataset
TreatmentGroup
p1330
(dp1331
g58
(lp1332
g26
ag26
asg60
I0
sg36
g159
sbsg161
(ima_dataset
TreatmentGroup
p1333
(dp1334
g58
(lp1335
g26
ag26
asg60
I1
sg36
g161
sbssg67
g42
sg29
I00
sg139
I2
sbsg20
(ima_dataset
MetaAnalyticUnit
p1336
(dp1337
g29
I00
sg53
(dp1338
g55
(ima_dataset
TreatmentGroup
p1339
(dp1340
g58
(lp1341
F8.0
aF32.0
asg60
I0
sg36
g61
sbsg62
(ima_dataset
TreatmentGroup
p1342
(dp1343
g58
(lp1344
F6.0
aF35.0
asg60
I1
sg36
g66
sbssg67
g42
sg68
(dp1345
g226
(dp1346
Vtx B-tx A
p1347
(dp1348
g230
Nsg231
Nsg232
Nsg233
Nsg234
Nsg235
Nsg236
NssVtx A-tx B
p1349
(dp1350
g230
Nsg231
Nsg232
Nsg233
Nsg234
Nsg235
Nsg236
Nsssg239
(dp1351
g55
(dp1352
g230
Nsg231
Nsg232
Nsg233
Nsg234
Nsg235
Nsg236
Nssg62
(dp1353
g230
Nsg231
Nsg232
Nsg233
Nsg234
Nsg235
Nsg236
Nsssg243
(dp1354
g55
(dp1355
g230
Nsg231
Nsg232
Nsg233
Nsg234
Nsg235
Nsg236
Nssg62
(dp1356
g230
Nsg231
Nsg232
Nsg233
Nsg234
Nsg235
Nsg236
Nsssg247
(dp1357
Vtx B-tx A
p1358
(dp1359
g230
F0.5664345089723853
sg231
F-1.3210229712553216
sg232
F-0.3772942311414682
sg233
F1.761973537528411
sg234
F0.6857142857142856
sg235
F0.26686216995757306
sg236
NssVtx A-tx B
p1360
(dp1361
g230
F1.3210229712553216
sg231
F-0.5664345089723853
sg232
F0.3772942311414682
sg233
F3.7472527490838607
sg234
F1.4583333333333335
sg235
F0.5675454135382414
sg236
Nsssg253
(dp1362
Vtx B-tx A
p1363
(dp1364
g230
Nsg231
Nsg232
Nsg233
Nsg234
Nsg235
Nsg236
NssVtx A-tx B
p1365
(dp1366
g230
Nsg231
Nsg232
Nsg233
Nsg234
Nsg235
Nsg236
Nsssg259
(dp1367
Vtx B-tx A
p1368
(dp1369
g230
Nsg231
Nsg232
Nsg233
Nsg234
Nsg235
Nsg236
NssVtx A-tx B
p1370
(dp1371
g230
Nsg231
Nsg232
Nsg233
Nsg234
Nsg235
Nsg236
Nsssg265
(dp1372
Vtx B-tx A
p1373
(dp1374
g230
Nsg231
Nsg232
Nsg233
Nsg234
Nsg235
Nsg236
NssVtx A-tx B
p1375
(dp1376
g230
Nsg231
Nsg232
Nsg233
Nsg234
Nsg235
Nsg236
Nsssg271
(dp1377
Vtx B-tx A
p1378
(dp1379
g230
Nsg231
Nsg232
Nsg233
Nsg234
Nsg235
Nsg236
NssVtx A-tx B
p1380
(dp1381
g230
Nsg231
Nsg232
Nsg233
Nsg234
Nsg235
Nsg236
Nsssg277
(dp1382
g55
(dp1383
g230
Nsg231
Nsg232
Nsg233
Nsg234
Nsg235
Nsg236
Nssg62
(dp1384
g230
Nsg231
Nsg232
Nsg233
Nsg234
Nsg235
Nsg236
Nsssg281
(dp1385
g55
(dp1386
g230
Nsg231
Nsg232
Nsg233
Nsg234
Nsg235
Nsg236
Nssg62
(dp1387
g230
Nsg231
Nsg232
Nsg233
Nsg234
Nsg235
Nsg236
Nsssg285
(dp1388
g55
(dp1389
g230
Nsg231
Nsg232
Nsg233
Nsg234
Nsg235
Nsg236
Nssg62
(dp1390
g230
Nsg231
Nsg232
Nsg233
Nsg234
Nsg235
Nsg236
Nsssg289
(dp1391
Vtx B-tx A
p1392
(dp1393
g230
F0.7117518176416322
sg231
F-1.6655999618222506
sg232
F-0.4769240720903092
sg233
F2.037557563262202
sg234
F0.6206896551724139
sg235
F0.18907718485324268
sg236
NssVtx A-tx B
p1394
(dp1395
g230
F1.6655999618222506
sg231
F-0.7117518176416322
sg232
F0.4769240720903092
sg233
F5.288845403405899
sg234
F1.611111111111111
sg235
F0.4907836804369662
sg236
Nssssg139
I2
sbsssg295
I00
sg296
I1988
sg297
Nsg60
I6
sba(ima_dataset
Study
p1396
(dp1397
g35
I01
sg36
VVigano
p1398
sg38
(dp1399
sg25
g26
sg40
(lp1400
g42
ag46
asg48
(dp1401
g7
(dp1402
g12
(ima_dataset
MetaAnalyticUnit
p1403
(dp1404
g29
I00
sg53
(dp1405
g55
(ima_dataset
TreatmentGroup
p1406
(dp1407
g58
(lp1408
F2.0
aF74.0
asg60
I0
sg36
g61
sbsg62
(ima_dataset
TreatmentGroup
p1409
(dp1410
g58
(lp1411
F2.0
aF70.0
asg60
I1
sg36
g66
sbssg67
g46
sg68
(dp1412
g70
(dp1413
Vtx B-tx A
p1414
(dp1415
g74
Nsg75
Nsg76
Nsg77
Nsg78
Nsg79
Nsg80
NssVtx A-tx B
p1416
(dp1417
g74
Nsg75
Nsg76
Nsg77
Nsg78
Nsg79
Nsg80
Nsssg83
(dp1418
g55
(dp1419
g74
Nsg75
Nsg76
Nsg77
Nsg78
Nsg79
Nsg80
Nssg62
(dp1420
g74
Nsg75
Nsg76
Nsg77
Nsg78
Nsg79
Nsg80
Nsssg87
(dp1421
g55
(dp1422
g74
Nsg75
Nsg76
Nsg77
Nsg78
Nsg79
Nsg80
Nssg62
(dp1423
g74
Nsg75
Nsg76
Nsg77
Nsg78
Nsg79
Nsg80
Nsssg91
(dp1424
Vtx B-tx A
p1425
(dp1426
g74
Nsg75
Nsg76
Nsg77
Nsg78
Nsg79
Nsg80
NssVtx A-tx B
p1427
(dp1428
g74
F1.8769593806697158
sg75
F-1.9880990829793375
sg76
F-0.055569851154810834
sg77
F6.533608412719652
sg78
F0.9459459459459458
sg79
F0.1369555192364366
sg80
Nsssg97
(dp1429
Vtx B-tx A
p1430
(dp1431
g74
Nsg75
Nsg76
Nsg77
Nsg78
Nsg79
Nsg80
NssVtx A-tx B
p1432
(dp1433
g74
Nsg75
Nsg76
Nsg77
Nsg78
Nsg79
Nsg80
Nsssg103
(dp1434
Vtx B-tx A
p1435
(dp1436
g74
Nsg75
Nsg76
Nsg77
Nsg78
Nsg79
Nsg80
NssVtx A-tx B
p1437
(dp1438
g74
Nsg75
Nsg76
Nsg77
Nsg78
Nsg79
Nsg80
Nsssg109
(dp1439
Vtx B-tx A
p1440
(dp1441
g74
Nsg75
Nsg76
Nsg77
Nsg78
Nsg79
Nsg80
NssVtx A-tx B
p1442
(dp1443
g74
Nsg75
Nsg76
Nsg77
Nsg78
Nsg79
Nsg80
Nsssg115
(dp1444
Vtx B-tx A
p1445
(dp1446
g74
Nsg75
Nsg76
Nsg77
Nsg78
Nsg79
Nsg80
NssVtx A-tx B
p1447
(dp1448
g74
Nsg75
Nsg76
Nsg77
Nsg78
Nsg79
Nsg80
Nsssg121
(dp1449
g55
(dp1450
g74
Nsg75
Nsg76
Nsg77
Nsg78
Nsg79
Nsg80
Nssg62
(dp1451
g74
Nsg75
Nsg76
Nsg77
Nsg78
Nsg79
Nsg80
Nsssg125
(dp1452
g55
(dp1453
g74
Nsg75
Nsg76
Nsg77
Nsg78
Nsg79
Nsg80
Nssg62
(dp1454
g74
Nsg75
Nsg76
Nsg77
Nsg78
Nsg79
Nsg80
Nsssg129
(dp1455
g55
(dp1456
g74
Nsg75
Nsg76
Nsg77
Nsg78
Nsg79
Nsg80
Nssg62
(dp1457
g74
Nsg75
Nsg76
Nsg77
Nsg78
Nsg79
Nsg80
Nsssg133
(dp1458
Vtx B-tx A
p1459
(dp1460
g74
F2.044947249935669
sg75
F-1.9306304222557726
sg76
F0.05715841383994835
sg77
F7.728750835053053
sg78
F1.0588235294117645
sg79
F0.14505672266613956
sg80
NssVtx A-tx B
p1461
(dp1462
g74
F1.9306304222557726
sg75
F-2.044947249935669
sg76
F-0.05715841383994835
sg77
F6.893854911513376
sg78
F0.9444444444444446
sg79
F0.12938701497072336
sg80
Nssssg139
I2
sbssg18
(dp1463
N(ima_dataset
MetaAnalyticUnit
p1464
(dp1465
g68
(dp1466
g144
(dp1467
S'tx B-tx A'
p1468
(dp1469
g148
Nsg149
Nsg150
Nsg151
Nsg152
Nsg153
Nsg154
NssS'tx A-tx B'
p1470
(dp1471
g148
Nsg149
Nsg150
Nsg151
Nsg152
Nsg153
Nsg154
Nsssg157
(dp1472
g159
(dp1473
g148
Nsg149
Nsg150
Nsg151
Nsg152
Nsg153
Nsg154
Nssg161
(dp1474
g148
Nsg149
Nsg150
Nsg151
Nsg152
Nsg153
Nsg154
Nsssg163
(dp1475
g159
(dp1476
g148
Nsg149
Nsg150
Nsg151
Nsg152
Nsg153
Nsg154
Nssg161
(dp1477
g148
Nsg149
Nsg150
Nsg151
Nsg152
Nsg153
Nsg154
Nsssg167
(dp1478
S'tx B-tx A'
p1479
(dp1480
g148
Nsg149
Nsg150
Nsg151
Nsg152
Nsg153
Nsg154
NssS'tx A-tx B'
p1481
(dp1482
g148
Nsg149
Nsg150
Nsg151
Nsg152
Nsg153
Nsg154
Nsssg173
(dp1483
S'tx B-tx A'
p1484
(dp1485
g148
Nsg149
Nsg150
Nsg151
Nsg152
Nsg153
Nsg154
NssS'tx A-tx B'
p1486
(dp1487
g148
Nsg149
Nsg150
Nsg151
Nsg152
Nsg153
Nsg154
Nsssg179
(dp1488
S'tx B-tx A'
p1489
(dp1490
g148
Nsg149
Nsg150
Nsg151
Nsg152
Nsg153
Nsg154
NssS'tx A-tx B'
p1491
(dp1492
g148
Nsg149
Nsg150
Nsg151
Nsg152
Nsg153
Nsg154
Nsssg185
(dp1493
S'tx B-tx A'
p1494
(dp1495
g148
Nsg149
Nsg150
Nsg151
Nsg152
Nsg153
Nsg154
NssS'tx A-tx B'
p1496
(dp1497
g148
Nsg149
Nsg150
Nsg151
Nsg152
Nsg153
Nsg154
Nsssg191
(dp1498
g159
(dp1499
g148
Nsg149
Nsg150
Nsg151
Nsg152
Nsg153
Nsg154
Nssg161
(dp1500
g148
Nsg149
Nsg150
Nsg151
Nsg152
Nsg153
Nsg154
Nsssg195
(dp1501
g159
(dp1502
g148
Nsg149
Nsg150
Nsg151
Nsg152
Nsg153
Nsg154
Nssg161
(dp1503
g148
Nsg149
Nsg150
Nsg151
Nsg152
Nsg153
Nsg154
Nsssg199
(dp1504
g159
(dp1505
g148
Nsg149
Nsg150
Nsg151
Nsg152
Nsg153
Nsg154
Nssg161
(dp1506
g148
Nsg149
Nsg150
Nsg151
Nsg152
Nsg153
Nsg154
Nsssg203
(dp1507
S'tx B-tx A'
p1508
(dp1509
g148
Nsg149
Nsg150
Nsg151
Nsg152
Nsg153
Nsg154
NssS'tx A-tx B'
p1510
(dp1511
g148
Nsg149
Nsg150
Nsg151
Nsg152
Nsg153
Nsg154
Nssssg53
(dp1512
g159
(ima_dataset
TreatmentGroup
p1513
(dp1514
g58
(lp1515
g26
ag26
asg60
I0
sg36
g159
sbsg161
(ima_dataset
TreatmentGroup
p1516
(dp1517
g58
(lp1518
g26
ag26
asg60
I1
sg36
g161
sbssg67
g42
sg29
I00
sg139
I2
sbsg20
(ima_dataset
MetaAnalyticUnit
p1519
(dp1520
g29
I00
sg53
(dp1521
g55
(ima_dataset
TreatmentGroup
p1522
(dp1523
g58
(lp1524
F1.0
aF74.0
asg60
I0
sg36
g61
sbsg62
(ima_dataset
TreatmentGroup
p1525
(dp1526
g58
(lp1527
F0.0
aF70.0
asg60
I1
sg36
g66
sbssg67
g42
sg68
(dp1528
g226
(dp1529
Vtx B-tx A
p1530
(dp1531
g230
Nsg231
Nsg232
Nsg233
Nsg234
Nsg235
Nsg236
NssVtx A-tx B
p1532
(dp1533
g230
Nsg231
Nsg232
Nsg233
Nsg234
Nsg235
Nsg236
Nsssg239
(dp1534
g55
(dp1535
g230
Nsg231
Nsg232
Nsg233
Nsg234
Nsg235
Nsg236
Nssg62
(dp1536
g230
Nsg231
Nsg232
Nsg233
Nsg234
Nsg235
Nsg236
Nsssg243
(dp1537
g55
(dp1538
g230
Nsg231
Nsg232
Nsg233
Nsg234
Nsg235
Nsg236
Nssg62
(dp1539
g230
Nsg231
Nsg232
Nsg233
Nsg234
Nsg235
Nsg236
Nsssg247
(dp1540
Vtx B-tx A
p1541
(dp1542
g230
F2.1403073911910275
sg231
F-4.227915495537257
sg232
F-1.043804052173115
sg233
F8.502050682736224
sg234
F0.35211267605633795
sg235
F0.014582756709661719
sg236
NssVtx A-tx B
p1543
(dp1544
g230
F4.227915495537257
sg231
F-2.1403073911910275
sg232
F1.043804052173115
sg233
F68.57413998667728
sg234
F2.8400000000000007
sg235
F0.11761868251744756
sg236
Nsssg253
(dp1545
Vtx B-tx A
p1546
(dp1547
g230
Nsg231
Nsg232
Nsg233
Nsg234
Nsg235
Nsg236
NssVtx A-tx B
p1548
(dp1549
g230
Nsg231
Nsg232
Nsg233
Nsg234
Nsg235
Nsg236
Nsssg259
(dp1550
Vtx B-tx A
p1551
(dp1552
g230
Nsg231
Nsg232
Nsg233
Nsg234
Nsg235
Nsg236
NssVtx A-tx B
p1553
(dp1554
g230
Nsg231
Nsg232
Nsg233
Nsg234
Nsg235
Nsg236
Nsssg265
(dp1555
Vtx B-tx A
p1556
(dp1557
g230
Nsg231
Nsg232
Nsg233
Nsg234
Nsg235
Nsg236
NssVtx A-tx B
p1558
(dp1559
g230
Nsg231
Nsg232
Nsg233
Nsg234
Nsg235
Nsg236
Nsssg271
(dp1560
Vtx B-tx A
p1561
(dp1562
g230
Nsg231
Nsg232
Nsg233
Nsg234
Nsg235
Nsg236
NssVtx A-tx B
p1563
(dp1564
g230
Nsg231
Nsg232
Nsg233
Nsg234
Nsg235
Nsg236
Nsssg277
(dp1565
g55
(dp1566
g230
Nsg231
Nsg232
Nsg233
Nsg234
Nsg235
Nsg236
Nssg62
(dp1567
g230
Nsg231
Nsg232
Nsg233
Nsg234
Nsg235
Nsg236
Nsssg281
(dp1568
g55
(dp1569
g230
Nsg231
Nsg232
Nsg233
Nsg234
Nsg235
Nsg236
Nssg62
(dp1570
g230
Nsg231
Nsg232
Nsg233
Nsg234
Nsg235
Nsg236
Nsssg285
(dp1571
g55
(dp1572
g230
Nsg231
Nsg232
Nsg233
Nsg234
Nsg235
Nsg236
Nssg62
(dp1573
g230
Nsg231
Nsg232
Nsg233
Nsg234
Nsg235
Nsg236
Nsssg289
(dp1574
Vtx B-tx A
p1575
(dp1576
g230
F2.160302038691492
sg231
F-4.2741812232265755
sg232
F-1.056939592267542
sg233
F8.673757073097935
sg234
F0.3475177304964538
sg235
F0.013923444245859196
sg236
NssVtx A-tx B
p1577
(dp1578
g230
F4.274181223226576
sg231
F-2.1603020386914924
sg232
F1.056939592267542
sg233
F71.82130960860484
sg234
F2.877551020408164
sg235
F0.11529029364928223
sg236
Nssssg139
I2
sbsssg295
I00
sg296
I1992
sg297
Nsg60
I7
sba(ima_dataset
Study
p1579
(dp1580
g35
I01
sg36
VHansen
p1581
sg38
(dp1582
sg25
g26
sg40
(lp1583
g42
ag46
asg48
(dp1584
g7
(dp1585
g12
(ima_dataset
MetaAnalyticUnit
p1586
(dp1587
g29
I00
sg53
(dp1588
g55
(ima_dataset
TreatmentGroup
p1589
(dp1590
g58
(lp1591
F0.0
aF31.0
asg60
I0
sg36
g61
sbsg62
(ima_dataset
TreatmentGroup
p1592
(dp1593
g58
(lp1594
F3.0
aF33.0
asg60
I1
sg36
g66
sbssg67
g46
sg68
(dp1595
g70
(dp1596
Vtx B-tx A
p1597
(dp1598
g74
Nsg75
Nsg76
Nsg77
Nsg78
Nsg79
Nsg80
NssVtx A-tx B
p1599
(dp1600
g74
Nsg75
Nsg76
Nsg77
Nsg78
Nsg79
Nsg80
Nsssg83
(dp1601
g55
(dp1602
g74
Nsg75
Nsg76
Nsg77
Nsg78
Nsg79
Nsg80
Nssg62
(dp1603
g74
Nsg75
Nsg76
Nsg77
Nsg78
Nsg79
Nsg80
Nsssg87
(dp1604
g55
(dp1605
g74
Nsg75
Nsg76
Nsg77
Nsg78
Nsg79
Nsg80
Nssg62
(dp1606
g74
Nsg75
Nsg76
Nsg77
Nsg78
Nsg79
Nsg80
Nsssg91
(dp1607
Vtx B-tx A
p1608
(dp1609
g74
Nsg75
Nsg76
Nsg77
Nsg78
Nsg79
Nsg80
NssVtx A-tx B
p1610
(dp1611
g74
F1.0383162981360186
sg75
F-4.808887352613775
sg76
F-1.885285527238878
sg77
F2.82445746434688
sg78
F0.15178571428571436
sg79
F0.008156930437807798
sg80
Nsssg97
(dp1612
Vtx B-tx A
p1613
(dp1614
g74
Nsg75
Nsg76
Nsg77
Nsg78
Nsg79
Nsg80
NssVtx A-tx B
p1615
(dp1616
g74
Nsg75
Nsg76
Nsg77
Nsg78
Nsg79
Nsg80
Nsssg103
(dp1617
Vtx B-tx A
p1618
(dp1619
g74
Nsg75
Nsg76
Nsg77
Nsg78
Nsg79
Nsg80
NssVtx A-tx B
p1620
(dp1621
g74
Nsg75
Nsg76
Nsg77
Nsg78
Nsg79
Nsg80
Nsssg109
(dp1622
Vtx B-tx A
p1623
(dp1624
g74
Nsg75
Nsg76
Nsg77
Nsg78
Nsg79
Nsg80
NssVtx A-tx B
p1625
(dp1626
g74
Nsg75
Nsg76
Nsg77
Nsg78
Nsg79
Nsg80
Nsssg115
(dp1627
Vtx B-tx A
p1628
(dp1629
g74
Nsg75
Nsg76
Nsg77
Nsg78
Nsg79
Nsg80
NssVtx A-tx B
p1630
(dp1631
g74
Nsg75
Nsg76
Nsg77
Nsg78
Nsg79
Nsg80
Nsssg121
(dp1632
g55
(dp1633
g74
Nsg75
Nsg76
Nsg77
Nsg78
Nsg79
Nsg80
Nssg62
(dp1634
g74
Nsg75
Nsg76
Nsg77
Nsg78
Nsg79
Nsg80
Nsssg125
(dp1635
g55
(dp1636
g74
Nsg75
Nsg76
Nsg77
Nsg78
Nsg79
Nsg80
Nssg62
(dp1637
g74
Nsg75
Nsg76
Nsg77
Nsg78
Nsg79
Nsg80
Nsssg129
(dp1638
g55
(dp1639
g74
Nsg75
Nsg76
Nsg77
Nsg78
Nsg79
Nsg80
Nssg62
(dp1640
g74
Nsg75
Nsg76
Nsg77
Nsg78
Nsg79
Nsg80
Nsssg133
(dp1641
Vtx B-tx A
p1642
(dp1643
g74
F4.982896930163225
sg75
F-1.026554907616156
sg76
F1.9781710112735347
sg77
F145.89642179304994
sg78
F7.229508196721311
sg79
F0.3582390035623915
sg80
NssVtx A-tx B
p1644
(dp1645
g74
F1.026554907616156
sg75
F-4.982896930163225
sg76
F-1.9781710112735347
sg77
F2.7914325075042763
sg78
F0.1383219954648526
sg79
F0.006854177694765348
sg80
Nssssg139
I2
sbssg18
(dp1646
N(ima_dataset
MetaAnalyticUnit
p1647
(dp1648
g68
(dp1649
g144
(dp1650
S'tx B-tx A'
p1651
(dp1652
g148
Nsg149
Nsg150
Nsg151
Nsg152
Nsg153
Nsg154
NssS'tx A-tx B'
p1653
(dp1654
g148
Nsg149
Nsg150
Nsg151
Nsg152
Nsg153
Nsg154
Nsssg157
(dp1655
g159
(dp1656
g148
Nsg149
Nsg150
Nsg151
Nsg152
Nsg153
Nsg154
Nssg161
(dp1657
g148
Nsg149
Nsg150
Nsg151
Nsg152
Nsg153
Nsg154
Nsssg163
(dp1658
g159
(dp1659
g148
Nsg149
Nsg150
Nsg151
Nsg152
Nsg153
Nsg154
Nssg161
(dp1660
g148
Nsg149
Nsg150
Nsg151
Nsg152
Nsg153
Nsg154
Nsssg167
(dp1661
S'tx B-tx A'
p1662
(dp1663
g148
Nsg149
Nsg150
Nsg151
Nsg152
Nsg153
Nsg154
NssS'tx A-tx B'
p1664
(dp1665
g148
Nsg149
Nsg150
Nsg151
Nsg152
Nsg153
Nsg154
Nsssg173
(dp1666
S'tx B-tx A'
p1667
(dp1668
g148
Nsg149
Nsg150
Nsg151
Nsg152
Nsg153
Nsg154
NssS'tx A-tx B'
p1669
(dp1670
g148
Nsg149
Nsg150
Nsg151
Nsg152
Nsg153
Nsg154
Nsssg179
(dp1671
S'tx B-tx A'
p1672
(dp1673
g148
Nsg149
Nsg150
Nsg151
Nsg152
Nsg153
Nsg154
NssS'tx A-tx B'
p1674
(dp1675
g148
Nsg149
Nsg150
Nsg151
Nsg152
Nsg153
Nsg154
Nsssg185
(dp1676
S'tx B-tx A'
p1677
(dp1678
g148
Nsg149
Nsg150
Nsg151
Nsg152
Nsg153
Nsg154
NssS'tx A-tx B'
p1679
(dp1680
g148
Nsg149
Nsg150
Nsg151
Nsg152
Nsg153
Nsg154
Nsssg191
(dp1681
g159
(dp1682
g148
Nsg149
Nsg150
Nsg151
Nsg152
Nsg153
Nsg154
Nssg161
(dp1683
g148
Nsg149
Nsg150
Nsg151
Nsg152
Nsg153
Nsg154
Nsssg195
(dp1684
g159
(dp1685
g148
Nsg149
Nsg150
Nsg151
Nsg152
Nsg153
Nsg154
Nssg161
(dp1686
g148
Nsg149
Nsg150
Nsg151
Nsg152
Nsg153
Nsg154
Nsssg199
(dp1687
g159
(dp1688
g148
Nsg149
Nsg150
Nsg151
Nsg152
Nsg153
Nsg154
Nssg161
(dp1689
g148
Nsg149
Nsg150
Nsg151
Nsg152
Nsg153
Nsg154
Nsssg203
(dp1690
S'tx B-tx A'
p1691
(dp1692
g148
Nsg149
Nsg150
Nsg151
Nsg152
Nsg153
Nsg154
NssS'tx A-tx B'
p1693
(dp1694
g148
Nsg149
Nsg150
Nsg151
Nsg152
Nsg153
Nsg154
Nssssg53
(dp1695
g159
(ima_dataset
TreatmentGroup
p1696
(dp1697
g58
(lp1698
g26
ag26
asg60
I0
sg36
g159
sbsg161
(ima_dataset
TreatmentGroup
p1699
(dp1700
g58
(lp1701
g26
ag26
asg60
I1
sg36
g161
sbssg67
g42
sg29
I00
sg139
I2
sbsg20
(ima_dataset
MetaAnalyticUnit
p1702
(dp1703
g29
I00
sg53
(dp1704
g55
(ima_dataset
TreatmentGroup
p1705
(dp1706
g58
(lp1707
F2.0
aF28.0
asg60
I0
sg36
g61
sbsg62
(ima_dataset
TreatmentGroup
p1708
(dp1709
g58
(lp1710
F11.0
aF31.0
asg60
I1
sg36
g66
sbssg67
g42
sg68
(dp1711
g226
(dp1712
Vtx B-tx A
p1713
(dp1714
g230
Nsg231
Nsg232
Nsg233
Nsg234
Nsg235
Nsg236
NssVtx A-tx B
p1715
(dp1716
g230
Nsg231
Nsg232
Nsg233
Nsg234
Nsg235
Nsg236
Nsssg239
(dp1717
g55
(dp1718
g230
Nsg231
Nsg232
Nsg233
Nsg234
Nsg235
Nsg236
Nssg62
(dp1719
g230
Nsg231
Nsg232
Nsg233
Nsg234
Nsg235
Nsg236
Nsssg243
(dp1720
g55
(dp1721
g230
Nsg231
Nsg232
Nsg233
Nsg234
Nsg235
Nsg236
Nssg62
(dp1722
g230
Nsg231
Nsg232
Nsg233
Nsg234
Nsg235
Nsg236
Nsssg247
(dp1723
Vtx B-tx A
p1724
(dp1725
g230
F3.020300910481928
sg231
F0.18562988537503844
sg232
F1.6029653979284832
sg233
F20.49745865645572
sg234
F4.967741935483873
sg235
F1.2039765685680508
sg236
NssVtx A-tx B
p1726
(dp1727
g230
F-0.18562988537503822
sg231
F-3.0203009104819283
sg232
F-1.6029653979284832
sg233
F0.8305809482566175
sg234
F0.20129870129870123
sg235
F0.048786535773060205
sg236
Nsssg253
(dp1728
Vtx B-tx A
p1729
(dp1730
g230
Nsg231
Nsg232
Nsg233
Nsg234
Nsg235
Nsg236
NssVtx A-tx B
p1731
(dp1732
g230
Nsg231
Nsg232
Nsg233
Nsg234
Nsg235
Nsg236
Nsssg259
(dp1733
Vtx B-tx A
p1734
(dp1735
g230
Nsg231
Nsg232
Nsg233
Nsg234
Nsg235
Nsg236
NssVtx A-tx B
p1736
(dp1737
g230
Nsg231
Nsg232
Nsg233
Nsg234
Nsg235
Nsg236
Nsssg265
(dp1738
Vtx B-tx A
p1739
(dp1740
g230
Nsg231
Nsg232
Nsg233
Nsg234
Nsg235
Nsg236
NssVtx A-tx B
p1741
(dp1742
g230
Nsg231
Nsg232
Nsg233
Nsg234
Nsg235
Nsg236
Nsssg271
(dp1743
Vtx B-tx A
p1744
(dp1745
g230
Nsg231
Nsg232
Nsg233
Nsg234
Nsg235
Nsg236
NssVtx A-tx B
p1746
(dp1747
g230
Nsg231
Nsg232
Nsg233
Nsg234
Nsg235
Nsg236
Nsssg277
(dp1748
g55
(dp1749
g230
Nsg231
Nsg232
Nsg233
Nsg234
Nsg235
Nsg236
Nssg62
(dp1750
g230
Nsg231
Nsg232
Nsg233
Nsg234
Nsg235
Nsg236
Nsssg281
(dp1751
g55
(dp1752
g230
Nsg231
Nsg232
Nsg233
Nsg234
Nsg235
Nsg236
Nssg62
(dp1753
g230
Nsg231
Nsg232
Nsg233
Nsg234
Nsg235
Nsg236
Nsssg285
(dp1754
g55
(dp1755
g230
Nsg231
Nsg232
Nsg233
Nsg234
Nsg235
Nsg236
Nssg62
(dp1756
g230
Nsg231
Nsg232
Nsg233
Nsg234
Nsg235
Nsg236
Nsssg289
(dp1757
Vtx B-tx A
p1758
(dp1759
g230
F3.5825919439233846
sg231
F0.3516327694884478
sg232
F1.9671123567059163
sg233
F35.96664365978304
sg234
F7.15
sg235
F1.4213864513903431
sg236
NssVtx A-tx B
p1760
(dp1761
g230
F-0.35163276948844757
sg231
F-3.582591943923385
sg232
F-1.9671123567059163
sg233
F0.7035384353226671
sg234
F0.13986013986013984
sg235
F0.027803539564581987
sg236
Nssssg139
I2
sbsssg295
I00
sg296
I1988
sg297
Nsg60
I8
sba(ima_dataset
Study
p1762
(dp1763
g35
I01
sg36
VDe Vries
p1764
sg38
(dp1765
sg25
g26
sg40
(lp1766
g42
ag46
asg48
(dp1767
g7
(dp1768
g12
(ima_dataset
MetaAnalyticUnit
p1769
(dp1770
g29
I00
sg53
(dp1771
g55
(ima_dataset
TreatmentGroup
p1772
(dp1773
g58
(lp1774
F9.0
aF81.0
asg60
I0
sg36
g61
sbsg62
(ima_dataset
TreatmentGroup
p1775
(dp1776
g58
(lp1777
F8.0
aF90.0
asg60
I1
sg36
g66
sbssg67
g46
sg68
(dp1778
g70
(dp1779
Vtx B-tx A
p1780
(dp1781
g74
Nsg75
Nsg76
Nsg77
Nsg78
Nsg79
Nsg80
NssVtx A-tx B
p1782
(dp1783
g74
Nsg75
Nsg76
Nsg77
Nsg78
Nsg79
Nsg80
Nsssg83
(dp1784
g55
(dp1785
g74
Nsg75
Nsg76
Nsg77
Nsg78
Nsg79
Nsg80
Nssg62
(dp1786
g74
Nsg75
Nsg76
Nsg77
Nsg78
Nsg79
Nsg80
Nsssg87
(dp1787
g55
(dp1788
g74
Nsg75
Nsg76
Nsg77
Nsg78
Nsg79
Nsg80
Nssg62
(dp1789
g74
Nsg75
Nsg76
Nsg77
Nsg78
Nsg79
Nsg80
Nsssg91
(dp1790
Vtx B-tx A
p1791
(dp1792
g74
Nsg75
Nsg76
Nsg77
Nsg78
Nsg79
Nsg80
NssVtx A-tx B
p1793
(dp1794
g74
F1.1269703140938612
sg75
F-0.6806832114654416
sg76
F0.2231435513142097
sg77
F3.0862918264291834
sg78
F1.25
sg79
F0.5062709840397046
sg80
Nsssg97
(dp1795
Vtx B-tx A
p1796
(dp1797
g74
Nsg75
Nsg76
Nsg77
Nsg78
Nsg79
Nsg80
NssVtx A-tx B
p1798
(dp1799
g74
Nsg75
Nsg76
Nsg77
Nsg78
Nsg79
Nsg80
Nsssg103
(dp1800
Vtx B-tx A
p1801
(dp1802
g74
Nsg75
Nsg76
Nsg77
Nsg78
Nsg79
Nsg80
NssVtx A-tx B
p1803
(dp1804
g74
Nsg75
Nsg76
Nsg77
Nsg78
Nsg79
Nsg80
Nsssg109
(dp1805
Vtx B-tx A
p1806
(dp1807
g74
Nsg75
Nsg76
Nsg77
Nsg78
Nsg79
Nsg80
NssVtx A-tx B
p1808
(dp1809
g74
Nsg75
Nsg76
Nsg77
Nsg78
Nsg79
Nsg80
Nsssg115
(dp1810
Vtx B-tx A
p1811
(dp1812
g74
Nsg75
Nsg76
Nsg77
Nsg78
Nsg79
Nsg80
NssVtx A-tx B
p1813
(dp1814
g74
Nsg75
Nsg76
Nsg77
Nsg78
Nsg79
Nsg80
Nsssg121
(dp1815
g55
(dp1816
g74
Nsg75
Nsg76
Nsg77
Nsg78
Nsg79
Nsg80
Nssg62
(dp1817
g74
Nsg75
Nsg76
Nsg77
Nsg78
Nsg79
Nsg80
Nsssg125
(dp1818
g55
(dp1819
g74
Nsg75
Nsg76
Nsg77
Nsg78
Nsg79
Nsg80
Nssg62
(dp1820
g74
Nsg75
Nsg76
Nsg77
Nsg78
Nsg79
Nsg80
Nsssg129
(dp1821
g55
(dp1822
g74
Nsg75
Nsg76
Nsg77
Nsg78
Nsg79
Nsg80
Nssg62
(dp1823
g74
Nsg75
Nsg76
Nsg77
Nsg78
Nsg79
Nsg80
Nsssg133
(dp1824
Vtx B-tx A
p1825
(dp1826
g74
F0.7557632402216286
sg75
F-1.2514355680307914
sg76
F-0.2478361639045814
sg77
F2.1292360219083806
sg78
F0.7804878048780487
sg79
F0.28609379481443264
sg80
NssVtx A-tx B
p1827
(dp1828
g74
F1.2514355680307914
sg75
F-0.7557632402216286
sg76
F0.2478361639045814
sg77
F3.4953571804960823
sg78
F1.2812500000000002
sg79
F0.46965202058892713
sg80
Nssssg139
I2
sbssg18
(dp1829
N(ima_dataset
MetaAnalyticUnit
p1830
(dp1831
g68
(dp1832
g144
(dp1833
S'tx B-tx A'
p1834
(dp1835
g148
Nsg149
Nsg150
Nsg151
Nsg152
Nsg153
Nsg154
NssS'tx A-tx B'
p1836
(dp1837
g148
Nsg149
Nsg150
Nsg151
Nsg152
Nsg153
Nsg154
Nsssg157
(dp1838
g159
(dp1839
g148
Nsg149
Nsg150
Nsg151
Nsg152
Nsg153
Nsg154
Nssg161
(dp1840
g148
Nsg149
Nsg150
Nsg151
Nsg152
Nsg153
Nsg154
Nsssg163
(dp1841
g159
(dp1842
g148
Nsg149
Nsg150
Nsg151
Nsg152
Nsg153
Nsg154
Nssg161
(dp1843
g148
Nsg149
Nsg150
Nsg151
Nsg152
Nsg153
Nsg154
Nsssg167
(dp1844
S'tx B-tx A'
p1845
(dp1846
g148
Nsg149
Nsg150
Nsg151
Nsg152
Nsg153
Nsg154
NssS'tx A-tx B'
p1847
(dp1848
g148
Nsg149
Nsg150
Nsg151
Nsg152
Nsg153
Nsg154
Nsssg173
(dp1849
S'tx B-tx A'
p1850
(dp1851
g148
Nsg149
Nsg150
Nsg151
Nsg152
Nsg153
Nsg154
NssS'tx A-tx B'
p1852
(dp1853
g148
Nsg149
Nsg150
Nsg151
Nsg152
Nsg153
Nsg154
Nsssg179
(dp1854
S'tx B-tx A'
p1855
(dp1856
g148
Nsg149
Nsg150
Nsg151
Nsg152
Nsg153
Nsg154
NssS'tx A-tx B'
p1857
(dp1858
g148
Nsg149
Nsg150
Nsg151
Nsg152
Nsg153
Nsg154
Nsssg185
(dp1859
S'tx B-tx A'
p1860
(dp1861
g148
Nsg149
Nsg150
Nsg151
Nsg152
Nsg153
Nsg154
NssS'tx A-tx B'
p1862
(dp1863
g148
Nsg149
Nsg150
Nsg151
Nsg152
Nsg153
Nsg154
Nsssg191
(dp1864
g159
(dp1865
g148
Nsg149
Nsg150
Nsg151
Nsg152
Nsg153
Nsg154
Nssg161
(dp1866
g148
Nsg149
Nsg150
Nsg151
Nsg152
Nsg153
Nsg154
Nsssg195
(dp1867
g159
(dp1868
g148
Nsg149
Nsg150
Nsg151
Nsg152
Nsg153
Nsg154
Nssg161
(dp1869
g148
Nsg149
Nsg150
Nsg151
Nsg152
Nsg153
Nsg154
Nsssg199
(dp1870
g159
(dp1871
g148
Nsg149
Nsg150
Nsg151
Nsg152
Nsg153
Nsg154
Nssg161
(dp1872
g148
Nsg149
Nsg150
Nsg151
Nsg152
Nsg153
Nsg154
Nsssg203
(dp1873
S'tx B-tx A'
p1874
(dp1875
g148
Nsg149
Nsg150
Nsg151
Nsg152
Nsg153
Nsg154
NssS'tx A-tx B'
p1876
(dp1877
g148
Nsg149
Nsg150
Nsg151
Nsg152
Nsg153
Nsg154
Nssssg53
(dp1878
g159
(ima_dataset
TreatmentGroup
p1879
(dp1880
g58
(lp1881
g26
ag26
asg60
I0
sg36
g159
sbsg161
(ima_dataset
TreatmentGroup
p1882
(dp1883
g58
(lp1884
g26
ag26
asg60
I1
sg36
g161
sbssg67
g42
sg29
I00
sg139
I2
sbsg20
(ima_dataset
MetaAnalyticUnit
p1885
(dp1886
g29
I00
sg53
(dp1887
g55
(ima_dataset
TreatmentGroup
p1888
(dp1889
g58
(lp1890
F6.0
aF80.0
asg60
I0
sg36
g61
sbsg62
(ima_dataset
TreatmentGroup
p1891
(dp1892
g58
(lp1893
F3.0
aF76.0
asg60
I1
sg36
g66
sbssg67
g42
sg68
(dp1894
g226
(dp1895
Vtx B-tx A
p1896
(dp1897
g230
Nsg231
Nsg232
Nsg233
Nsg234
Nsg235
Nsg236
NssVtx A-tx B
p1898
(dp1899
g230
Nsg231
Nsg232
Nsg233
Nsg234
Nsg235
Nsg236
Nsssg239
(dp1900
g55
(dp1901
g230
Nsg231
Nsg232
Nsg233
Nsg234
Nsg235
Nsg236
Nssg62
(dp1902
g230
Nsg231
Nsg232
Nsg233
Nsg234
Nsg235
Nsg236
Nsssg243
(dp1903
g55
(dp1904
g230
Nsg231
Nsg232
Nsg233
Nsg234
Nsg235
Nsg236
Nssg62
(dp1905
g230
Nsg231
Nsg232
Nsg233
Nsg234
Nsg235
Nsg236
Nsssg247
(dp1906
Vtx B-tx A
p1907
(dp1908
g230
F0.7080222801072305
sg231
F-1.99173005245202
sg232
F-0.6418538861723948
sg233
F2.0299725689040127
sg234
F0.5263157894736842
sg235
F0.1364591396419041
sg236
NssVtx A-tx B
p1909
(dp1910
g230
F1.99173005245202
sg231
F-0.7080222801072305
sg232
F0.6418538861723948
sg233
F7.328200973743487
sg234
F1.9000000000000001
sg235
F0.4926174941072738
sg236
Nsssg253
(dp1911
Vtx B-tx A
p1912
(dp1913
g230
Nsg231
Nsg232
Nsg233
Nsg234
Nsg235
Nsg236
NssVtx A-tx B
p1914
(dp1915
g230
Nsg231
Nsg232
Nsg233
Nsg234
Nsg235
Nsg236
Nsssg259
(dp1916
Vtx B-tx A
p1917
(dp1918
g230
Nsg231
Nsg232
Nsg233
Nsg234
Nsg235
Nsg236
NssVtx A-tx B
p1919
(dp1920
g230
Nsg231
Nsg232
Nsg233
Nsg234
Nsg235
Nsg236
Nsssg265
(dp1921
Vtx B-tx A
p1922
(dp1923
g230
Nsg231
Nsg232
Nsg233
Nsg234
Nsg235
Nsg236
NssVtx A-tx B
p1924
(dp1925
g230
Nsg231
Nsg232
Nsg233
Nsg234
Nsg235
Nsg236
Nsssg271
(dp1926
Vtx B-tx A
p1927
(dp1928
g230
Nsg231
Nsg232
Nsg233
Nsg234
Nsg235
Nsg236
NssVtx A-tx B
p1929
(dp1930
g230
Nsg231
Nsg232
Nsg233
Nsg234
Nsg235
Nsg236
Nsssg277
(dp1931
g55
(dp1932
g230
Nsg231
Nsg232
Nsg233
Nsg234
Nsg235
Nsg236
Nssg62
(dp1933
g230
Nsg231
Nsg232
Nsg233
Nsg234
Nsg235
Nsg236
Nsssg281
(dp1934
g55
(dp1935
g230
Nsg231
Nsg232
Nsg233
Nsg234
Nsg235
Nsg236
Nssg62
(dp1936
g230
Nsg231
Nsg232
Nsg233
Nsg234
Nsg235
Nsg236
Nsssg285
(dp1937
g55
(dp1938
g230
Nsg231
Nsg232
Nsg233
Nsg234
Nsg235
Nsg236
Nssg62
(dp1939
g230
Nsg231
Nsg232
Nsg233
Nsg234
Nsg235
Nsg236
Nsssg289
(dp1940
Vtx B-tx A
p1941
(dp1942
g230
F0.7435760842050816
sg231
F-2.102659141213415
sg232
F-0.6795415285041666
sg233
F2.1034441741803063
sg234
F0.5068493150684932
sg235
F0.12213123188092734
sg236
NssVtx A-tx B
p1943
(dp1944
g230
F2.102659141213415
sg231
F-0.7435760842050816
sg232
F0.6795415285041666
sg233
F8.187913808770526
sg234
F1.9729729729729728
sg235
F0.4754107631069844
sg236
Nssssg139
I2
sbsssg295
I00
sg296
I1990
sg297
Nsg60
I9
sba(ima_dataset
Study
p1945
(dp1946
g35
I01
sg36
VMauracher
p1947
sg38
(dp1948
sg25
g26
sg40
(lp1949
g42
ag46
asg48
(dp1950
g7
(dp1951
g12
(ima_dataset
MetaAnalyticUnit
p1952
(dp1953
g29
I00
sg53
(dp1954
g55
(ima_dataset
TreatmentGroup
p1955
(dp1956
g58
(lp1957
F2.0
aF92.0
asg60
I0
sg36
g61
sbsg62
(ima_dataset
TreatmentGroup
p1958
(dp1959
g58
(lp1960
F2.0
aF93.0
asg60
I1
sg36
g66
sbssg67
g46
sg68
(dp1961
g70
(dp1962
Vtx B-tx A
p1963
(dp1964
g74
Nsg75
Nsg76
Nsg77
Nsg78
Nsg79
Nsg80
NssVtx A-tx B
p1965
(dp1966
g74
Nsg75
Nsg76
Nsg77
Nsg78
Nsg79
Nsg80
Nsssg83
(dp1967
g55
(dp1968
g74
Nsg75
Nsg76
Nsg77
Nsg78
Nsg79
Nsg80
Nssg62
(dp1969
g74
Nsg75
Nsg76
Nsg77
Nsg78
Nsg79
Nsg80
Nsssg87
(dp1970
g55
(dp1971
g74
Nsg75
Nsg76
Nsg77
Nsg78
Nsg79
Nsg80
Nssg62
(dp1972
g74
Nsg75
Nsg76
Nsg77
Nsg78
Nsg79
Nsg80
Nsssg91
(dp1973
Vtx B-tx A
p1974
(dp1975
g74
Nsg75
Nsg76
Nsg77
Nsg78
Nsg79
Nsg80
NssVtx A-tx B
p1976
(dp1977
g74
F1.9494696856374196
sg75
F-1.927847853428989
sg76
F0.010810916104215362
sg77
F7.02496115479111
sg78
F1.0108695652173911
sg79
F0.14546091506653783
sg80
Nsssg97
(dp1978
Vtx B-tx A
p1979
(dp1980
g74
Nsg75
Nsg76
Nsg77
Nsg78
Nsg79
Nsg80
NssVtx A-tx B
p1981
(dp1982
g74
Nsg75
Nsg76
Nsg77
Nsg78
Nsg79
Nsg80
Nsssg103
(dp1983
Vtx B-tx A
p1984
(dp1985
g74
Nsg75
Nsg76
Nsg77
Nsg78
Nsg79
Nsg80
NssVtx A-tx B
p1986
(dp1987
g74
Nsg75
Nsg76
Nsg77
Nsg78
Nsg79
Nsg80
Nsssg109
(dp1988
Vtx B-tx A
p1989
(dp1990
g74
Nsg75
Nsg76
Nsg77
Nsg78
Nsg79
Nsg80
NssVtx A-tx B
p1991
(dp1992
g74
Nsg75
Nsg76
Nsg77
Nsg78
Nsg79
Nsg80
Nsssg115
(dp1993
Vtx B-tx A
p1994
(dp1995
g74
Nsg75
Nsg76
Nsg77
Nsg78
Nsg79
Nsg80
NssVtx A-tx B
p1996
(dp1997
g74
Nsg75
Nsg76
Nsg77
Nsg78
Nsg79
Nsg80
Nsssg121
(dp1998
g55
(dp1999
g74
Nsg75
Nsg76
Nsg77
Nsg78
Nsg79
Nsg80
Nssg62
(dp2000
g74
Nsg75
Nsg76
Nsg77
Nsg78
Nsg79
Nsg80
Nsssg125
(dp2001
g55
(dp2002
g74
Nsg75
Nsg76
Nsg77
Nsg78
Nsg79
Nsg80
Nssg62
(dp2003
g74
Nsg75
Nsg76
Nsg77
Nsg78
Nsg79
Nsg80
Nsssg129
(dp2004
g55
(dp2005
g74
Nsg75
Nsg76
Nsg77
Nsg78
Nsg79
Nsg80
Nssg62
(dp2006
g74
Nsg75
Nsg76
Nsg77
Nsg78
Nsg79
Nsg80
Nsssg133
(dp2007
Vtx B-tx A
p2008
(dp2009
g74
F1.9704535147250544
sg75
F-1.9925531870982238
sg76
F-0.011049836186584727
sg77
F7.173929233250784
sg78
F0.9890109890109893
sg79
F0.13634686161258117
sg80
NssVtx A-tx B
p2010
(dp2011
g74
F1.9925531870982238
sg75
F-1.9704535147250544
sg76
F0.011049836186584727
sg77
F7.3342355531542855
sg78
F1.0111111111111108
sg79
F0.13939362481651654
sg80
Nssssg139
I2
sbssg18
(dp2012
N(ima_dataset
MetaAnalyticUnit
p2013
(dp2014
g68
(dp2015
g144
(dp2016
S'tx B-tx A'
p2017
(dp2018
g148
Nsg149
Nsg150
Nsg151
Nsg152
Nsg153
Nsg154
NssS'tx A-tx B'
p2019
(dp2020
g148
Nsg149
Nsg150
Nsg151
Nsg152
Nsg153
Nsg154
Nsssg157
(dp2021
g159
(dp2022
g148
Nsg149
Nsg150
Nsg151
Nsg152
Nsg153
Nsg154
Nssg161
(dp2023
g148
Nsg149
Nsg150
Nsg151
Nsg152
Nsg153
Nsg154
Nsssg163
(dp2024
g159
(dp2025
g148
Nsg149
Nsg150
Nsg151
Nsg152
Nsg153
Nsg154
Nssg161
(dp2026
g148
Nsg149
Nsg150
Nsg151
Nsg152
Nsg153
Nsg154
Nsssg167
(dp2027
S'tx B-tx A'
p2028
(dp2029
g148
Nsg149
Nsg150
Nsg151
Nsg152
Nsg153
Nsg154
NssS'tx A-tx B'
p2030
(dp2031
g148
Nsg149
Nsg150
Nsg151
Nsg152
Nsg153
Nsg154
Nsssg173
(dp2032
S'tx B-tx A'
p2033
(dp2034
g148
Nsg149
Nsg150
Nsg151
Nsg152
Nsg153
Nsg154
NssS'tx A-tx B'
p2035
(dp2036
g148
Nsg149
Nsg150
Nsg151
Nsg152
Nsg153
Nsg154
Nsssg179
(dp2037
S'tx B-tx A'
p2038
(dp2039
g148
Nsg149
Nsg150
Nsg151
Nsg152
Nsg153
Nsg154
NssS'tx A-tx B'
p2040
(dp2041
g148
Nsg149
Nsg150
Nsg151
Nsg152
Nsg153
Nsg154
Nsssg185
(dp2042
S'tx B-tx A'
p2043
(dp2044
g148
Nsg149
Nsg150
Nsg151
Nsg152
Nsg153
Nsg154
NssS'tx A-tx B'
p2045
(dp2046
g148
Nsg149
Nsg150
Nsg151
Nsg152
Nsg153
Nsg154
Nsssg191
(dp2047
g159
(dp2048
g148
Nsg149
Nsg150
Nsg151
Nsg152
Nsg153
Nsg154
Nssg161
(dp2049
g148
Nsg149
Nsg150
Nsg151
Nsg152
Nsg153
Nsg154
Nsssg195
(dp2050
g159
(dp2051
g148
Nsg149
Nsg150
Nsg151
Nsg152
Nsg153
Nsg154
Nssg161
(dp2052
g148
Nsg149
Nsg150
Nsg151
Nsg152
Nsg153
Nsg154
Nsssg199
(dp2053
g159
(dp2054
g148
Nsg149
Nsg150
Nsg151
Nsg152
Nsg153
Nsg154
Nssg161
(dp2055
g148
Nsg149
Nsg150
Nsg151
Nsg152
Nsg153
Nsg154
Nsssg203
(dp2056
S'tx B-tx A'
p2057
(dp2058
g148
Nsg149
Nsg150
Nsg151
Nsg152
Nsg153
Nsg154
NssS'tx A-tx B'
p2059
(dp2060
g148
Nsg149
Nsg150
Nsg151
Nsg152
Nsg153
Nsg154
Nssssg53
(dp2061
g159
(ima_dataset
TreatmentGroup
p2062
(dp2063
g58
(lp2064
g26
ag26
asg60
I0
sg36
g159
sbsg161
(ima_dataset
TreatmentGroup
p2065
(dp2066
g58
(lp2067
g26
ag26
asg60
I1
sg36
g161
sbssg67
g42
sg29
I00
sg139
I2
sbsg20
(ima_dataset
MetaAnalyticUnit
p2068
(dp2069
g29
I00
sg53
(dp2070
g55
(ima_dataset
TreatmentGroup
p2071
(dp2072
g58
(lp2073
F0.0
aF92.0
asg60
I0
sg36
g61
sbsg62
(ima_dataset
TreatmentGroup
p2074
(dp2075
g58
(lp2076
F6.0
aF93.0
asg60
I1
sg36
g66
sbssg67
g42
sg68
(dp2077
g226
(dp2078
Vtx B-tx A
p2079
(dp2080
g230
Nsg231
Nsg232
Nsg233
Nsg234
Nsg235
Nsg236
NssVtx A-tx B
p2081
(dp2082
g230
Nsg231
Nsg232
Nsg233
Nsg234
Nsg235
Nsg236
Nsssg239
(dp2083
g55
(dp2084
g230
Nsg231
Nsg232
Nsg233
Nsg234
Nsg235
Nsg236
Nssg62
(dp2085
g230
Nsg231
Nsg232
Nsg233
Nsg234
Nsg235
Nsg236
Nsssg243
(dp2086
g55
(dp2087
g230
Nsg231
Nsg232
Nsg233
Nsg234
Nsg235
Nsg236
Nssg62
(dp2088
g230
Nsg231
Nsg232
Nsg233
Nsg234
Nsg235
Nsg236
Nsssg247
(dp2089
Vtx B-tx A
p2090
(dp2091
g230
F5.41637543440998
sg231
F-0.30786729772040333
sg232
F2.5542540683447883
sg233
F225.0618907568366
sg234
F12.861702127659568
sg235
F0.7350128494182561
sg236
NssVtx A-tx B
p2092
(dp2093
g230
F0.30786729772040333
sg231
F-5.41637543440998
sg232
F-2.5542540683447883
sg233
F1.3605204327944396
sg234
F0.07775020678246489
sg235
F0.004443222247165909
sg236
Nsssg253
(dp2094
Vtx B-tx A
p2095
(dp2096
g230
Nsg231
Nsg232
Nsg233
Nsg234
Nsg235
Nsg236
NssVtx A-tx B
p2097
(dp2098
g230
Nsg231
Nsg232
Nsg233
Nsg234
Nsg235
Nsg236
Nsssg259
(dp2099
Vtx B-tx A
p2100
(dp2101
g230
Nsg231
Nsg232
Nsg233
Nsg234
Nsg235
Nsg236
NssVtx A-tx B
p2102
(dp2103
g230
Nsg231
Nsg232
Nsg233
Nsg234
Nsg235
Nsg236
Nsssg265
(dp2104
Vtx B-tx A
p2105
(dp2106
g230
Nsg231
Nsg232
Nsg233
Nsg234
Nsg235
Nsg236
NssVtx A-tx B
p2107
(dp2108
g230
Nsg231
Nsg232
Nsg233
Nsg234
Nsg235
Nsg236
Nsssg271
(dp2109
Vtx B-tx A
p2110
(dp2111
g230
Nsg231
Nsg232
Nsg233
Nsg234
Nsg235
Nsg236
NssVtx A-tx B
p2112
(dp2113
g230
Nsg231
Nsg232
Nsg233
Nsg234
Nsg235
Nsg236
Nsssg277
(dp2114
g55
(dp2115
g230
Nsg231
Nsg232
Nsg233
Nsg234
Nsg235
Nsg236
Nssg62
(dp2116
g230
Nsg231
Nsg232
Nsg233
Nsg234
Nsg235
Nsg236
Nsssg281
(dp2117
g55
(dp2118
g230
Nsg231
Nsg232
Nsg233
Nsg234
Nsg235
Nsg236
Nssg62
(dp2119
g230
Nsg231
Nsg232
Nsg233
Nsg234
Nsg235
Nsg236
Nsssg285
(dp2120
g55
(dp2121
g230
Nsg231
Nsg232
Nsg233
Nsg234
Nsg235
Nsg236
Nssg62
(dp2122
g230
Nsg231
Nsg232
Nsg233
Nsg234
Nsg235
Nsg236
Nsssg289
(dp2123
Vtx B-tx A
p2124
(dp2125
g230
F5.511772047297303
sg231
F-0.27073363006460793
sg232
F2.620519208616347
sg233
F247.58947882968926
sg234
F13.742857142857138
sg235
F0.7628196615692863
sg236
NssVtx A-tx B
p2126
(dp2127
g230
F0.2707336300646084
sg231
F-5.511772047297303
sg232
F-2.620519208616347
sg233
F1.3109258326440911
sg234
F0.0727650727650728
sg235
F0.004038943838513734
sg236
Nssssg139
I2
sbsssg295
I00
sg296
I1989
sg297
Nsg60
I10
sba(ima_dataset
Study
p2128
(dp2129
g35
I01
sg36
VNordstrom
p2130
sg38
(dp2131
sg25
g26
sg40
(lp2132
g42
ag46
asg48
(dp2133
g7
(dp2134
g12
(ima_dataset
MetaAnalyticUnit
p2135
(dp2136
g29
I00
sg53
(dp2137
g55
(ima_dataset
TreatmentGroup
p2138
(dp2139
g58
(lp2140
F3.0
aF29.0
asg60
I0
sg36
g61
sbsg62
(ima_dataset
TreatmentGroup
p2141
(dp2142
g58
(lp2143
F5.0
aF25.0
asg60
I1
sg36
g66
sbssg67
g46
sg68
(dp2144
g70
(dp2145
Vtx B-tx A
p2146
(dp2147
g74
Nsg75
Nsg76
Nsg77
Nsg78
Nsg79
Nsg80
NssVtx A-tx B
p2148
(dp2149
g74
Nsg75
Nsg76
Nsg77
Nsg78
Nsg79
Nsg80
Nsssg83
(dp2150
g55
(dp2151
g74
Nsg75
Nsg76
Nsg77
Nsg78
Nsg79
Nsg80
Nssg62
(dp2152
g74
Nsg75
Nsg76
Nsg77
Nsg78
Nsg79
Nsg80
Nsssg87
(dp2153
g55
(dp2154
g74
Nsg75
Nsg76
Nsg77
Nsg78
Nsg79
Nsg80
Nssg62
(dp2155
g74
Nsg75
Nsg76
Nsg77
Nsg78
Nsg79
Nsg80
Nsssg91
(dp2156
Vtx B-tx A
p2157
(dp2158
g74
Nsg75
Nsg76
Nsg77
Nsg78
Nsg79
Nsg80
NssVtx A-tx B
p2159
(dp2160
g74
F0.6684047722418958
sg75
F-1.9868960300104235
sg76
F-0.6592456288842639
sg77
F1.9511223522187486
sg78
F0.5172413793103449
sg79
F0.13712038313057734
sg80
Nsssg97
(dp2161
Vtx B-tx A
p2162
(dp2163
g74
Nsg75
Nsg76
Nsg77
Nsg78
Nsg79
Nsg80
NssVtx A-tx B
p2164
(dp2165
g74
Nsg75
Nsg76
Nsg77
Nsg78
Nsg79
Nsg80
Nsssg103
(dp2166
Vtx B-tx A
p2167
(dp2168
g74
Nsg75
Nsg76
Nsg77
Nsg78
Nsg79
Nsg80
NssVtx A-tx B
p2169
(dp2170
g74
Nsg75
Nsg76
Nsg77
Nsg78
Nsg79
Nsg80
Nsssg109
(dp2171
Vtx B-tx A
p2172
(dp2173
g74
Nsg75
Nsg76
Nsg77
Nsg78
Nsg79
Nsg80
NssVtx A-tx B
p2174
(dp2175
g74
Nsg75
Nsg76
Nsg77
Nsg78
Nsg79
Nsg80
Nsssg115
(dp2176
Vtx B-tx A
p2177
(dp2178
g74
Nsg75
Nsg76
Nsg77
Nsg78
Nsg79
Nsg80
NssVtx A-tx B
p2179
(dp2180
g74
Nsg75
Nsg76
Nsg77
Nsg78
Nsg79
Nsg80
Nsssg121
(dp2181
g55
(dp2182
g74
Nsg75
Nsg76
Nsg77
Nsg78
Nsg79
Nsg80
Nssg62
(dp2183
g74
Nsg75
Nsg76
Nsg77
Nsg78
Nsg79
Nsg80
Nsssg125
(dp2184
g55
(dp2185
g74
Nsg75
Nsg76
Nsg77
Nsg78
Nsg79
Nsg80
Nssg62
(dp2186
g74
Nsg75
Nsg76
Nsg77
Nsg78
Nsg79
Nsg80
Nsssg129
(dp2187
g55
(dp2188
g74
Nsg75
Nsg76
Nsg77
Nsg78
Nsg79
Nsg80
Nssg62
(dp2189
g74
Nsg75
Nsg76
Nsg77
Nsg78
Nsg79
Nsg80
Nsssg133
(dp2190
Vtx B-tx A
p2191
(dp2192
g74
F2.3186993171658266
sg75
F-0.7723195406988625
sg76
F0.773189888233482
sg77
F10.16244758492658
sg78
F2.1666666666666674
sg79
F0.46194033526012646
sg80
NssVtx A-tx B
p2193
(dp2194
g74
F0.7723195406988625
sg75
F-2.3186993171658266
sg76
F-0.773189888233482
sg77
F2.1647817340671995
sg78
F0.4615384615384614
sg79
F0.09840149153470144
sg80
Nssssg139
I2
sbssg18
(dp2195
N(ima_dataset
MetaAnalyticUnit
p2196
(dp2197
g68
(dp2198
g144
(dp2199
S'tx B-tx A'
p2200
(dp2201
g148
Nsg149
Nsg150
Nsg151
Nsg152
Nsg153
Nsg154
NssS'tx A-tx B'
p2202
(dp2203
g148
Nsg149
Nsg150
Nsg151
Nsg152
Nsg153
Nsg154
Nsssg157
(dp2204
g159
(dp2205
g148
Nsg149
Nsg150
Nsg151
Nsg152
Nsg153
Nsg154
Nssg161
(dp2206
g148
Nsg149
Nsg150
Nsg151
Nsg152
Nsg153
Nsg154
Nsssg163
(dp2207
g159
(dp2208
g148
Nsg149
Nsg150
Nsg151
Nsg152
Nsg153
Nsg154
Nssg161
(dp2209
g148
Nsg149
Nsg150
Nsg151
Nsg152
Nsg153
Nsg154
Nsssg167
(dp2210
S'tx B-tx A'
p2211
(dp2212
g148
Nsg149
Nsg150
Nsg151
Nsg152
Nsg153
Nsg154
NssS'tx A-tx B'
p2213
(dp2214
g148
Nsg149
Nsg150
Nsg151
Nsg152
Nsg153
Nsg154
Nsssg173
(dp2215
S'tx B-tx A'
p2216
(dp2217
g148
Nsg149
Nsg150
Nsg151
Nsg152
Nsg153
Nsg154
NssS'tx A-tx B'
p2218
(dp2219
g148
Nsg149
Nsg150
Nsg151
Nsg152
Nsg153
Nsg154
Nsssg179
(dp2220
S'tx B-tx A'
p2221
(dp2222
g148
Nsg149
Nsg150
Nsg151
Nsg152
Nsg153
Nsg154
NssS'tx A-tx B'
p2223
(dp2224
g148
Nsg149
Nsg150
Nsg151
Nsg152
Nsg153
Nsg154
Nsssg185
(dp2225
S'tx B-tx A'
p2226
(dp2227
g148
Nsg149
Nsg150
Nsg151
Nsg152
Nsg153
Nsg154
NssS'tx A-tx B'
p2228
(dp2229
g148
Nsg149
Nsg150
Nsg151
Nsg152
Nsg153
Nsg154
Nsssg191
(dp2230
g159
(dp2231
g148
Nsg149
Nsg150
Nsg151
Nsg152
Nsg153
Nsg154
Nssg161
(dp2232
g148
Nsg149
Nsg150
Nsg151
Nsg152
Nsg153
Nsg154
Nsssg195
(dp2233
g159
(dp2234
g148
Nsg149
Nsg150
Nsg151
Nsg152
Nsg153
Nsg154
Nssg161
(dp2235
g148
Nsg149
Nsg150
Nsg151
Nsg152
Nsg153
Nsg154
Nsssg199
(dp2236
g159
(dp2237
g148
Nsg149
Nsg150
Nsg151
Nsg152
Nsg153
Nsg154
Nssg161
(dp2238
g148
Nsg149
Nsg150
Nsg151
Nsg152
Nsg153
Nsg154
Nsssg203
(dp2239
S'tx B-tx A'
p2240
(dp2241
g148
Nsg149
Nsg150
Nsg151
Nsg152
Nsg153
Nsg154
NssS'tx A-tx B'
p2242
(dp2243
g148
Nsg149
Nsg150
Nsg151
Nsg152
Nsg153
Nsg154
Nssssg53
(dp2244
g159
(ima_dataset
TreatmentGroup
p2245
(dp2246
g58
(lp2247
g26
ag26
asg60
I0
sg36
g159
sbsg161
(ima_dataset
TreatmentGroup
p2248
(dp2249
g58
(lp2250
g26
ag26
asg60
I1
sg36
g161
sbssg67
g42
sg29
I00
sg139
I2
sbsg20
(ima_dataset
MetaAnalyticUnit
p2251
(dp2252
g29
I00
sg53
(dp2253
g55
(ima_dataset
TreatmentGroup
p2254
(dp2255
g58
(lp2256
F3.0
aF29.0
asg60
I0
sg36
g61
sbsg62
(ima_dataset
TreatmentGroup
p2257
(dp2258
g58
(lp2259
F4.0
aF27.0
asg60
I1
sg36
g66
sbssg67
g42
sg68
(dp2260
g226
(dp2261
Vtx B-tx A
p2262
(dp2263
g230
Nsg231
Nsg232
Nsg233
Nsg234
Nsg235
Nsg236
NssVtx A-tx B
p2264
(dp2265
g230
Nsg231
Nsg232
Nsg233
Nsg234
Nsg235
Nsg236
Nsssg239
(dp2266
g55
(dp2267
g230
Nsg231
Nsg232
Nsg233
Nsg234
Nsg235
Nsg236
Nssg62
(dp2268
g230
Nsg231
Nsg232
Nsg233
Nsg234
Nsg235
Nsg236
Nsssg243
(dp2269
g55
(dp2270
g230
Nsg231
Nsg232
Nsg233
Nsg234
Nsg235
Nsg236
Nssg62
(dp2271
g230
Nsg231
Nsg232
Nsg233
Nsg234
Nsg235
Nsg236
Nsssg247
(dp2272
Vtx B-tx A
p2273
(dp2274
g230
F1.7613217055542154
sg231
F-1.0430396326863642
sg232
F0.3591410364339256
sg233
F5.820124804317393
sg234
F1.4320987654320982
sg235
F0.352381940749925
sg236
NssVtx A-tx B
p2275
(dp2276
g230
F1.043039632686364
sg231
F-1.7613217055542152
sg232
F-0.3591410364339256
sg233
F2.837829878204996
sg234
F0.6982758620689657
sg235
F0.17181762137784332
sg236
Nsssg253
(dp2277
Vtx B-tx A
p2278
(dp2279
g230
Nsg231
Nsg232
Nsg233
Nsg234
Nsg235
Nsg236
NssVtx A-tx B
p2280
(dp2281
g230
Nsg231
Nsg232
Nsg233
Nsg234
Nsg235
Nsg236
Nsssg259
(dp2282
Vtx B-tx A
p2283
(dp2284
g230
Nsg231
Nsg232
Nsg233
Nsg234
Nsg235
Nsg236
NssVtx A-tx B
p2285
(dp2286
g230
Nsg231
Nsg232
Nsg233
Nsg234
Nsg235
Nsg236
Nsssg265
(dp2287
Vtx B-tx A
p2288
(dp2289
g230
Nsg231
Nsg232
Nsg233
Nsg234
Nsg235
Nsg236
NssVtx A-tx B
p2290
(dp2291
g230
Nsg231
Nsg232
Nsg233
Nsg234
Nsg235
Nsg236
Nsssg271
(dp2292
Vtx B-tx A
p2293
(dp2294
g230
Nsg231
Nsg232
Nsg233
Nsg234
Nsg235
Nsg236
NssVtx A-tx B
p2295
(dp2296
g230
Nsg231
Nsg232
Nsg233
Nsg234
Nsg235
Nsg236
Nsssg277
(dp2297
g55
(dp2298
g230
Nsg231
Nsg232
Nsg233
Nsg234
Nsg235
Nsg236
Nssg62
(dp2299
g230
Nsg231
Nsg232
Nsg233
Nsg234
Nsg235
Nsg236
Nsssg281
(dp2300
g55
(dp2301
g230
Nsg231
Nsg232
Nsg233
Nsg234
Nsg235
Nsg236
Nssg62
(dp2302
g230
Nsg231
Nsg232
Nsg233
Nsg234
Nsg235
Nsg236
Nsssg285
(dp2303
g55
(dp2304
g230
Nsg231
Nsg232
Nsg233
Nsg234
Nsg235
Nsg236
Nssg62
(dp2305
g230
Nsg231
Nsg232
Nsg233
Nsg234
Nsg235
Nsg236
Nsssg289
(dp2306
Vtx B-tx A
p2307
(dp2308
g230
F2.0089148532945442
sg231
F-1.1883460642063173
sg232
F0.4102843945441135
sg233
F7.455222945688903
sg234
F1.5072463768115945
sg235
F0.3047248428332217
sg236
NssVtx A-tx B
p2309
(dp2310
g230
F1.1883460642063177
sg231
F-2.0089148532945447
sg232
F-0.4102843945441135
sg233
F3.281649079551116
sg234
F0.6634615384615383
sg235
F0.13413415095497108
sg236
Nssssg139
I2
sbsssg295
I00
sg296
I1990
sg297
Nsg60
I11
sba(ima_dataset
Study
p2311
(dp2312
g35
I01
sg36
VRozdzinski
p2313
sg38
(dp2314
sg25
g26
sg40
(lp2315
g42
ag46
asg48
(dp2316
g7
(dp2317
g12
(ima_dataset
MetaAnalyticUnit
p2318
(dp2319
g29
I00
sg53
(dp2320
g55
(ima_dataset
TreatmentGroup
p2321
(dp2322
g58
(lp2323
F3.0
aF71.0
asg60
I0
sg36
g61
sbsg62
(ima_dataset
TreatmentGroup
p2324
(dp2325
g58
(lp2326
F4.0
aF72.0
asg60
I1
sg36
g66
sbssg67
g46
sg68
(dp2327
g70
(dp2328
Vtx B-tx A
p2329
(dp2330
g74
Nsg75
Nsg76
Nsg77
Nsg78
Nsg79
Nsg80
NssVtx A-tx B
p2331
(dp2332
g74
Nsg75
Nsg76
Nsg77
Nsg78
Nsg79
Nsg80
Nsssg83
(dp2333
g55
(dp2334
g74
Nsg75
Nsg76
Nsg77
Nsg78
Nsg79
Nsg80
Nssg62
(dp2335
g74
Nsg75
Nsg76
Nsg77
Nsg78
Nsg79
Nsg80
Nsssg87
(dp2336
g55
(dp2337
g74
Nsg75
Nsg76
Nsg77
Nsg78
Nsg79
Nsg80
Nssg62
(dp2338
g74
Nsg75
Nsg76
Nsg77
Nsg78
Nsg79
Nsg80
Nsssg91
(dp2339
Vtx B-tx A
p2340
(dp2341
g74
Nsg75
Nsg76
Nsg77
Nsg78
Nsg79
Nsg80
NssVtx A-tx B
p2342
(dp2343
g74
F1.18691785225833
sg75
F-1.7343095132124118
sg76
F-0.27369583047704094
sg77
F3.27696553447024
sg78
F0.7605633802816902
sg79
F0.17652204435498442
sg80
Nsssg97
(dp2344
Vtx B-tx A
p2345
(dp2346
g74
Nsg75
Nsg76
Nsg77
Nsg78
Nsg79
Nsg80
NssVtx A-tx B
p2347
(dp2348
g74
Nsg75
Nsg76
Nsg77
Nsg78
Nsg79
Nsg80
Nsssg103
(dp2349
Vtx B-tx A
p2350
(dp2351
g74
Nsg75
Nsg76
Nsg77
Nsg78
Nsg79
Nsg80
NssVtx A-tx B
p2352
(dp2353
g74
Nsg75
Nsg76
Nsg77
Nsg78
Nsg79
Nsg80
Nsssg109
(dp2354
Vtx B-tx A
p2355
(dp2356
g74
Nsg75
Nsg76
Nsg77
Nsg78
Nsg79
Nsg80
NssVtx A-tx B
p2357
(dp2358
g74
Nsg75
Nsg76
Nsg77
Nsg78
Nsg79
Nsg80
Nsssg115
(dp2359
Vtx B-tx A
p2360
(dp2361
g74
Nsg75
Nsg76
Nsg77
Nsg78
Nsg79
Nsg80
NssVtx A-tx B
p2362
(dp2363
g74
Nsg75
Nsg76
Nsg77
Nsg78
Nsg79
Nsg80
Nsssg121
(dp2364
g55
(dp2365
g74
Nsg75
Nsg76
Nsg77
Nsg78
Nsg79
Nsg80
Nssg62
(dp2366
g74
Nsg75
Nsg76
Nsg77
Nsg78
Nsg79
Nsg80
Nsssg125
(dp2367
g55
(dp2368
g74
Nsg75
Nsg76
Nsg77
Nsg78
Nsg79
Nsg80
Nssg62
(dp2369
g74
Nsg75
Nsg76
Nsg77
Nsg78
Nsg79
Nsg80
Nsssg129
(dp2370
g55
(dp2371
g74
Nsg75
Nsg76
Nsg77
Nsg78
Nsg79
Nsg80
Nssg62
(dp2372
g74
Nsg75
Nsg76
Nsg77
Nsg78
Nsg79
Nsg80
Nsssg133
(dp2373
Vtx B-tx A
p2374
(dp2375
g74
F1.8219033934155555
sg75
F-1.246539248511994
sg76
F0.2876820724517808
sg77
F6.183617111748543
sg78
F1.3333333333333333
sg79
F0.2874980364486175
sg80
NssVtx A-tx B
p2376
(dp2377
g74
F1.246539248511994
sg75
F-1.8219033934155555
sg76
F-0.2876820724517808
sg77
F3.4782846253585564
sg78
F0.7500000000000001
sg79
F0.16171764550234738
sg80
Nssssg139
I2
sbssg18
(dp2378
N(ima_dataset
MetaAnalyticUnit
p2379
(dp2380
g68
(dp2381
g144
(dp2382
S'tx B-tx A'
p2383
(dp2384
g148
Nsg149
Nsg150
Nsg151
Nsg152
Nsg153
Nsg154
NssS'tx A-tx B'
p2385
(dp2386
g148
Nsg149
Nsg150
Nsg151
Nsg152
Nsg153
Nsg154
Nsssg157
(dp2387
g159
(dp2388
g148
Nsg149
Nsg150
Nsg151
Nsg152
Nsg153
Nsg154
Nssg161
(dp2389
g148
Nsg149
Nsg150
Nsg151
Nsg152
Nsg153
Nsg154
Nsssg163
(dp2390
g159
(dp2391
g148
Nsg149
Nsg150
Nsg151
Nsg152
Nsg153
Nsg154
Nssg161
(dp2392
g148
Nsg149
Nsg150
Nsg151
Nsg152
Nsg153
Nsg154
Nsssg167
(dp2393
S'tx B-tx A'
p2394
(dp2395
g148
Nsg149
Nsg150
Nsg151
Nsg152
Nsg153
Nsg154
NssS'tx A-tx B'
p2396
(dp2397
g148
Nsg149
Nsg150
Nsg151
Nsg152
Nsg153
Nsg154
Nsssg173
(dp2398
S'tx B-tx A'
p2399
(dp2400
g148
Nsg149
Nsg150
Nsg151
Nsg152
Nsg153
Nsg154
NssS'tx A-tx B'
p2401
(dp2402
g148
Nsg149
Nsg150
Nsg151
Nsg152
Nsg153
Nsg154
Nsssg179
(dp2403
S'tx B-tx A'
p2404
(dp2405
g148
Nsg149
Nsg150
Nsg151
Nsg152
Nsg153
Nsg154
NssS'tx A-tx B'
p2406
(dp2407
g148
Nsg149
Nsg150
Nsg151
Nsg152
Nsg153
Nsg154
Nsssg185
(dp2408
S'tx B-tx A'
p2409
(dp2410
g148
Nsg149
Nsg150
Nsg151
Nsg152
Nsg153
Nsg154
NssS'tx A-tx B'
p2411
(dp2412
g148
Nsg149
Nsg150
Nsg151
Nsg152
Nsg153
Nsg154
Nsssg191
(dp2413
g159
(dp2414
g148
Nsg149
Nsg150
Nsg151
Nsg152
Nsg153
Nsg154
Nssg161
(dp2415
g148
Nsg149
Nsg150
Nsg151
Nsg152
Nsg153
Nsg154
Nsssg195
(dp2416
g159
(dp2417
g148
Nsg149
Nsg150
Nsg151
Nsg152
Nsg153
Nsg154
Nssg161
(dp2418
g148
Nsg149
Nsg150
Nsg151
Nsg152
Nsg153
Nsg154
Nsssg199
(dp2419
g159
(dp2420
g148
Nsg149
Nsg150
Nsg151
Nsg152
Nsg153
Nsg154
Nssg161
(dp2421
g148
Nsg149
Nsg150
Nsg151
Nsg152
Nsg153
Nsg154
Nsssg203
(dp2422
S'tx B-tx A'
p2423
(dp2424
g148
Nsg149
Nsg150
Nsg151
Nsg152
Nsg153
Nsg154
NssS'tx A-tx B'
p2425
(dp2426
g148
Nsg149
Nsg150
Nsg151
Nsg152
Nsg153
Nsg154
Nssssg53
(dp2427
g159
(ima_dataset
TreatmentGroup
p2428
(dp2429
g58
(lp2430
g26
ag26
asg60
I0
sg36
g159
sbsg161
(ima_dataset
TreatmentGroup
p2431
(dp2432
g58
(lp2433
g26
ag26
asg60
I1
sg36
g161
sbssg67
g42
sg29
I00
sg139
I2
sbsg20
(ima_dataset
MetaAnalyticUnit
p2434
(dp2435
g29
I00
sg53
(dp2436
g55
(ima_dataset
TreatmentGroup
p2437
(dp2438
g58
(lp2439
F16.0
aF71.0
asg60
I0
sg36
g61
sbsg62
(ima_dataset
TreatmentGroup
p2440
(dp2441
g58
(lp2442
F16.0
aF72.0
asg60
I1
sg36
g66
sbssg67
g42
sg68
(dp2443
g226
(dp2444
Vtx B-tx A
p2445
(dp2446
g230
Nsg231
Nsg232
Nsg233
Nsg234
Nsg235
Nsg236
NssVtx A-tx B
p2447
(dp2448
g230
Nsg231
Nsg232
Nsg233
Nsg234
Nsg235
Nsg236
Nsssg239
(dp2449
g55
(dp2450
g230
Nsg231
Nsg232
Nsg233
Nsg234
Nsg235
Nsg236
Nssg62
(dp2451
g230
Nsg231
Nsg232
Nsg233
Nsg234
Nsg235
Nsg236
Nsssg243
(dp2452
g55
(dp2453
g230
Nsg231
Nsg232
Nsg233
Nsg234
Nsg235
Nsg236
Nssg62
(dp2454
g230
Nsg231
Nsg232
Nsg233
Nsg234
Nsg235
Nsg236
Nsssg247
(dp2455
Vtx B-tx A
p2456
(dp2457
g230
F0.5965247767974925
sg231
F-0.6244972607469726
sg232
F-0.013986241974740077
sg233
F1.8157975211477462
sg234
F0.9861111111111109
sg235
F0.5355305931038702
sg236
NssVtx A-tx B
p2458
(dp2459
g230
F0.6244972607469726
sg231
F-0.5965247767974925
sg232
F0.013986241974740077
sg233
F1.8673069529121047
sg234
F1.0140845070422537
sg235
F0.5507221969153867
sg236
Nsssg253
(dp2460
Vtx B-tx A
p2461
(dp2462
g230
Nsg231
Nsg232
Nsg233
Nsg234
Nsg235
Nsg236
NssVtx A-tx B
p2463
(dp2464
g230
Nsg231
Nsg232
Nsg233
Nsg234
Nsg235
Nsg236
Nsssg259
(dp2465
Vtx B-tx A
p2466
(dp2467
g230
Nsg231
Nsg232
Nsg233
Nsg234
Nsg235
Nsg236
NssVtx A-tx B
p2468
(dp2469
g230
Nsg231
Nsg232
Nsg233
Nsg234
Nsg235
Nsg236
Nsssg265
(dp2470
Vtx B-tx A
p2471
(dp2472
g230
Nsg231
Nsg232
Nsg233
Nsg234
Nsg235
Nsg236
NssVtx A-tx B
p2473
(dp2474
g230
Nsg231
Nsg232
Nsg233
Nsg234
Nsg235
Nsg236
Nsssg271
(dp2475
Vtx B-tx A
p2476
(dp2477
g230
Nsg231
Nsg232
Nsg233
Nsg234
Nsg235
Nsg236
NssVtx A-tx B
p2478
(dp2479
g230
Nsg231
Nsg232
Nsg233
Nsg234
Nsg235
Nsg236
Nsssg277
(dp2480
g55
(dp2481
g230
Nsg231
Nsg232
Nsg233
Nsg234
Nsg235
Nsg236
Nssg62
(dp2482
g230
Nsg231
Nsg232
Nsg233
Nsg234
Nsg235
Nsg236
Nsssg281
(dp2483
g55
(dp2484
g230
Nsg231
Nsg232
Nsg233
Nsg234
Nsg235
Nsg236
Nssg62
(dp2485
g230
Nsg231
Nsg232
Nsg233
Nsg234
Nsg235
Nsg236
Nsssg285
(dp2486
g55
(dp2487
g230
Nsg231
Nsg232
Nsg233
Nsg234
Nsg235
Nsg236
Nssg62
(dp2488
g230
Nsg231
Nsg232
Nsg233
Nsg234
Nsg235
Nsg236
Nsssg289
(dp2489
Vtx B-tx A
p2490
(dp2491
g230
F0.7685083772918857
sg231
F-0.8045453882972426
sg232
F-0.018018505502678472
sg233
F2.1565470988757007
sg234
F0.982142857142857
sg235
F0.44729122417016703
sg236
NssVtx A-tx B
p2492
(dp2493
g230
F0.8045453882972428
sg231
F-0.7685083772918858
sg232
F0.018018505502678472
sg233
F2.2356799015121323
sg234
F1.0181818181818183
sg235
F0.46370422446203113
sg236
Nssssg139
I2
sbsssg295
I00
sg296
I1993
sg297
Nsg60
I12
sba(ima_dataset
Study
p2494
(dp2495
g35
I01
sg36
VTer Braak
p2496
sg38
(dp2497
sg25
g26
sg40
(lp2498
g42
ag46
asg48
(dp2499
g7
(dp2500
g12
(ima_dataset
MetaAnalyticUnit
p2501
(dp2502
g29
I00
sg53
(dp2503
g55
(ima_dataset
TreatmentGroup
p2504
(dp2505
g58
(lp2506
F14.0
aF69.0
asg60
I0
sg36
g61
sbsg62
(ima_dataset
TreatmentGroup
p2507
(dp2508
g58
(lp2509
F17.0
aF72.0
asg60
I1
sg36
g66
sbssg67
g46
sg68
(dp2510
g70
(dp2511
Vtx B-tx A
p2512
(dp2513
g74
Nsg75
Nsg76
Nsg77
Nsg78
Nsg79
Nsg80
NssVtx A-tx B
p2514
(dp2515
g74
Nsg75
Nsg76
Nsg77
Nsg78
Nsg79
Nsg80
Nsssg83
(dp2516
g55
(dp2517
g74
Nsg75
Nsg76
Nsg77
Nsg78
Nsg79
Nsg80
Nssg62
(dp2518
g74
Nsg75
Nsg76
Nsg77
Nsg78
Nsg79
Nsg80
Nsssg87
(dp2519
g55
(dp2520
g74
Nsg75
Nsg76
Nsg77
Nsg78
Nsg79
Nsg80
Nssg62
(dp2521
g74
Nsg75
Nsg76
Nsg77
Nsg78
Nsg79
Nsg80
Nsssg91
(dp2522
Vtx B-tx A
p2523
(dp2524
g74
Nsg75
Nsg76
Nsg77
Nsg78
Nsg79
Nsg80
NssVtx A-tx B
p2525
(dp2526
g74
F0.4739682814562953
sg75
F-0.7771610815006182
sg76
F-0.15159640002216146
sg77
F1.606356034945302
sg78
F0.8593350383631714
sg79
F0.4597092376123071
sg80
Nsssg97
(dp2527
Vtx B-tx A
p2528
(dp2529
g74
Nsg75
Nsg76
Nsg77
Nsg78
Nsg79
Nsg80
NssVtx A-tx B
p2530
(dp2531
g74
Nsg75
Nsg76
Nsg77
Nsg78
Nsg79
Nsg80
Nsssg103
(dp2532
Vtx B-tx A
p2533
(dp2534
g74
Nsg75
Nsg76
Nsg77
Nsg78
Nsg79
Nsg80
NssVtx A-tx B
p2535
(dp2536
g74
Nsg75
Nsg76
Nsg77
Nsg78
Nsg79
Nsg80
Nsssg109
(dp2537
Vtx B-tx A
p2538
(dp2539
g74
Nsg75
Nsg76
Nsg77
Nsg78
Nsg79
Nsg80
NssVtx A-tx B
p2540
(dp2541
g74
Nsg75
Nsg76
Nsg77
Nsg78
Nsg79
Nsg80
Nsssg115
(dp2542
Vtx B-tx A
p2543
(dp2544
g74
Nsg75
Nsg76
Nsg77
Nsg78
Nsg79
Nsg80
NssVtx A-tx B
p2545
(dp2546
g74
Nsg75
Nsg76
Nsg77
Nsg78
Nsg79
Nsg80
Nsssg121
(dp2547
g55
(dp2548
g74
Nsg75
Nsg76
Nsg77
Nsg78
Nsg79
Nsg80
Nssg62
(dp2549
g74
Nsg75
Nsg76
Nsg77
Nsg78
Nsg79
Nsg80
Nsssg125
(dp2550
g55
(dp2551
g74
Nsg75
Nsg76
Nsg77
Nsg78
Nsg79
Nsg80
Nssg62
(dp2552
g74
Nsg75
Nsg76
Nsg77
Nsg78
Nsg79
Nsg80
Nsssg129
(dp2553
g55
(dp2554
g74
Nsg75
Nsg76
Nsg77
Nsg78
Nsg79
Nsg80
Nssg62
(dp2555
g74
Nsg75
Nsg76
Nsg77
Nsg78
Nsg79
Nsg80
Nsssg133
(dp2556
Vtx B-tx A
p2557
(dp2558
g74
F0.9941856972331986
sg75
F-0.605873668351284
sg76
F0.19415601444095731
sg77
F2.702522773258032
sg78
F1.2142857142857142
sg79
F0.5455975470433475
sg80
NssVtx A-tx B
p2559
(dp2560
g74
F0.605873668351284
sg75
F-0.9941856972331986
sg76
F-0.19415601444095731
sg77
F1.8328528150815724
sg78
F0.823529411764706
sg79
F0.3700246339809555
sg80
Nssssg139
I2
sbssg18
(dp2561
N(ima_dataset
MetaAnalyticUnit
p2562
(dp2563
g68
(dp2564
g144
(dp2565
S'tx B-tx A'
p2566
(dp2567
g148
Nsg149
Nsg150
Nsg151
Nsg152
Nsg153
Nsg154
NssS'tx A-tx B'
p2568
(dp2569
g148
Nsg149
Nsg150
Nsg151
Nsg152
Nsg153
Nsg154
Nsssg157
(dp2570
g159
(dp2571
g148
Nsg149
Nsg150
Nsg151
Nsg152
Nsg153
Nsg154
Nssg161
(dp2572
g148
Nsg149
Nsg150
Nsg151
Nsg152
Nsg153
Nsg154
Nsssg163
(dp2573
g159
(dp2574
g148
Nsg149
Nsg150
Nsg151
Nsg152
Nsg153
Nsg154
Nssg161
(dp2575
g148
Nsg149
Nsg150
Nsg151
Nsg152
Nsg153
Nsg154
Nsssg167
(dp2576
S'tx B-tx A'
p2577
(dp2578
g148
Nsg149
Nsg150
Nsg151
Nsg152
Nsg153
Nsg154
NssS'tx A-tx B'
p2579
(dp2580
g148
Nsg149
Nsg150
Nsg151
Nsg152
Nsg153
Nsg154
Nsssg173
(dp2581
S'tx B-tx A'
p2582
(dp2583
g148
Nsg149
Nsg150
Nsg151
Nsg152
Nsg153
Nsg154
NssS'tx A-tx B'
p2584
(dp2585
g148
Nsg149
Nsg150
Nsg151
Nsg152
Nsg153
Nsg154
Nsssg179
(dp2586
S'tx B-tx A'
p2587
(dp2588
g148
Nsg149
Nsg150
Nsg151
Nsg152
Nsg153
Nsg154
NssS'tx A-tx B'
p2589
(dp2590
g148
Nsg149
Nsg150
Nsg151
Nsg152
Nsg153
Nsg154
Nsssg185
(dp2591
S'tx B-tx A'
p2592
(dp2593
g148
Nsg149
Nsg150
Nsg151
Nsg152
Nsg153
Nsg154
NssS'tx A-tx B'
p2594
(dp2595
g148
Nsg149
Nsg150
Nsg151
Nsg152
Nsg153
Nsg154
Nsssg191
(dp2596
g159
(dp2597
g148
Nsg149
Nsg150
Nsg151
Nsg152
Nsg153
Nsg154
Nssg161
(dp2598
g148
Nsg149
Nsg150
Nsg151
Nsg152
Nsg153
Nsg154
Nsssg195
(dp2599
g159
(dp2600
g148
Nsg149
Nsg150
Nsg151
Nsg152
Nsg153
Nsg154
Nssg161
(dp2601
g148
Nsg149
Nsg150
Nsg151
Nsg152
Nsg153
Nsg154
Nsssg199
(dp2602
g159
(dp2603
g148
Nsg149
Nsg150
Nsg151
Nsg152
Nsg153
Nsg154
Nssg161
(dp2604
g148
Nsg149
Nsg150
Nsg151
Nsg152
Nsg153
Nsg154
Nsssg203
(dp2605
S'tx B-tx A'
p2606
(dp2607
g148
Nsg149
Nsg150
Nsg151
Nsg152
Nsg153
Nsg154
NssS'tx A-tx B'
p2608
(dp2609
g148
Nsg149
Nsg150
Nsg151
Nsg152
Nsg153
Nsg154
Nssssg53
(dp2610
g159
(ima_dataset
TreatmentGroup
p2611
(dp2612
g58
(lp2613
g26
ag26
asg60
I0
sg36
g159
sbsg161
(ima_dataset
TreatmentGroup
p2614
(dp2615
g58
(lp2616
g26
ag26
asg60
I1
sg36
g161
sbssg67
g42
sg29
I00
sg139
I2
sbsg20
(ima_dataset
MetaAnalyticUnit
p2617
(dp2618
g29
I00
sg53
(dp2619
g55
(ima_dataset
TreatmentGroup
p2620
(dp2621
g58
(lp2622
F10.0
aF69.0
asg60
I0
sg36
g61
sbsg62
(ima_dataset
TreatmentGroup
p2623
(dp2624
g58
(lp2625
F8.0
aF72.0
asg60
I1
sg36
g66
sbssg67
g42
sg68
(dp2626
g226
(dp2627
Vtx B-tx A
p2628
(dp2629
g230
Nsg231
Nsg232
Nsg233
Nsg234
Nsg235
Nsg236
NssVtx A-tx B
p2630
(dp2631
g230
Nsg231
Nsg232
Nsg233
Nsg234
Nsg235
Nsg236
Nsssg239
(dp2632
g55
(dp2633
g230
Nsg231
Nsg232
Nsg233
Nsg234
Nsg235
Nsg236
Nssg62
(dp2634
g230
Nsg231
Nsg232
Nsg233
Nsg234
Nsg235
Nsg236
Nsssg243
(dp2635
g55
(dp2636
g230
Nsg231
Nsg232
Nsg233
Nsg234
Nsg235
Nsg236
Nssg62
(dp2637
g230
Nsg231
Nsg232
Nsg233
Nsg234
Nsg235
Nsg236
Nsssg247
(dp2638
Vtx B-tx A
p2639
(dp2640
g230
F0.6033775691140916
sg231
F-1.1347839005801035
sg232
F-0.265703165733006
sg233
F1.8282835376253588
sg234
F0.7666666666666664
sg235
F0.32149158797393357
sg236
NssVtx A-tx B
p2641
(dp2642
g230
F1.1347839005801037
sg231
F-0.6033775691140917
sg232
F0.265703165733006
sg233
F3.1105012927463593
sg234
F1.304347826086957
sg235
F0.5469611137552747
sg236
Nsssg253
(dp2643
Vtx B-tx A
p2644
(dp2645
g230
Nsg231
Nsg232
Nsg233
Nsg234
Nsg235
Nsg236
NssVtx A-tx B
p2646
(dp2647
g230
Nsg231
Nsg232
Nsg233
Nsg234
Nsg235
Nsg236
Nsssg259
(dp2648
Vtx B-tx A
p2649
(dp2650
g230
Nsg231
Nsg232
Nsg233
Nsg234
Nsg235
Nsg236
NssVtx A-tx B
p2651
(dp2652
g230
Nsg231
Nsg232
Nsg233
Nsg234
Nsg235
Nsg236
Nsssg265
(dp2653
Vtx B-tx A
p2654
(dp2655
g230
Nsg231
Nsg232
Nsg233
Nsg234
Nsg235
Nsg236
NssVtx A-tx B
p2656
(dp2657
g230
Nsg231
Nsg232
Nsg233
Nsg234
Nsg235
Nsg236
Nsssg271
(dp2658
Vtx B-tx A
p2659
(dp2660
g230
Nsg231
Nsg232
Nsg233
Nsg234
Nsg235
Nsg236
NssVtx A-tx B
p2661
(dp2662
g230
Nsg231
Nsg232
Nsg233
Nsg234
Nsg235
Nsg236
Nsssg277
(dp2663
g55
(dp2664
g230
Nsg231
Nsg232
Nsg233
Nsg234
Nsg235
Nsg236
Nssg62
(dp2665
g230
Nsg231
Nsg232
Nsg233
Nsg234
Nsg235
Nsg236
Nsssg281
(dp2666
g55
(dp2667
g230
Nsg231
Nsg232
Nsg233
Nsg234
Nsg235
Nsg236
Nssg62
(dp2668
g230
Nsg231
Nsg232
Nsg233
Nsg234
Nsg235
Nsg236
Nsssg285
(dp2669
g55
(dp2670
g230
Nsg231
Nsg232
Nsg233
Nsg234
Nsg235
Nsg236
Nssg62
(dp2671
g230
Nsg231
Nsg232
Nsg233
Nsg234
Nsg235
Nsg236
Nsssg289
(dp2672
Vtx B-tx A
p2673
(dp2674
g230
F0.6902271005766174
sg231
F-1.2992054821129413
sg232
F-0.30448919076816194
sg233
F1.9941683586067973
sg234
F0.7375000000000002
sg235
F0.27274841046018505
sg236
NssVtx A-tx B
p2675
(dp2676
g230
F1.2992054821129413
sg231
F-0.6902271005766175
sg232
F0.30448919076816194
sg233
F3.666382503614909
sg234
F1.3559322033898302
sg235
F0.5014621737848846
sg236
Nssssg139
I2
sbsssg295
I00
sg296
I1990
sg297
Nsg60
I13
sba(ima_dataset
Study
p2677
(dp2678
g35
I01
sg36
VTulkens
p2679
sg38
(dp2680
sg25
g26
sg40
(lp2681
g42
ag46
asg48
(dp2682
g7
(dp2683
g12
(ima_dataset
MetaAnalyticUnit
p2684
(dp2685
g29
I00
sg53
(dp2686
g55
(ima_dataset
TreatmentGroup
p2687
(dp2688
g58
(lp2689
F0.0
aF19.0
asg60
I0
sg36
g61
sbsg62
(ima_dataset
TreatmentGroup
p2690
(dp2691
g58
(lp2692
F0.0
aF19.0
asg60
I1
sg36
g66
sbssg67
g46
sg68
(dp2693
g70
(dp2694
Vtx B-tx A
p2695
(dp2696
g74
Nsg75
Nsg76
Nsg77
Nsg78
Nsg79
Nsg80
NssVtx A-tx B
p2697
(dp2698
g74
Nsg75
Nsg76
Nsg77
Nsg78
Nsg79
Nsg80
Nsssg83
(dp2699
g55
(dp2700
g74
Nsg75
Nsg76
Nsg77
Nsg78
Nsg79
Nsg80
Nssg62
(dp2701
g74
Nsg75
Nsg76
Nsg77
Nsg78
Nsg79
Nsg80
Nsssg87
(dp2702
g55
(dp2703
g74
Nsg75
Nsg76
Nsg77
Nsg78
Nsg79
Nsg80
Nssg62
(dp2704
g74
Nsg75
Nsg76
Nsg77
Nsg78
Nsg79
Nsg80
Nsssg91
(dp2705
Vtx B-tx A
p2706
(dp2707
g74
Nsg75
Nsg76
Nsg77
Nsg78
Nsg79
Nsg80
NssVtx A-tx B
p2708
(dp2709
g74
F3.870618736159257
sg75
F-3.870618736159257
sg76
F0.0
sg77
F47.97205894753966
sg78
F1.0
sg79
F0.020845467589655896
sg80
Nsssg97
(dp2710
Vtx B-tx A
p2711
(dp2712
g74
Nsg75
Nsg76
Nsg77
Nsg78
Nsg79
Nsg80
NssVtx A-tx B
p2713
(dp2714
g74
Nsg75
Nsg76
Nsg77
Nsg78
Nsg79
Nsg80
Nsssg103
(dp2715
Vtx B-tx A
p2716
(dp2717
g74
Nsg75
Nsg76
Nsg77
Nsg78
Nsg79
Nsg80
NssVtx A-tx B
p2718
(dp2719
g74
Nsg75
Nsg76
Nsg77
Nsg78
Nsg79
Nsg80
Nsssg109
(dp2720
Vtx B-tx A
p2721
(dp2722
g74
Nsg75
Nsg76
Nsg77
Nsg78
Nsg79
Nsg80
NssVtx A-tx B
p2723
(dp2724
g74
Nsg75
Nsg76
Nsg77
Nsg78
Nsg79
Nsg80
Nsssg115
(dp2725
Vtx B-tx A
p2726
(dp2727
g74
Nsg75
Nsg76
Nsg77
Nsg78
Nsg79
Nsg80
NssVtx A-tx B
p2728
(dp2729
g74
Nsg75
Nsg76
Nsg77
Nsg78
Nsg79
Nsg80
Nsssg121
(dp2730
g55
(dp2731
g74
Nsg75
Nsg76
Nsg77
Nsg78
Nsg79
Nsg80
Nssg62
(dp2732
g74
Nsg75
Nsg76
Nsg77
Nsg78
Nsg79
Nsg80
Nsssg125
(dp2733
g55
(dp2734
g74
Nsg75
Nsg76
Nsg77
Nsg78
Nsg79
Nsg80
Nssg62
(dp2735
g74
Nsg75
Nsg76
Nsg77
Nsg78
Nsg79
Nsg80
Nsssg129
(dp2736
g55
(dp2737
g74
Nsg75
Nsg76
Nsg77
Nsg78
Nsg79
Nsg80
Nssg62
(dp2738
g74
Nsg75
Nsg76
Nsg77
Nsg78
Nsg79
Nsg80
Nsssg133
(dp2739
Vtx B-tx A
p2740
(dp2741
g74
F3.9698653704197504
sg75
F-3.9698653704197504
sg76
F0.0
sg77
F52.97739803468354
sg78
F1.0
sg79
F0.018875974228581675
sg80
NssVtx A-tx B
p2742
(dp2743
g74
F3.9698653704197504
sg75
F-3.9698653704197504
sg76
F0.0
sg77
F52.97739803468354
sg78
F1.0
sg79
F0.018875974228581675
sg80
Nssssg139
I2
sbssg18
(dp2744
N(ima_dataset
MetaAnalyticUnit
p2745
(dp2746
g68
(dp2747
g144
(dp2748
S'tx B-tx A'
p2749
(dp2750
g148
Nsg149
Nsg150
Nsg151
Nsg152
Nsg153
Nsg154
NssS'tx A-tx B'
p2751
(dp2752
g148
Nsg149
Nsg150
Nsg151
Nsg152
Nsg153
Nsg154
Nsssg157
(dp2753
g159
(dp2754
g148
Nsg149
Nsg150
Nsg151
Nsg152
Nsg153
Nsg154
Nssg161
(dp2755
g148
Nsg149
Nsg150
Nsg151
Nsg152
Nsg153
Nsg154
Nsssg163
(dp2756
g159
(dp2757
g148
Nsg149
Nsg150
Nsg151
Nsg152
Nsg153
Nsg154
Nssg161
(dp2758
g148
Nsg149
Nsg150
Nsg151
Nsg152
Nsg153
Nsg154
Nsssg167
(dp2759
S'tx B-tx A'
p2760
(dp2761
g148
Nsg149
Nsg150
Nsg151
Nsg152
Nsg153
Nsg154
NssS'tx A-tx B'
p2762
(dp2763
g148
Nsg149
Nsg150
Nsg151
Nsg152
Nsg153
Nsg154
Nsssg173
(dp2764
S'tx B-tx A'
p2765
(dp2766
g148
Nsg149
Nsg150
Nsg151
Nsg152
Nsg153
Nsg154
NssS'tx A-tx B'
p2767
(dp2768
g148
Nsg149
Nsg150
Nsg151
Nsg152
Nsg153
Nsg154
Nsssg179
(dp2769
S'tx B-tx A'
p2770
(dp2771
g148
Nsg149
Nsg150
Nsg151
Nsg152
Nsg153
Nsg154
NssS'tx A-tx B'
p2772
(dp2773
g148
Nsg149
Nsg150
Nsg151
Nsg152
Nsg153
Nsg154
Nsssg185
(dp2774
S'tx B-tx A'
p2775
(dp2776
g148
Nsg149
Nsg150
Nsg151
Nsg152
Nsg153
Nsg154
NssS'tx A-tx B'
p2777
(dp2778
g148
Nsg149
Nsg150
Nsg151
Nsg152
Nsg153
Nsg154
Nsssg191
(dp2779
g159
(dp2780
g148
Nsg149
Nsg150
Nsg151
Nsg152
Nsg153
Nsg154
Nssg161
(dp2781
g148
Nsg149
Nsg150
Nsg151
Nsg152
Nsg153
Nsg154
Nsssg195
(dp2782
g159
(dp2783
g148
Nsg149
Nsg150
Nsg151
Nsg152
Nsg153
Nsg154
Nssg161
(dp2784
g148
Nsg149
Nsg150
Nsg151
Nsg152
Nsg153
Nsg154
Nsssg199
(dp2785
g159
(dp2786
g148
Nsg149
Nsg150
Nsg151
Nsg152
Nsg153
Nsg154
Nssg161
(dp2787
g148
Nsg149
Nsg150
Nsg151
Nsg152
Nsg153
Nsg154
Nsssg203
(dp2788
S'tx B-tx A'
p2789
(dp2790
g148
Nsg149
Nsg150
Nsg151
Nsg152
Nsg153
Nsg154
NssS'tx A-tx B'
p2791
(dp2792
g148
Nsg149
Nsg150
Nsg151
Nsg152
Nsg153
Nsg154
Nssssg53
(dp2793
g159
(ima_dataset
TreatmentGroup
p2794
(dp2795
g58
(lp2796
g26
ag26
asg60
I0
sg36
g159
sbsg161
(ima_dataset
TreatmentGroup
p2797
(dp2798
g58
(lp2799
g26
ag26
asg60
I1
sg36
g161
sbssg67
g42
sg29
I00
sg139
I2
sbsg20
(ima_dataset
MetaAnalyticUnit
p2800
(dp2801
g29
I00
sg53
(dp2802
g55
(ima_dataset
TreatmentGroup
p2803
(dp2804
g58
(lp2805
F0.0
aF19.0
asg60
I0
sg36
g61
sbsg62
(ima_dataset
TreatmentGroup
p2806
(dp2807
g58
(lp2808
F0.0
aF19.0
asg60
I1
sg36
g66
sbssg67
g42
sg68
(dp2809
g226
(dp2810
Vtx B-tx A
p2811
(dp2812
g230
Nsg231
Nsg232
Nsg233
Nsg234
Nsg235
Nsg236
NssVtx A-tx B
p2813
(dp2814
g230
Nsg231
Nsg232
Nsg233
Nsg234
Nsg235
Nsg236
Nsssg239
(dp2815
g55
(dp2816
g230
Nsg231
Nsg232
Nsg233
Nsg234
Nsg235
Nsg236
Nssg62
(dp2817
g230
Nsg231
Nsg232
Nsg233
Nsg234
Nsg235
Nsg236
Nsssg243
(dp2818
g55
(dp2819
g230
Nsg231
Nsg232
Nsg233
Nsg234
Nsg235
Nsg236
Nssg62
(dp2820
g230
Nsg231
Nsg232
Nsg233
Nsg234
Nsg235
Nsg236
Nsssg247
(dp2821
Vtx B-tx A
p2822
(dp2823
g230
F3.870618736159257
sg231
F-3.870618736159257
sg232
F0.0
sg233
F47.97205894753966
sg234
F1.0
sg235
F0.020845467589655896
sg236
NssVtx A-tx B
p2824
(dp2825
g230
F3.870618736159257
sg231
F-3.870618736159257
sg232
F0.0
sg233
F47.97205894753966
sg234
F1.0
sg235
F0.020845467589655896
sg236
Nsssg253
(dp2826
Vtx B-tx A
p2827
(dp2828
g230
Nsg231
Nsg232
Nsg233
Nsg234
Nsg235
Nsg236
NssVtx A-tx B
p2829
(dp2830
g230
Nsg231
Nsg232
Nsg233
Nsg234
Nsg235
Nsg236
Nsssg259
(dp2831
Vtx B-tx A
p2832
(dp2833
g230
Nsg231
Nsg232
Nsg233
Nsg234
Nsg235
Nsg236
NssVtx A-tx B
p2834
(dp2835
g230
Nsg231
Nsg232
Nsg233
Nsg234
Nsg235
Nsg236
Nsssg265
(dp2836
Vtx B-tx A
p2837
(dp2838
g230
Nsg231
Nsg232
Nsg233
Nsg234
Nsg235
Nsg236
NssVtx A-tx B
p2839
(dp2840
g230
Nsg231
Nsg232
Nsg233
Nsg234
Nsg235
Nsg236
Nsssg271
(dp2841
Vtx B-tx A
p2842
(dp2843
g230
Nsg231
Nsg232
Nsg233
Nsg234
Nsg235
Nsg236
NssVtx A-tx B
p2844
(dp2845
g230
Nsg231
Nsg232
Nsg233
Nsg234
Nsg235
Nsg236
Nsssg277
(dp2846
g55
(dp2847
g230
Nsg231
Nsg232
Nsg233
Nsg234
Nsg235
Nsg236
Nssg62
(dp2848
g230
Nsg231
Nsg232
Nsg233
Nsg234
Nsg235
Nsg236
Nsssg281
(dp2849
g55
(dp2850
g230
Nsg231
Nsg232
Nsg233
Nsg234
Nsg235
Nsg236
Nssg62
(dp2851
g230
Nsg231
Nsg232
Nsg233
Nsg234
Nsg235
Nsg236
Nsssg285
(dp2852
g55
(dp2853
g230
Nsg231
Nsg232
Nsg233
Nsg234
Nsg235
Nsg236
Nssg62
(dp2854
g230
Nsg231
Nsg232
Nsg233
Nsg234
Nsg235
Nsg236
Nsssg289
(dp2855
Vtx B-tx A
p2856
(dp2857
g230
F3.9698653704197504
sg231
F-3.9698653704197504
sg232
F0.0
sg233
F52.97739803468354
sg234
F1.0
sg235
F0.018875974228581675
sg236
NssVtx A-tx B
p2858
(dp2859
g230
F3.969865370419751
sg231
F-3.969865370419751
sg232
F0.0
sg233
F52.97739803468356
sg234
F1.0
sg235
F0.018875974228581668
sg236
Nssssg139
I2
sbsssg295
I00
sg296
I1988
sg297
Nsg60
I14
sba(ima_dataset
Study
p2860
(dp2861
g35
I01
sg36
VVan der Auwera
p2862
sg38
(dp2863
sg25
g26
sg40
(lp2864
g42
ag46
asg48
(dp2865
g7
(dp2866
g12
(ima_dataset
MetaAnalyticUnit
p2867
(dp2868
g29
I00
sg53
(dp2869
g55
(ima_dataset
TreatmentGroup
p2870
(dp2871
g58
(lp2872
F1.0
aF30.0
asg60
I0
sg36
g61
sbsg62
(ima_dataset
TreatmentGroup
p2873
(dp2874
g58
(lp2875
F3.0
aF30.0
asg60
I1
sg36
g66
sbssg67
g46
sg68
(dp2876
g70
(dp2877
Vtx B-tx A
p2878
(dp2879
g74
Nsg75
Nsg76
Nsg77
Nsg78
Nsg79
Nsg80
NssVtx A-tx B
p2880
(dp2881
g74
Nsg75
Nsg76
Nsg77
Nsg78
Nsg79
Nsg80
Nsssg83
(dp2882
g55
(dp2883
g74
Nsg75
Nsg76
Nsg77
Nsg78
Nsg79
Nsg80
Nssg62
(dp2884
g74
Nsg75
Nsg76
Nsg77
Nsg78
Nsg79
Nsg80
Nsssg87
(dp2885
g55
(dp2886
g74
Nsg75
Nsg76
Nsg77
Nsg78
Nsg79
Nsg80
Nssg62
(dp2887
g74
Nsg75
Nsg76
Nsg77
Nsg78
Nsg79
Nsg80
Nsssg91
(dp2888
Vtx B-tx A
p2889
(dp2890
g74
Nsg75
Nsg76
Nsg77
Nsg78
Nsg79
Nsg80
NssVtx A-tx B
p2891
(dp2892
g74
F1.1072543980439158
sg75
F-3.304478975380136
sg76
F-1.09861228866811
sg77
F3.026038680630097
sg78
F0.3333333333333332
sg79
F0.03671833801145428
sg80
Nsssg97
(dp2893
Vtx B-tx A
p2894
(dp2895
g74
Nsg75
Nsg76
Nsg77
Nsg78
Nsg79
Nsg80
NssVtx A-tx B
p2896
(dp2897
g74
Nsg75
Nsg76
Nsg77
Nsg78
Nsg79
Nsg80
Nsssg103
(dp2898
Vtx B-tx A
p2899
(dp2900
g74
Nsg75
Nsg76
Nsg77
Nsg78
Nsg79
Nsg80
NssVtx A-tx B
p2901
(dp2902
g74
Nsg75
Nsg76
Nsg77
Nsg78
Nsg79
Nsg80
Nsssg109
(dp2903
Vtx B-tx A
p2904
(dp2905
g74
Nsg75
Nsg76
Nsg77
Nsg78
Nsg79
Nsg80
NssVtx A-tx B
p2906
(dp2907
g74
Nsg75
Nsg76
Nsg77
Nsg78
Nsg79
Nsg80
Nsssg115
(dp2908
Vtx B-tx A
p2909
(dp2910
g74
Nsg75
Nsg76
Nsg77
Nsg78
Nsg79
Nsg80
NssVtx A-tx B
p2911
(dp2912
g74
Nsg75
Nsg76
Nsg77
Nsg78
Nsg79
Nsg80
Nsssg121
(dp2913
g55
(dp2914
g74
Nsg75
Nsg76
Nsg77
Nsg78
Nsg79
Nsg80
Nssg62
(dp2915
g74
Nsg75
Nsg76
Nsg77
Nsg78
Nsg79
Nsg80
Nsssg125
(dp2916
g55
(dp2917
g74
Nsg75
Nsg76
Nsg77
Nsg78
Nsg79
Nsg80
Nssg62
(dp2918
g74
Nsg75
Nsg76
Nsg77
Nsg78
Nsg79
Nsg80
Nsssg129
(dp2919
g55
(dp2920
g74
Nsg75
Nsg76
Nsg77
Nsg78
Nsg79
Nsg80
Nssg62
(dp2921
g74
Nsg75
Nsg76
Nsg77
Nsg78
Nsg79
Nsg80
Nsssg133
(dp2922
Vtx B-tx A
p2923
(dp2924
g74
F3.493147972033936
sg75
F-1.153005466733426
sg76
F1.170071252650255
sg77
F32.88931957322481
sg78
F3.2222222222222237
sg79
F0.3156865567336118
sg80
NssVtx A-tx B
p2925
(dp2926
g74
F1.153005466733426
sg75
F-3.493147972033936
sg76
F-1.170071252650255
sg77
F3.167699031428309
sg78
F0.3103448275862068
sg79
F0.030405007247827034
sg80
Nssssg139
I2
sbssg18
(dp2927
N(ima_dataset
MetaAnalyticUnit
p2928
(dp2929
g68
(dp2930
g144
(dp2931
S'tx B-tx A'
p2932
(dp2933
g148
Nsg149
Nsg150
Nsg151
Nsg152
Nsg153
Nsg154
NssS'tx A-tx B'
p2934
(dp2935
g148
Nsg149
Nsg150
Nsg151
Nsg152
Nsg153
Nsg154
Nsssg157
(dp2936
g159
(dp2937
g148
Nsg149
Nsg150
Nsg151
Nsg152
Nsg153
Nsg154
Nssg161
(dp2938
g148
Nsg149
Nsg150
Nsg151
Nsg152
Nsg153
Nsg154
Nsssg163
(dp2939
g159
(dp2940
g148
Nsg149
Nsg150
Nsg151
Nsg152
Nsg153
Nsg154
Nssg161
(dp2941
g148
Nsg149
Nsg150
Nsg151
Nsg152
Nsg153
Nsg154
Nsssg167
(dp2942
S'tx B-tx A'
p2943
(dp2944
g148
Nsg149
Nsg150
Nsg151
Nsg152
Nsg153
Nsg154
NssS'tx A-tx B'
p2945
(dp2946
g148
Nsg149
Nsg150
Nsg151
Nsg152
Nsg153
Nsg154
Nsssg173
(dp2947
S'tx B-tx A'
p2948
(dp2949
g148
Nsg149
Nsg150
Nsg151
Nsg152
Nsg153
Nsg154
NssS'tx A-tx B'
p2950
(dp2951
g148
Nsg149
Nsg150
Nsg151
Nsg152
Nsg153
Nsg154
Nsssg179
(dp2952
S'tx B-tx A'
p2953
(dp2954
g148
Nsg149
Nsg150
Nsg151
Nsg152
Nsg153
Nsg154
NssS'tx A-tx B'
p2955
(dp2956
g148
Nsg149
Nsg150
Nsg151
Nsg152
Nsg153
Nsg154
Nsssg185
(dp2957
S'tx B-tx A'
p2958
(dp2959
g148
Nsg149
Nsg150
Nsg151
Nsg152
Nsg153
Nsg154
NssS'tx A-tx B'
p2960
(dp2961
g148
Nsg149
Nsg150
Nsg151
Nsg152
Nsg153
Nsg154
Nsssg191
(dp2962
g159
(dp2963
g148
Nsg149
Nsg150
Nsg151
Nsg152
Nsg153
Nsg154
Nssg161
(dp2964
g148
Nsg149
Nsg150
Nsg151
Nsg152
Nsg153
Nsg154
Nsssg195
(dp2965
g159
(dp2966
g148
Nsg149
Nsg150
Nsg151
Nsg152
Nsg153
Nsg154
Nssg161
(dp2967
g148
Nsg149
Nsg150
Nsg151
Nsg152
Nsg153
Nsg154
Nsssg199
(dp2968
g159
(dp2969
g148
Nsg149
Nsg150
Nsg151
Nsg152
Nsg153
Nsg154
Nssg161
(dp2970
g148
Nsg149
Nsg150
Nsg151
Nsg152
Nsg153
Nsg154
Nsssg203
(dp2971
S'tx B-tx A'
p2972
(dp2973
g148
Nsg149
Nsg150
Nsg151
Nsg152
Nsg153
Nsg154
NssS'tx A-tx B'
p2974
(dp2975
g148
Nsg149
Nsg150
Nsg151
Nsg152
Nsg153
Nsg154
Nssssg53
(dp2976
g159
(ima_dataset
TreatmentGroup
p2977
(dp2978
g58
(lp2979
g26
ag26
asg60
I0
sg36
g159
sbsg161
(ima_dataset
TreatmentGroup
p2980
(dp2981
g58
(lp2982
g26
ag26
asg60
I1
sg36
g161
sbssg67
g42
sg29
I00
sg139
I2
sbsg20
(ima_dataset
MetaAnalyticUnit
p2983
(dp2984
g29
I00
sg53
(dp2985
g55
(ima_dataset
TreatmentGroup
p2986
(dp2987
g58
(lp2988
F0.0
aF30.0
asg60
I0
sg36
g61
sbsg62
(ima_dataset
TreatmentGroup
p2989
(dp2990
g58
(lp2991
F2.0
aF30.0
asg60
I1
sg36
g66
sbssg67
g42
sg68
(dp2992
g226
(dp2993
Vtx B-tx A
p2994
(dp2995
g230
Nsg231
Nsg232
Nsg233
Nsg234
Nsg235
Nsg236
NssVtx A-tx B
p2996
(dp2997
g230
Nsg231
Nsg232
Nsg233
Nsg234
Nsg235
Nsg236
Nsssg239
(dp2998
g55
(dp2999
g230
Nsg231
Nsg232
Nsg233
Nsg234
Nsg235
Nsg236
Nssg62
(dp3000
g230
Nsg231
Nsg232
Nsg233
Nsg234
Nsg235
Nsg236
Nsssg243
(dp3001
g55
(dp3002
g230
Nsg231
Nsg232
Nsg233
Nsg234
Nsg235
Nsg236
Nssg62
(dp3003
g230
Nsg231
Nsg232
Nsg233
Nsg234
Nsg235
Nsg236
Nsssg247
(dp3004
Vtx B-tx A
p3005
(dp3006
g230
F4.604711709054017
sg231
F-1.3858358841858158
sg232
F1.6094379124341005
sg233
F99.95416281504153
sg234
F5.000000000000001
sg235
F0.25011464551267204
sg236
NssVtx A-tx B
p3007
(dp3008
g230
F1.3858358841858158
sg231
F-4.604711709054017
sg232
F-1.6094379124341005
sg233
F3.998166512601658
sg234
F0.19999999999999998
sg235
F0.010004585820506876
sg236
Nsssg253
(dp3009
Vtx B-tx A
p3010
(dp3011
g230
Nsg231
Nsg232
Nsg233
Nsg234
Nsg235
Nsg236
NssVtx A-tx B
p3012
(dp3013
g230
Nsg231
Nsg232
Nsg233
Nsg234
Nsg235
Nsg236
Nsssg259
(dp3014
Vtx B-tx A
p3015
(dp3016
g230
Nsg231
Nsg232
Nsg233
Nsg234
Nsg235
Nsg236
NssVtx A-tx B
p3017
(dp3018
g230
Nsg231
Nsg232
Nsg233
Nsg234
Nsg235
Nsg236
Nsssg265
(dp3019
Vtx B-tx A
p3020
(dp3021
g230
Nsg231
Nsg232
Nsg233
Nsg234
Nsg235
Nsg236
NssVtx A-tx B
p3022
(dp3023
g230
Nsg231
Nsg232
Nsg233
Nsg234
Nsg235
Nsg236
Nsssg271
(dp3024
Vtx B-tx A
p3025
(dp3026
g230
Nsg231
Nsg232
Nsg233
Nsg234
Nsg235
Nsg236
NssVtx A-tx B
p3027
(dp3028
g230
Nsg231
Nsg232
Nsg233
Nsg234
Nsg235
Nsg236
Nsssg277
(dp3029
g55
(dp3030
g230
Nsg231
Nsg232
Nsg233
Nsg234
Nsg235
Nsg236
Nssg62
(dp3031
g230
Nsg231
Nsg232
Nsg233
Nsg234
Nsg235
Nsg236
Nsssg281
(dp3032
g55
(dp3033
g230
Nsg231
Nsg232
Nsg233
Nsg234
Nsg235
Nsg236
Nssg62
(dp3034
g230
Nsg231
Nsg232
Nsg233
Nsg234
Nsg235
Nsg236
Nsssg285
(dp3035
g55
(dp3036
g230
Nsg231
Nsg232
Nsg233
Nsg234
Nsg235
Nsg236
Nssg62
(dp3037
g230
Nsg231
Nsg232
Nsg233
Nsg234
Nsg235
Nsg236
Nsssg289
(dp3038
Vtx B-tx A
p3039
(dp3040
g230
F4.756260130077342
sg231
F-1.4017391125316192
sg232
F1.6772605087728616
sg233
F116.310126746146
sg234
F5.350877192982456
sg235
F0.24616847677305567
sg236
NssVtx A-tx B
p3041
(dp3042
g230
F1.4017391125316196
sg231
F-4.756260130077343
sg232
F-1.6772605087728616
sg233
F4.062258551983108
sg234
F0.18688524590163932
sg235
F0.008597703639190081
sg236
Nssssg139
I2
sbsssg295
I00
sg296
I1991
sg297
Nsg60
I15
sba(ima_dataset
Study
p3043
(dp3044
g35
I01
sg36
VKlastersky
p3045
sg38
(dp3046
sg25
g26
sg40
(lp3047
g42
ag46
asg48
(dp3048
g7
(dp3049
g12
(ima_dataset
MetaAnalyticUnit
p3050
(dp3051
g29
I00
sg53
(dp3052
g55
(ima_dataset
TreatmentGroup
p3053
(dp3054
g58
(lp3055
F3.0
aF25.0
asg60
I0
sg36
g61
sbsg62
(ima_dataset
TreatmentGroup
p3056
(dp3057
g58
(lp3058
F3.0
aF25.0
asg60
I1
sg36
g66
sbssg67
g46
sg68
(dp3059
g70
(dp3060
Vtx B-tx A
p3061
(dp3062
g74
Nsg75
Nsg76
Nsg77
Nsg78
Nsg79
Nsg80
NssVtx A-tx B
p3063
(dp3064
g74
Nsg75
Nsg76
Nsg77
Nsg78
Nsg79
Nsg80
Nsssg83
(dp3065
g55
(dp3066
g74
Nsg75
Nsg76
Nsg77
Nsg78
Nsg79
Nsg80
Nssg62
(dp3067
g74
Nsg75
Nsg76
Nsg77
Nsg78
Nsg79
Nsg80
Nsssg87
(dp3068
g55
(dp3069
g74
Nsg75
Nsg76
Nsg77
Nsg78
Nsg79
Nsg80
Nssg62
(dp3070
g74
Nsg75
Nsg76
Nsg77
Nsg78
Nsg79
Nsg80
Nsssg91
(dp3071
Vtx B-tx A
p3072
(dp3073
g74
Nsg75
Nsg76
Nsg77
Nsg78
Nsg79
Nsg80
NssVtx A-tx B
p3074
(dp3075
g74
F1.5012181192198175
sg75
F-1.5012181192198175
sg76
F0.0
sg77
F4.487151628279847
sg78
F1.0
sg79
F0.22285852648651205
sg80
Nsssg97
(dp3076
Vtx B-tx A
p3077
(dp3078
g74
Nsg75
Nsg76
Nsg77
Nsg78
Nsg79
Nsg80
NssVtx A-tx B
p3079
(dp3080
g74
Nsg75
Nsg76
Nsg77
Nsg78
Nsg79
Nsg80
Nsssg103
(dp3081
Vtx B-tx A
p3082
(dp3083
g74
Nsg75
Nsg76
Nsg77
Nsg78
Nsg79
Nsg80
NssVtx A-tx B
p3084
(dp3085
g74
Nsg75
Nsg76
Nsg77
Nsg78
Nsg79
Nsg80
Nsssg109
(dp3086
Vtx B-tx A
p3087
(dp3088
g74
Nsg75
Nsg76
Nsg77
Nsg78
Nsg79
Nsg80
NssVtx A-tx B
p3089
(dp3090
g74
Nsg75
Nsg76
Nsg77
Nsg78
Nsg79
Nsg80
Nsssg115
(dp3091
Vtx B-tx A
p3092
(dp3093
g74
Nsg75
Nsg76
Nsg77
Nsg78
Nsg79
Nsg80
NssVtx A-tx B
p3094
(dp3095
g74
Nsg75
Nsg76
Nsg77
Nsg78
Nsg79
Nsg80
Nsssg121
(dp3096
g55
(dp3097
g74
Nsg75
Nsg76
Nsg77
Nsg78
Nsg79
Nsg80
Nssg62
(dp3098
g74
Nsg75
Nsg76
Nsg77
Nsg78
Nsg79
Nsg80
Nsssg125
(dp3099
g55
(dp3100
g74
Nsg75
Nsg76
Nsg77
Nsg78
Nsg79
Nsg80
Nssg62
(dp3101
g74
Nsg75
Nsg76
Nsg77
Nsg78
Nsg79
Nsg80
Nsssg129
(dp3102
g55
(dp3103
g74
Nsg75
Nsg76
Nsg77
Nsg78
Nsg79
Nsg80
Nssg62
(dp3104
g74
Nsg75
Nsg76
Nsg77
Nsg78
Nsg79
Nsg80
Nsssg133
(dp3105
Vtx B-tx A
p3106
(dp3107
g74
F1.4323284367170934
sg75
F-2.332162178075089
sg76
F-0.449916870678998
sg77
F4.188440365002866
sg78
F0.63768115942029
sg79
F0.09708560362404184
sg80
NssVtx A-tx B
p3108
(dp3109
g74
F1.7059296809316107
sg75
F-1.7059296809316107
sg76
F0.0
sg77
F5.50650257874273
sg78
F1.0
sg79
F0.181603474383249
sg80
Nssssg139
I2
sbssg18
(dp3110
N(ima_dataset
MetaAnalyticUnit
p3111
(dp3112
g68
(dp3113
g144
(dp3114
S'tx B-tx A'
p3115
(dp3116
g148
Nsg149
Nsg150
Nsg151
Nsg152
Nsg153
Nsg154
NssS'tx A-tx B'
p3117
(dp3118
g148
Nsg149
Nsg150
Nsg151
Nsg152
Nsg153
Nsg154
Nsssg157
(dp3119
g159
(dp3120
g148
Nsg149
Nsg150
Nsg151
Nsg152
Nsg153
Nsg154
Nssg161
(dp3121
g148
Nsg149
Nsg150
Nsg151
Nsg152
Nsg153
Nsg154
Nsssg163
(dp3122
g159
(dp3123
g148
Nsg149
Nsg150
Nsg151
Nsg152
Nsg153
Nsg154
Nssg161
(dp3124
g148
Nsg149
Nsg150
Nsg151
Nsg152
Nsg153
Nsg154
Nsssg167
(dp3125
S'tx B-tx A'
p3126
(dp3127
g148
Nsg149
Nsg150
Nsg151
Nsg152
Nsg153
Nsg154
NssS'tx A-tx B'
p3128
(dp3129
g148
Nsg149
Nsg150
Nsg151
Nsg152
Nsg153
Nsg154
Nsssg173
(dp3130
S'tx B-tx A'
p3131
(dp3132
g148
Nsg149
Nsg150
Nsg151
Nsg152
Nsg153
Nsg154
NssS'tx A-tx B'
p3133
(dp3134
g148
Nsg149
Nsg150
Nsg151
Nsg152
Nsg153
Nsg154
Nsssg179
(dp3135
S'tx B-tx A'
p3136
(dp3137
g148
Nsg149
Nsg150
Nsg151
Nsg152
Nsg153
Nsg154
NssS'tx A-tx B'
p3138
(dp3139
g148
Nsg149
Nsg150
Nsg151
Nsg152
Nsg153
Nsg154
Nsssg185
(dp3140
S'tx B-tx A'
p3141
(dp3142
g148
Nsg149
Nsg150
Nsg151
Nsg152
Nsg153
Nsg154
NssS'tx A-tx B'
p3143
(dp3144
g148
Nsg149
Nsg150
Nsg151
Nsg152
Nsg153
Nsg154
Nsssg191
(dp3145
g159
(dp3146
g148
Nsg149
Nsg150
Nsg151
Nsg152
Nsg153
Nsg154
Nssg161
(dp3147
g148
Nsg149
Nsg150
Nsg151
Nsg152
Nsg153
Nsg154
Nsssg195
(dp3148
g159
(dp3149
g148
Nsg149
Nsg150
Nsg151
Nsg152
Nsg153
Nsg154
Nssg161
(dp3150
g148
Nsg149
Nsg150
Nsg151
Nsg152
Nsg153
Nsg154
Nsssg199
(dp3151
g159
(dp3152
g148
Nsg149
Nsg150
Nsg151
Nsg152
Nsg153
Nsg154
Nssg161
(dp3153
g148
Nsg149
Nsg150
Nsg151
Nsg152
Nsg153
Nsg154
Nsssg203
(dp3154
S'tx B-tx A'
p3155
(dp3156
g148
Nsg149
Nsg150
Nsg151
Nsg152
Nsg153
Nsg154
NssS'tx A-tx B'
p3157
(dp3158
g148
Nsg149
Nsg150
Nsg151
Nsg152
Nsg153
Nsg154
Nssssg53
(dp3159
g159
(ima_dataset
TreatmentGroup
p3160
(dp3161
g58
(lp3162
g26
ag26
asg60
I0
sg36
g159
sbsg161
(ima_dataset
TreatmentGroup
p3163
(dp3164
g58
(lp3165
g26
ag26
asg60
I1
sg36
g161
sbssg67
g42
sg29
I00
sg139
I2
sbsg20
(ima_dataset
MetaAnalyticUnit
p3166
(dp3167
g29
I00
sg53
(dp3168
g55
(ima_dataset
TreatmentGroup
p3169
(dp3170
g58
(lp3171
F11.0
aF25.0
asg60
I0
sg36
g61
sbsg62
(ima_dataset
TreatmentGroup
p3172
(dp3173
g58
(lp3174
F3.0
aF25.0
asg60
I1
sg36
g66
sbssg67
g42
sg68
(dp3175
g226
(dp3176
Vtx B-tx A
p3177
(dp3178
g230
Nsg231
Nsg232
Nsg233
Nsg234
Nsg235
Nsg236
NssVtx A-tx B
p3179
(dp3180
g230
Nsg231
Nsg232
Nsg233
Nsg234
Nsg235
Nsg236
Nsssg239
(dp3181
g55
(dp3182
g230
Nsg231
Nsg232
Nsg233
Nsg234
Nsg235
Nsg236
Nssg62
(dp3183
g230
Nsg231
Nsg232
Nsg233
Nsg234
Nsg235
Nsg236
Nsssg243
(dp3184
g55
(dp3185
g230
Nsg231
Nsg232
Nsg233
Nsg234
Nsg235
Nsg236
Nssg62
(dp3186
g230
Nsg231
Nsg232
Nsg233
Nsg234
Nsg235
Nsg236
Nsssg247
(dp3187
Vtx B-tx A
p3188
(dp3189
g230
F-0.149329464607324
sg231
F-2.4492365036531973
sg232
F-1.2992829841302607
sg233
F0.8612853051240409
sg234
F0.27272727272727276
sg235
F0.08635949649523408
sg236
NssVtx A-tx B
p3190
(dp3191
g230
F2.4492365036531973
sg231
F0.149329464607324
sg232
F1.2992829841302607
sg233
F11.579502435556545
sg234
F3.666666666666666
sg235
F1.161055452880369
sg236
Nsssg253
(dp3192
Vtx B-tx A
p3193
(dp3194
g230
Nsg231
Nsg232
Nsg233
Nsg234
Nsg235
Nsg236
NssVtx A-tx B
p3195
(dp3196
g230
Nsg231
Nsg232
Nsg233
Nsg234
Nsg235
Nsg236
Nsssg259
(dp3197
Vtx B-tx A
p3198
(dp3199
g230
Nsg231
Nsg232
Nsg233
Nsg234
Nsg235
Nsg236
NssVtx A-tx B
p3200
(dp3201
g230
Nsg231
Nsg232
Nsg233
Nsg234
Nsg235
Nsg236
Nsssg265
(dp3202
Vtx B-tx A
p3203
(dp3204
g230
Nsg231
Nsg232
Nsg233
Nsg234
Nsg235
Nsg236
NssVtx A-tx B
p3205
(dp3206
g230
Nsg231
Nsg232
Nsg233
Nsg234
Nsg235
Nsg236
Nsssg271
(dp3207
Vtx B-tx A
p3208
(dp3209
g230
Nsg231
Nsg232
Nsg233
Nsg234
Nsg235
Nsg236
NssVtx A-tx B
p3210
(dp3211
g230
Nsg231
Nsg232
Nsg233
Nsg234
Nsg235
Nsg236
Nsssg277
(dp3212
g55
(dp3213
g230
Nsg231
Nsg232
Nsg233
Nsg234
Nsg235
Nsg236
Nssg62
(dp3214
g230
Nsg231
Nsg232
Nsg233
Nsg234
Nsg235
Nsg236
Nsssg281
(dp3215
g55
(dp3216
g230
Nsg231
Nsg232
Nsg233
Nsg234
Nsg235
Nsg236
Nssg62
(dp3217
g230
Nsg231
Nsg232
Nsg233
Nsg234
Nsg235
Nsg236
Nsssg285
(dp3218
g55
(dp3219
g230
Nsg231
Nsg232
Nsg233
Nsg234
Nsg235
Nsg236
Nssg62
(dp3220
g230
Nsg231
Nsg232
Nsg233
Nsg234
Nsg235
Nsg236
Nsssg289
(dp3221
Vtx B-tx A
p3222
(dp3223
g230
F-0.30949437976630656
sg231
F-3.1930418359803294
sg232
F-1.751268107873318
sg233
F0.7338178956150252
sg234
F0.17355371900826447
sg235
F0.04104682314452796
sg236
NssVtx A-tx B
p3224
(dp3225
g230
F3.19304183598033
sg231
F0.30949437976630634
sg232
F1.751268107873318
sg233
F24.36242133718727
sg234
F5.761904761904762
sg235
F1.3627359130590333
sg236
Nssssg139
I2
sbsssg295
I00
sg296
I1977
sg297
Nsg60
I16
sba(ima_dataset
Study
p3226
(dp3227
g35
I01
sg36
VVanhaeverbeek
p3228
sg38
(dp3229
sg25
g26
sg40
(lp3230
g42
ag46
asg48
(dp3231
g7
(dp3232
g12
(ima_dataset
MetaAnalyticUnit
p3233
(dp3234
g29
I00
sg53
(dp3235
g55
(ima_dataset
TreatmentGroup
p3236
(dp3237
g58
(lp3238
F0.0
aF19.0
asg60
I0
sg36
g61
sbsg62
(ima_dataset
TreatmentGroup
p3239
(dp3240
g58
(lp3241
F1.0
aF20.0
asg60
I1
sg36
g66
sbssg67
g46
sg68
(dp3242
g70
(dp3243
Vtx B-tx A
p3244
(dp3245
g74
Nsg75
Nsg76
Nsg77
Nsg78
Nsg79
Nsg80
NssVtx A-tx B
p3246
(dp3247
g74
Nsg75
Nsg76
Nsg77
Nsg78
Nsg79
Nsg80
Nsssg83
(dp3248
g55
(dp3249
g74
Nsg75
Nsg76
Nsg77
Nsg78
Nsg79
Nsg80
Nssg62
(dp3250
g74
Nsg75
Nsg76
Nsg77
Nsg78
Nsg79
Nsg80
Nsssg87
(dp3251
g55
(dp3252
g74
Nsg75
Nsg76
Nsg77
Nsg78
Nsg79
Nsg80
Nssg62
(dp3253
g74
Nsg75
Nsg76
Nsg77
Nsg78
Nsg79
Nsg80
Nsssg91
(dp3254
Vtx B-tx A
p3255
(dp3256
g74
Nsg75
Nsg76
Nsg77
Nsg78
Nsg79
Nsg80
NssVtx A-tx B
p3257
(dp3258
g74
F2.09165692794998
sg75
F-4.191301176947334
sg76
F-1.0498221244986774
sg77
F8.098322390550601
sg78
F0.3500000000000001
sg79
F0.015126589692568587
sg80
Nsssg97
(dp3259
Vtx B-tx A
p3260
(dp3261
g74
Nsg75
Nsg76
Nsg77
Nsg78
Nsg79
Nsg80
NssVtx A-tx B
p3262
(dp3263
g74
Nsg75
Nsg76
Nsg77
Nsg78
Nsg79
Nsg80
Nsssg103
(dp3264
Vtx B-tx A
p3265
(dp3266
g74
Nsg75
Nsg76
Nsg77
Nsg78
Nsg79
Nsg80
NssVtx A-tx B
p3267
(dp3268
g74
Nsg75
Nsg76
Nsg77
Nsg78
Nsg79
Nsg80
Nsssg109
(dp3269
Vtx B-tx A
p3270
(dp3271
g74
Nsg75
Nsg76
Nsg77
Nsg78
Nsg79
Nsg80
NssVtx A-tx B
p3272
(dp3273
g74
Nsg75
Nsg76
Nsg77
Nsg78
Nsg79
Nsg80
Nsssg115
(dp3274
Vtx B-tx A
p3275
(dp3276
g74
Nsg75
Nsg76
Nsg77
Nsg78
Nsg79
Nsg80
NssVtx A-tx B
p3277
(dp3278
g74
Nsg75
Nsg76
Nsg77
Nsg78
Nsg79
Nsg80
Nsssg121
(dp3279
g55
(dp3280
g74
Nsg75
Nsg76
Nsg77
Nsg78
Nsg79
Nsg80
Nssg62
(dp3281
g74
Nsg75
Nsg76
Nsg77
Nsg78
Nsg79
Nsg80
Nsssg125
(dp3282
g55
(dp3283
g74
Nsg75
Nsg76
Nsg77
Nsg78
Nsg79
Nsg80
Nssg62
(dp3284
g74
Nsg75
Nsg76
Nsg77
Nsg78
Nsg79
Nsg80
Nsssg129
(dp3285
g55
(dp3286
g74
Nsg75
Nsg76
Nsg77
Nsg78
Nsg79
Nsg80
Nssg62
(dp3287
g74
Nsg75
Nsg76
Nsg77
Nsg78
Nsg79
Nsg80
Nsssg133
(dp3288
Vtx B-tx A
p3289
(dp3290
g74
F4.360189509124359
sg75
F-2.1629649317881396
sg76
F1.0986122886681096
sg77
F78.27196626944432
sg78
F2.9999999999999996
sg79
F0.11498369632134056
sg80
NssVtx A-tx B
p3291
(dp3292
g74
F2.162964931788139
sg75
F-4.360189509124359
sg76
F-1.0986122886681096
sg77
F8.696885141049368
sg78
F0.33333333333333337
sg79
F0.012775966257926734
sg80
Nssssg139
I2
sbssg18
(dp3293
N(ima_dataset
MetaAnalyticUnit
p3294
(dp3295
g68
(dp3296
g144
(dp3297
S'tx B-tx A'
p3298
(dp3299
g148
Nsg149
Nsg150
Nsg151
Nsg152
Nsg153
Nsg154
NssS'tx A-tx B'
p3300
(dp3301
g148
Nsg149
Nsg150
Nsg151
Nsg152
Nsg153
Nsg154
Nsssg157
(dp3302
g159
(dp3303
g148
Nsg149
Nsg150
Nsg151
Nsg152
Nsg153
Nsg154
Nssg161
(dp3304
g148
Nsg149
Nsg150
Nsg151
Nsg152
Nsg153
Nsg154
Nsssg163
(dp3305
g159
(dp3306
g148
Nsg149
Nsg150
Nsg151
Nsg152
Nsg153
Nsg154
Nssg161
(dp3307
g148
Nsg149
Nsg150
Nsg151
Nsg152
Nsg153
Nsg154
Nsssg167
(dp3308
S'tx B-tx A'
p3309
(dp3310
g148
Nsg149
Nsg150
Nsg151
Nsg152
Nsg153
Nsg154
NssS'tx A-tx B'
p3311
(dp3312
g148
Nsg149
Nsg150
Nsg151
Nsg152
Nsg153
Nsg154
Nsssg173
(dp3313
S'tx B-tx A'
p3314
(dp3315
g148
Nsg149
Nsg150
Nsg151
Nsg152
Nsg153
Nsg154
NssS'tx A-tx B'
p3316
(dp3317
g148
Nsg149
Nsg150
Nsg151
Nsg152
Nsg153
Nsg154
Nsssg179
(dp3318
S'tx B-tx A'
p3319
(dp3320
g148
Nsg149
Nsg150
Nsg151
Nsg152
Nsg153
Nsg154
NssS'tx A-tx B'
p3321
(dp3322
g148
Nsg149
Nsg150
Nsg151
Nsg152
Nsg153
Nsg154
Nsssg185
(dp3323
S'tx B-tx A'
p3324
(dp3325
g148
Nsg149
Nsg150
Nsg151
Nsg152
Nsg153
Nsg154
NssS'tx A-tx B'
p3326
(dp3327
g148
Nsg149
Nsg150
Nsg151
Nsg152
Nsg153
Nsg154
Nsssg191
(dp3328
g159
(dp3329
g148
Nsg149
Nsg150
Nsg151
Nsg152
Nsg153
Nsg154
Nssg161
(dp3330
g148
Nsg149
Nsg150
Nsg151
Nsg152
Nsg153
Nsg154
Nsssg195
(dp3331
g159
(dp3332
g148
Nsg149
Nsg150
Nsg151
Nsg152
Nsg153
Nsg154
Nssg161
(dp3333
g148
Nsg149
Nsg150
Nsg151
Nsg152
Nsg153
Nsg154
Nsssg199
(dp3334
g159
(dp3335
g148
Nsg149
Nsg150
Nsg151
Nsg152
Nsg153
Nsg154
Nssg161
(dp3336
g148
Nsg149
Nsg150
Nsg151
Nsg152
Nsg153
Nsg154
Nsssg203
(dp3337
S'tx B-tx A'
p3338
(dp3339
g148
Nsg149
Nsg150
Nsg151
Nsg152
Nsg153
Nsg154
NssS'tx A-tx B'
p3340
(dp3341
g148
Nsg149
Nsg150
Nsg151
Nsg152
Nsg153
Nsg154
Nssssg53
(dp3342
g159
(ima_dataset
TreatmentGroup
p3343
(dp3344
g58
(lp3345
g26
ag26
asg60
I0
sg36
g159
sbsg161
(ima_dataset
TreatmentGroup
p3346
(dp3347
g58
(lp3348
g26
ag26
asg60
I1
sg36
g161
sbssg67
g42
sg29
I00
sg139
I2
sbsg20
(ima_dataset
MetaAnalyticUnit
p3349
(dp3350
g29
I00
sg53
(dp3351
g55
(ima_dataset
TreatmentGroup
p3352
(dp3353
g58
(lp3354
F0.0
aF19.0
asg60
I0
sg36
g61
sbsg62
(ima_dataset
TreatmentGroup
p3355
(dp3356
g58
(lp3357
F0.0
aF20.0
asg60
I1
sg36
g66
sbssg67
g42
sg68
(dp3358
g226
(dp3359
Vtx B-tx A
p3360
(dp3361
g230
Nsg231
Nsg232
Nsg233
Nsg234
Nsg235
Nsg236
NssVtx A-tx B
p3362
(dp3363
g230
Nsg231
Nsg232
Nsg233
Nsg234
Nsg235
Nsg236
Nsssg239
(dp3364
g55
(dp3365
g230
Nsg231
Nsg232
Nsg233
Nsg234
Nsg235
Nsg236
Nssg62
(dp3366
g230
Nsg231
Nsg232
Nsg233
Nsg234
Nsg235
Nsg236
Nsssg243
(dp3367
g55
(dp3368
g230
Nsg231
Nsg232
Nsg233
Nsg234
Nsg235
Nsg236
Nssg62
(dp3369
g230
Nsg231
Nsg232
Nsg233
Nsg234
Nsg235
Nsg236
Nsssg247
(dp3370
Vtx B-tx A
p3371
(dp3372
g230
F3.8230098992677988
sg231
F-3.920590227606663
sg232
F-0.04879016416943216
sg233
F45.74167917701218
sg234
F0.9523809523809522
sg235
F0.01982938743783337
sg236
NssVtx A-tx B
p3373
(dp3374
g230
F3.920590227606663
sg231
F-3.8230098992677988
sg232
F0.04879016416943216
sg233
F50.430201292655944
sg234
F1.0500000000000003
sg235
F0.0218618996502113
sg236
Nsssg253
(dp3375
Vtx B-tx A
p3376
(dp3377
g230
Nsg231
Nsg232
Nsg233
Nsg234
Nsg235
Nsg236
NssVtx A-tx B
p3378
(dp3379
g230
Nsg231
Nsg232
Nsg233
Nsg234
Nsg235
Nsg236
Nsssg259
(dp3380
Vtx B-tx A
p3381
(dp3382
g230
Nsg231
Nsg232
Nsg233
Nsg234
Nsg235
Nsg236
NssVtx A-tx B
p3383
(dp3384
g230
Nsg231
Nsg232
Nsg233
Nsg234
Nsg235
Nsg236
Nsssg265
(dp3385
Vtx B-tx A
p3386
(dp3387
g230
Nsg231
Nsg232
Nsg233
Nsg234
Nsg235
Nsg236
NssVtx A-tx B
p3388
(dp3389
g230
Nsg231
Nsg232
Nsg233
Nsg234
Nsg235
Nsg236
Nsssg271
(dp3390
Vtx B-tx A
p3391
(dp3392
g230
Nsg231
Nsg232
Nsg233
Nsg234
Nsg235
Nsg236
NssVtx A-tx B
p3393
(dp3394
g230
Nsg231
Nsg232
Nsg233
Nsg234
Nsg235
Nsg236
Nsssg277
(dp3395
g55
(dp3396
g230
Nsg231
Nsg232
Nsg233
Nsg234
Nsg235
Nsg236
Nssg62
(dp3397
g230
Nsg231
Nsg232
Nsg233
Nsg234
Nsg235
Nsg236
Nsssg281
(dp3398
g55
(dp3399
g230
Nsg231
Nsg232
Nsg233
Nsg234
Nsg235
Nsg236
Nssg62
(dp3400
g230
Nsg231
Nsg232
Nsg233
Nsg234
Nsg235
Nsg236
Nsssg285
(dp3401
g55
(dp3402
g230
Nsg231
Nsg232
Nsg233
Nsg234
Nsg235
Nsg236
Nssg62
(dp3403
g230
Nsg231
Nsg232
Nsg233
Nsg234
Nsg235
Nsg236
Nsssg289
(dp3404
Vtx B-tx A
p3405
(dp3406
g230
F3.918644440480029
sg231
F-4.018665281629352
sg232
F-0.05001042057466165
sg233
F50.33217026087645
sg234
F0.9512195121951217
sg235
F0.01797694309009455
sg236
NssVtx A-tx B
p3407
(dp3408
g230
F4.018665281629353
sg231
F-3.9186444404800294
sg232
F0.05001042057466165
sg233
F55.62681013052823
sg234
F1.0512820512820515
sg235
F0.01986800876689608
sg236
Nssssg139
I2
sbsssg295
I00
sg296
I1993
sg297
Nsg60
I17
sba(ima_dataset
Study
p3409
(dp3410
g35
I01
sg36
VHollender
p3411
sg38
(dp3412
sg25
g26
sg40
(lp3413
g42
ag46
asg48
(dp3414
g7
(dp3415
g12
(ima_dataset
MetaAnalyticUnit
p3416
(dp3417
g29
I00
sg53
(dp3418
g55
(ima_dataset
TreatmentGroup
p3419
(dp3420
g58
(lp3421
F0.0
aF58.0
asg60
I0
sg36
g61
sbsg62
(ima_dataset
TreatmentGroup
p3422
(dp3423
g58
(lp3424
F3.0
aF56.0
asg60
I1
sg36
g66
sbssg67
g46
sg68
(dp3425
g70
(dp3426
Vtx B-tx A
p3427
(dp3428
g74
Nsg75
Nsg76
Nsg77
Nsg78
Nsg79
Nsg80
NssVtx A-tx B
p3429
(dp3430
g74
Nsg75
Nsg76
Nsg77
Nsg78
Nsg79
Nsg80
Nsssg83
(dp3431
g55
(dp3432
g74
Nsg75
Nsg76
Nsg77
Nsg78
Nsg79
Nsg80
Nssg62
(dp3433
g74
Nsg75
Nsg76
Nsg77
Nsg78
Nsg79
Nsg80
Nsssg87
(dp3434
g55
(dp3435
g74
Nsg75
Nsg76
Nsg77
Nsg78
Nsg79
Nsg80
Nssg62
(dp3436
g74
Nsg75
Nsg76
Nsg77
Nsg78
Nsg79
Nsg80
Nsssg91
(dp3437
Vtx B-tx A
p3438
(dp3439
g74
Nsg75
Nsg76
Nsg77
Nsg78
Nsg79
Nsg80
NssVtx A-tx B
p3440
(dp3441
g74
F0.9603474274824348
sg75
F-4.921140077735401
sg76
F-1.980396325126483
sg77
F2.6126040061955473
sg78
F0.1380145278450363
sg79
F0.00729081401204228
sg80
Nsssg97
(dp3442
Vtx B-tx A
p3443
(dp3444
g74
Nsg75
Nsg76
Nsg77
Nsg78
Nsg79
Nsg80
NssVtx A-tx B
p3445
(dp3446
g74
Nsg75
Nsg76
Nsg77
Nsg78
Nsg79
Nsg80
Nsssg103
(dp3447
Vtx B-tx A
p3448
(dp3449
g74
Nsg75
Nsg76
Nsg77
Nsg78
Nsg79
Nsg80
NssVtx A-tx B
p3450
(dp3451
g74
Nsg75
Nsg76
Nsg77
Nsg78
Nsg79
Nsg80
Nsssg109
(dp3452
Vtx B-tx A
p3453
(dp3454
g74
Nsg75
Nsg76
Nsg77
Nsg78
Nsg79
Nsg80
NssVtx A-tx B
p3455
(dp3456
g74
Nsg75
Nsg76
Nsg77
Nsg78
Nsg79
Nsg80
Nsssg115
(dp3457
Vtx B-tx A
p3458
(dp3459
g74
Nsg75
Nsg76
Nsg77
Nsg78
Nsg79
Nsg80
NssVtx A-tx B
p3460
(dp3461
g74
Nsg75
Nsg76
Nsg77
Nsg78
Nsg79
Nsg80
Nsssg121
(dp3462
g55
(dp3463
g74
Nsg75
Nsg76
Nsg77
Nsg78
Nsg79
Nsg80
Nssg62
(dp3464
g74
Nsg75
Nsg76
Nsg77
Nsg78
Nsg79
Nsg80
Nsssg125
(dp3465
g55
(dp3466
g74
Nsg75
Nsg76
Nsg77
Nsg78
Nsg79
Nsg80
Nssg62
(dp3467
g74
Nsg75
Nsg76
Nsg77
Nsg78
Nsg79
Nsg80
Nsssg129
(dp3468
g55
(dp3469
g74
Nsg75
Nsg76
Nsg77
Nsg78
Nsg79
Nsg80
Nssg62
(dp3470
g74
Nsg75
Nsg76
Nsg77
Nsg78
Nsg79
Nsg80
Nsssg133
(dp3471
Vtx B-tx A
p3472
(dp3473
g74
F5.021548308654056
sg75
F-0.9510378098717287
sg76
F2.0352552493911635
sg77
F151.64591680584826
sg78
F7.654205607476638
sg79
F0.38633986800010833
sg80
NssVtx A-tx B
p3474
(dp3475
g74
F0.9510378098717287
sg75
F-5.021548308654056
sg76
F-2.0352552493911635
sg77
F2.588394527275967
sg78
F0.1306471306471306
sg79
F0.006594308775753563
sg80
Nssssg139
I2
sbssg18
(dp3476
N(ima_dataset
MetaAnalyticUnit
p3477
(dp3478
g68
(dp3479
g144
(dp3480
S'tx B-tx A'
p3481
(dp3482
g148
Nsg149
Nsg150
Nsg151
Nsg152
Nsg153
Nsg154
NssS'tx A-tx B'
p3483
(dp3484
g148
Nsg149
Nsg150
Nsg151
Nsg152
Nsg153
Nsg154
Nsssg157
(dp3485
g159
(dp3486
g148
Nsg149
Nsg150
Nsg151
Nsg152
Nsg153
Nsg154
Nssg161
(dp3487
g148
Nsg149
Nsg150
Nsg151
Nsg152
Nsg153
Nsg154
Nsssg163
(dp3488
g159
(dp3489
g148
Nsg149
Nsg150
Nsg151
Nsg152
Nsg153
Nsg154
Nssg161
(dp3490
g148
Nsg149
Nsg150
Nsg151
Nsg152
Nsg153
Nsg154
Nsssg167
(dp3491
S'tx B-tx A'
p3492
(dp3493
g148
Nsg149
Nsg150
Nsg151
Nsg152
Nsg153
Nsg154
NssS'tx A-tx B'
p3494
(dp3495
g148
Nsg149
Nsg150
Nsg151
Nsg152
Nsg153
Nsg154
Nsssg173
(dp3496
S'tx B-tx A'
p3497
(dp3498
g148
Nsg149
Nsg150
Nsg151
Nsg152
Nsg153
Nsg154
NssS'tx A-tx B'
p3499
(dp3500
g148
Nsg149
Nsg150
Nsg151
Nsg152
Nsg153
Nsg154
Nsssg179
(dp3501
S'tx B-tx A'
p3502
(dp3503
g148
Nsg149
Nsg150
Nsg151
Nsg152
Nsg153
Nsg154
NssS'tx A-tx B'
p3504
(dp3505
g148
Nsg149
Nsg150
Nsg151
Nsg152
Nsg153
Nsg154
Nsssg185
(dp3506
S'tx B-tx A'
p3507
(dp3508
g148
Nsg149
Nsg150
Nsg151
Nsg152
Nsg153
Nsg154
NssS'tx A-tx B'
p3509
(dp3510
g148
Nsg149
Nsg150
Nsg151
Nsg152
Nsg153
Nsg154
Nsssg191
(dp3511
g159
(dp3512
g148
Nsg149
Nsg150
Nsg151
Nsg152
Nsg153
Nsg154
Nssg161
(dp3513
g148
Nsg149
Nsg150
Nsg151
Nsg152
Nsg153
Nsg154
Nsssg195
(dp3514
g159
(dp3515
g148
Nsg149
Nsg150
Nsg151
Nsg152
Nsg153
Nsg154
Nssg161
(dp3516
g148
Nsg149
Nsg150
Nsg151
Nsg152
Nsg153
Nsg154
Nsssg199
(dp3517
g159
(dp3518
g148
Nsg149
Nsg150
Nsg151
Nsg152
Nsg153
Nsg154
Nssg161
(dp3519
g148
Nsg149
Nsg150
Nsg151
Nsg152
Nsg153
Nsg154
Nsssg203
(dp3520
S'tx B-tx A'
p3521
(dp3522
g148
Nsg149
Nsg150
Nsg151
Nsg152
Nsg153
Nsg154
NssS'tx A-tx B'
p3523
(dp3524
g148
Nsg149
Nsg150
Nsg151
Nsg152
Nsg153
Nsg154
Nssssg53
(dp3525
g159
(ima_dataset
TreatmentGroup
p3526
(dp3527
g58
(lp3528
g26
ag26
asg60
I0
sg36
g159
sbsg161
(ima_dataset
TreatmentGroup
p3529
(dp3530
g58
(lp3531
g26
ag26
asg60
I1
sg36
g161
sbssg67
g42
sg29
I00
sg139
I2
sbsg20
(ima_dataset
MetaAnalyticUnit
p3532
(dp3533
g29
I00
sg53
(dp3534
g55
(ima_dataset
TreatmentGroup
p3535
(dp3536
g58
(lp3537
F0.0
aF58.0
asg60
I0
sg36
g61
sbsg62
(ima_dataset
TreatmentGroup
p3538
(dp3539
g58
(lp3540
F1.0
aF56.0
asg60
I1
sg36
g66
sbssg67
g42
sg68
(dp3541
g226
(dp3542
Vtx B-tx A
p3543
(dp3544
g230
Nsg231
Nsg232
Nsg233
Nsg234
Nsg235
Nsg236
NssVtx A-tx B
p3545
(dp3546
g230
Nsg231
Nsg232
Nsg233
Nsg234
Nsg235
Nsg236
Nsssg239
(dp3547
g55
(dp3548
g230
Nsg231
Nsg232
Nsg233
Nsg234
Nsg235
Nsg236
Nssg62
(dp3549
g230
Nsg231
Nsg232
Nsg233
Nsg234
Nsg235
Nsg236
Nsssg243
(dp3550
g55
(dp3551
g230
Nsg231
Nsg232
Nsg233
Nsg234
Nsg235
Nsg236
Nssg62
(dp3552
g230
Nsg231
Nsg232
Nsg233
Nsg234
Nsg235
Nsg236
Nsssg247
(dp3553
Vtx B-tx A
p3554
(dp3555
g230
F4.312939137254544
sg231
F-2.0467422077759854
sg232
F1.1330984647392794
sg233
F74.65960159798978
sg234
F3.105263157894738
sg235
F0.12915497904341922
sg236
NssVtx A-tx B
p3556
(dp3557
g230
F2.0467422077759854
sg231
F-4.312939137254544
sg232
F-1.1330984647392794
sg233
F7.742636074942344
sg234
F0.3220338983050846
sg235
F0.013394124514413765
sg236
Nsssg253
(dp3558
Vtx B-tx A
p3559
(dp3560
g230
Nsg231
Nsg232
Nsg233
Nsg234
Nsg235
Nsg236
NssVtx A-tx B
p3561
(dp3562
g230
Nsg231
Nsg232
Nsg233
Nsg234
Nsg235
Nsg236
Nsssg259
(dp3563
Vtx B-tx A
p3564
(dp3565
g230
Nsg231
Nsg232
Nsg233
Nsg234
Nsg235
Nsg236
NssVtx A-tx B
p3566
(dp3567
g230
Nsg231
Nsg232
Nsg233
Nsg234
Nsg235
Nsg236
Nsssg265
(dp3568
Vtx B-tx A
p3569
(dp3570
g230
Nsg231
Nsg232
Nsg233
Nsg234
Nsg235
Nsg236
NssVtx A-tx B
p3571
(dp3572
g230
Nsg231
Nsg232
Nsg233
Nsg234
Nsg235
Nsg236
Nsssg271
(dp3573
Vtx B-tx A
p3574
(dp3575
g230
Nsg231
Nsg232
Nsg233
Nsg234
Nsg235
Nsg236
NssVtx A-tx B
p3576
(dp3577
g230
Nsg231
Nsg232
Nsg233
Nsg234
Nsg235
Nsg236
Nsssg277
(dp3578
g55
(dp3579
g230
Nsg231
Nsg232
Nsg233
Nsg234
Nsg235
Nsg236
Nssg62
(dp3580
g230
Nsg231
Nsg232
Nsg233
Nsg234
Nsg235
Nsg236
Nsssg281
(dp3581
g55
(dp3582
g230
Nsg231
Nsg232
Nsg233
Nsg234
Nsg235
Nsg236
Nssg62
(dp3583
g230
Nsg231
Nsg232
Nsg233
Nsg234
Nsg235
Nsg236
Nsssg285
(dp3584
g55
(dp3585
g230
Nsg231
Nsg232
Nsg233
Nsg234
Nsg235
Nsg236
Nssg62
(dp3586
g230
Nsg231
Nsg232
Nsg233
Nsg234
Nsg235
Nsg236
Nsssg289
(dp3587
Vtx B-tx A
p3588
(dp3589
g230
F4.372866120460171
sg231
F-2.070354076153107
sg232
F1.151256022153532
sg233
F79.27050523776249
sg234
F3.162162162162163
sg235
F0.12614111023789315
sg236
NssVtx A-tx B
p3590
(dp3591
g230
F2.0703540761531074
sg231
F-4.372866120460172
sg232
F-1.151256022153532
sg233
F7.927629605558978
sg234
F0.31623931623931617
sg235
F0.012615032501693001
sg236
Nssssg139
I2
sbsssg295
I00
sg296
I1989
sg297
Nsg60
I18
sba(ima_dataset
Study
p3592
(dp3593
g35
I00
sg36
g26
sg38
(dp3594
sg25
g26
sg40
(lp3595
g42
ag46
asg48
(dp3596
g7
(dp3597
g12
(ima_dataset
MetaAnalyticUnit
p3598
(dp3599
g29
I00
sg53
(dp3600
g55
(ima_dataset
TreatmentGroup
p3601
(dp3602
g58
(lp3603
g26
ag26
asg60
I0
sg36
g61
sbsg62
(ima_dataset
TreatmentGroup
p3604
(dp3605
g58
(lp3606
g26
ag26
asg60
I1
sg36
g66
sbssg67
g46
sg68
(dp3607
g70
(dp3608
Vtx B-tx A
p3609
(dp3610
g74
Nsg75
Nsg76
Nsg77
Nsg78
Nsg79
Nsg80
NssVtx A-tx B
p3611
(dp3612
g74
Nsg75
Nsg76
Nsg77
Nsg78
Nsg79
Nsg80
Nsssg83
(dp3613
g55
(dp3614
g74
Nsg75
Nsg76
Nsg77
Nsg78
Nsg79
Nsg80
Nssg62
(dp3615
g74
Nsg75
Nsg76
Nsg77
Nsg78
Nsg79
Nsg80
Nsssg87
(dp3616
g55
(dp3617
g74
Nsg75
Nsg76
Nsg77
Nsg78
Nsg79
Nsg80
Nssg62
(dp3618
g74
Nsg75
Nsg76
Nsg77
Nsg78
Nsg79
Nsg80
Nsssg91
(dp3619
Vtx B-tx A
p3620
(dp3621
g74
Nsg75
Nsg76
Nsg77
Nsg78
Nsg79
Nsg80
NssVtx A-tx B
p3622
(dp3623
g74
Nsg75
Nsg76
Nsg77
Nsg78
Nsg79
Nsg80
Nsssg97
(dp3624
Vtx B-tx A
p3625
(dp3626
g74
Nsg75
Nsg76
Nsg77
Nsg78
Nsg79
Nsg80
NssVtx A-tx B
p3627
(dp3628
g74
Nsg75
Nsg76
Nsg77
Nsg78
Nsg79
Nsg80
Nsssg103
(dp3629
Vtx B-tx A
p3630
(dp3631
g74
Nsg75
Nsg76
Nsg77
Nsg78
Nsg79
Nsg80
NssVtx A-tx B
p3632
(dp3633
g74
Nsg75
Nsg76
Nsg77
Nsg78
Nsg79
Nsg80
Nsssg109
(dp3634
Vtx B-tx A
p3635
(dp3636
g74
Nsg75
Nsg76
Nsg77
Nsg78
Nsg79
Nsg80
NssVtx A-tx B
p3637
(dp3638
g74
Nsg75
Nsg76
Nsg77
Nsg78
Nsg79
Nsg80
Nsssg115
(dp3639
Vtx B-tx A
p3640
(dp3641
g74
Nsg75
Nsg76
Nsg77
Nsg78
Nsg79
Nsg80
NssVtx A-tx B
p3642
(dp3643
g74
Nsg75
Nsg76
Nsg77
Nsg78
Nsg79
Nsg80
Nsssg121
(dp3644
g55
(dp3645
g74
Nsg75
Nsg76
Nsg77
Nsg78
Nsg79
Nsg80
Nssg62
(dp3646
g74
Nsg75
Nsg76
Nsg77
Nsg78
Nsg79
Nsg80
Nsssg125
(dp3647
g55
(dp3648
g74
Nsg75
Nsg76
Nsg77
Nsg78
Nsg79
Nsg80
Nssg62
(dp3649
g74
Nsg75
Nsg76
Nsg77
Nsg78
Nsg79
Nsg80
Nsssg129
(dp3650
g55
(dp3651
g74
Nsg75
Nsg76
Nsg77
Nsg78
Nsg79
Nsg80
Nssg62
(dp3652
g74
Nsg75
Nsg76
Nsg77
Nsg78
Nsg79
Nsg80
Nsssg133
(dp3653
Vtx B-tx A
p3654
(dp3655
g74
Nsg75
Nsg76
Nsg77
Nsg78
Nsg79
Nsg80
NssVtx A-tx B
p3656
(dp3657
g74
Nsg75
Nsg76
Nsg77
Nsg78
Nsg79
Nsg80
Nssssg139
I2
sbssg18
(dp3658
N(ima_dataset
MetaAnalyticUnit
p3659
(dp3660
g68
(dp3661
g144
(dp3662
S'tx B-tx A'
p3663
(dp3664
g148
Nsg149
Nsg150
Nsg151
Nsg152
Nsg153
Nsg154
NssS'tx A-tx B'
p3665
(dp3666
g148
Nsg149
Nsg150
Nsg151
Nsg152
Nsg153
Nsg154
Nsssg157
(dp3667
g159
(dp3668
g148
Nsg149
Nsg150
Nsg151
Nsg152
Nsg153
Nsg154
Nssg161
(dp3669
g148
Nsg149
Nsg150
Nsg151
Nsg152
Nsg153
Nsg154
Nsssg163
(dp3670
g159
(dp3671
g148
Nsg149
Nsg150
Nsg151
Nsg152
Nsg153
Nsg154
Nssg161
(dp3672
g148
Nsg149
Nsg150
Nsg151
Nsg152
Nsg153
Nsg154
Nsssg167
(dp3673
S'tx B-tx A'
p3674
(dp3675
g148
Nsg149
Nsg150
Nsg151
Nsg152
Nsg153
Nsg154
NssS'tx A-tx B'
p3676
(dp3677
g148
Nsg149
Nsg150
Nsg151
Nsg152
Nsg153
Nsg154
Nsssg173
(dp3678
S'tx B-tx A'
p3679
(dp3680
g148
Nsg149
Nsg150
Nsg151
Nsg152
Nsg153
Nsg154
NssS'tx A-tx B'
p3681
(dp3682
g148
Nsg149
Nsg150
Nsg151
Nsg152
Nsg153
Nsg154
Nsssg179
(dp3683
S'tx B-tx A'
p3684
(dp3685
g148
Nsg149
Nsg150
Nsg151
Nsg152
Nsg153
Nsg154
NssS'tx A-tx B'
p3686
(dp3687
g148
Nsg149
Nsg150
Nsg151
Nsg152
Nsg153
Nsg154
Nsssg185
(dp3688
S'tx B-tx A'
p3689
(dp3690
g148
Nsg149
Nsg150
Nsg151
Nsg152
Nsg153
Nsg154
NssS'tx A-tx B'
p3691
(dp3692
g148
Nsg149
Nsg150
Nsg151
Nsg152
Nsg153
Nsg154
Nsssg191
(dp3693
g159
(dp3694
g148
Nsg149
Nsg150
Nsg151
Nsg152
Nsg153
Nsg154
Nssg161
(dp3695
g148
Nsg149
Nsg150
Nsg151
Nsg152
Nsg153
Nsg154
Nsssg195
(dp3696
g159
(dp3697
g148
Nsg149
Nsg150
Nsg151
Nsg152
Nsg153
Nsg154
Nssg161
(dp3698
g148
Nsg149
Nsg150
Nsg151
Nsg152
Nsg153
Nsg154
Nsssg199
(dp3699
g159
(dp3700
g148
Nsg149
Nsg150
Nsg151
Nsg152
Nsg153
Nsg154
Nssg161
(dp3701
g148
Nsg149
Nsg150
Nsg151
Nsg152
Nsg153
Nsg154
Nsssg203
(dp3702
S'tx B-tx A'
p3703
(dp3704
g148
Nsg149
Nsg150
Nsg151
Nsg152
Nsg153
Nsg154
NssS'tx A-tx B'
p3705
(dp3706
g148
Nsg149
Nsg150
Nsg151
Nsg152
Nsg153
Nsg154
Nssssg53
(dp3707
g159
(ima_dataset
TreatmentGroup
p3708
(dp3709
g58
(lp3710
g26
ag26
asg60
I0
sg36
g159
sbsg161
(ima_dataset
TreatmentGroup
p3711
(dp3712
g58
(lp3713
g26
ag26
asg60
I1
sg36
g161
sbssg67
g42
sg29
I00
sg139
I2
sbsg20
(ima_dataset
MetaAnalyticUnit
p3714
(dp3715
g29
I00
sg53
(dp3716
g55
(ima_dataset
TreatmentGroup
p3717
(dp3718
g58
(lp3719
g26
ag26
asg60
I0
sg36
g61
sbsg62
(ima_dataset
TreatmentGroup
p3720
(dp3721
g58
(lp3722
g26
ag26
asg60
I1
sg36
g66
sbssg67
g42
sg68
(dp3723
g226
(dp3724
Vtx B-tx A
p3725
(dp3726
g230
Nsg231
Nsg232
Nsg233
Nsg234
Nsg235
Nsg236
NssVtx A-tx B
p3727
(dp3728
g230
Nsg231
Nsg232
Nsg233
Nsg234
Nsg235
Nsg236
Nsssg239
(dp3729
g55
(dp3730
g230
Nsg231
Nsg232
Nsg233
Nsg234
Nsg235
Nsg236
Nssg62
(dp3731
g230
Nsg231
Nsg232
Nsg233
Nsg234
Nsg235
Nsg236
Nsssg243
(dp3732
g55
(dp3733
g230
Nsg231
Nsg232
Nsg233
Nsg234
Nsg235
Nsg236
Nssg62
(dp3734
g230
Nsg231
Nsg232
Nsg233
Nsg234
Nsg235
Nsg236
Nsssg247
(dp3735
Vtx B-tx A
p3736
(dp3737
g230
Nsg231
Nsg232
Nsg233
Nsg234
Nsg235
Nsg236
NssVtx A-tx B
p3738
(dp3739
g230
Nsg231
Nsg232
Nsg233
Nsg234
Nsg235
Nsg236
Nsssg253
(dp3740
Vtx B-tx A
p3741
(dp3742
g230
Nsg231
Nsg232
Nsg233
Nsg234
Nsg235
Nsg236
NssVtx A-tx B
p3743
(dp3744
g230
Nsg231
Nsg232
Nsg233
Nsg234
Nsg235
Nsg236
Nsssg259
(dp3745
Vtx B-tx A
p3746
(dp3747
g230
Nsg231
Nsg232
Nsg233
Nsg234
Nsg235
Nsg236
NssVtx A-tx B
p3748
(dp3749
g230
Nsg231
Nsg232
Nsg233
Nsg234
Nsg235
Nsg236
Nsssg265
(dp3750
Vtx B-tx A
p3751
(dp3752
g230
Nsg231
Nsg232
Nsg233
Nsg234
Nsg235
Nsg236
NssVtx A-tx B
p3753
(dp3754
g230
Nsg231
Nsg232
Nsg233
Nsg234
Nsg235
Nsg236
Nsssg271
(dp3755
Vtx B-tx A
p3756
(dp3757
g230
Nsg231
Nsg232
Nsg233
Nsg234
Nsg235
Nsg236
NssVtx A-tx B
p3758
(dp3759
g230
Nsg231
Nsg232
Nsg233
Nsg234
Nsg235
Nsg236
Nsssg277
(dp3760
g55
(dp3761
g230
Nsg231
Nsg232
Nsg233
Nsg234
Nsg235
Nsg236
Nssg62
(dp3762
g230
Nsg231
Nsg232
Nsg233
Nsg234
Nsg235
Nsg236
Nsssg281
(dp3763
g55
(dp3764
g230
Nsg231
Nsg232
Nsg233
Nsg234
Nsg235
Nsg236
Nssg62
(dp3765
g230
Nsg231
Nsg232
Nsg233
Nsg234
Nsg235
Nsg236
Nsssg285
(dp3766
g55
(dp3767
g230
Nsg231
Nsg232
Nsg233
Nsg234
Nsg235
Nsg236
Nssg62
(dp3768
g230
Nsg231
Nsg232
Nsg233
Nsg234
Nsg235
Nsg236
Nsssg289
(dp3769
Vtx B-tx A
p3770
(dp3771
g230
Nsg231
Nsg232
Nsg233
Nsg234
Nsg235
Nsg236
NssVtx A-tx B
p3772
(dp3773
g230
Nsg231
Nsg232
Nsg233
Nsg234
Nsg235
Nsg236
Nssssg139
I2
sbsssg295
I00
sg296
Nsg297
Nsg60
I19
sbasS'covariates'
p3774
(lp3775
sb.