(ima_dataset
Dataset
p0
(dp1
S'num_outcomes'
p2
I0
sS'title'
p3
Vaminoglycosides
p4
sS'outcome_names_to_follow_ups'
p5
(dp6
Vnephrotoxic
p7
ccopy_reg
_reconstructor
p8
(ctwo_way_dict
TwoWayDict
p9
c__builtin__
dict
p10
(dp11
I0
S'first'
p12
stp13
Rp14
(dp15
S'_reverse_map'
p16
(dp17
g12
I0
ssbsVclinical failure
p18
g8
(g9
g10
(dp19
I0
S'first'
p20
stp21
Rp22
(dp23
g16
(dp24
g20
I0
ssbssS'notes'
p25
S''
p26
sS'num_follow_ups'
p27
I0
sS'num_treatments'
p28
I0
sS'is_diag'
p29
I00
sS'summary'
p30
NsS'studies'
p31
(lp32
(ima_dataset
Study
p33
(dp34
S'include'
p35
I01
sS'name'
p36
VGonzalez
p37
sS'covariate_dict'
p38
(dp39
sg25
g26
sS'outcomes'
p40
(lp41
(ima_dataset
Outcome
p42
(dp43
S'links'
p44
Nsg36
g18
sS'data_type'
p45
I0
sba(ima_dataset
Outcome
p46
(dp47
g44
Nsg36
g7
sg45
I0
sbasS'outcomes_to_follow_ups'
p48
(dp49
g7
(dp50
g12
(ima_dataset
MetaAnalyticUnit
p51
(dp52
S'effects_dict'
p53
(dp54
S'YUY'
p55
(dp56
Vtx B-tx A
p57
(dp58
S'upper'
p59
NsS'lower'
p60
NsS'est'
p61
NsS'display_upper'
p62
NsS'display_est'
p63
NsS'display_lower'
p64
NsS'SE'
p65
NssVtx A-tx B
p66
(dp67
g59
Nsg60
Nsg61
Nsg62
Nsg63
Nsg64
Nsg65
NsssS'PR'
p68
(dp69
Vtx A
p70
(dp71
g59
Nsg60
Nsg61
Nsg62
Nsg63
Nsg64
Nsg65
NssVtx B
p72
(dp73
g59
Nsg60
Nsg61
Nsg62
Nsg63
Nsg64
Nsg65
NsssS'PAS'
p74
(dp75
g70
(dp76
g59
Nsg60
Nsg61
Nsg62
Nsg63
Nsg64
Nsg65
Nssg72
(dp77
g59
Nsg60
Nsg61
Nsg62
Nsg63
Nsg64
Nsg65
NsssS'RR'
p78
(dp79
Vtx B-tx A
p80
(dp81
g59
Nsg60
Nsg61
Nsg62
Nsg63
Nsg64
Nsg65
NssVtx A-tx B
p82
(dp83
g59
F1.4248523197251561
sg60
F-0.9785652170967367
sg61
F0.2231435513142097
sg62
F4.15724385450512
sg63
F1.25
sg64
F0.3758499752923444
sg65
NsssS'YUQ'
p84
(dp85
Vtx B-tx A
p86
(dp87
g59
Nsg60
Nsg61
Nsg62
Nsg63
Nsg64
Nsg65
NssVtx A-tx B
p88
(dp89
g59
Nsg60
Nsg61
Nsg62
Nsg63
Nsg64
Nsg65
NsssS'PETO'
p90
(dp91
Vtx B-tx A
p92
(dp93
g59
Nsg60
Nsg61
Nsg62
Nsg63
Nsg64
Nsg65
NssVtx A-tx B
p94
(dp95
g59
Nsg60
Nsg61
Nsg62
Nsg63
Nsg64
Nsg65
NsssS'RD'
p96
(dp97
Vtx B-tx A
p98
(dp99
g59
Nsg60
Nsg61
Nsg62
Nsg63
Nsg64
Nsg65
NssVtx A-tx B
p100
(dp101
g59
Nsg60
Nsg61
Nsg62
Nsg63
Nsg64
Nsg65
NsssS'AS'
p102
(dp103
Vtx B-tx A
p104
(dp105
g59
Nsg60
Nsg61
Nsg62
Nsg63
Nsg64
Nsg65
NssVtx A-tx B
p106
(dp107
g59
Nsg60
Nsg61
Nsg62
Nsg63
Nsg64
Nsg65
NsssS'PFT'
p108
(dp109
g70
(dp110
g59
Nsg60
Nsg61
Nsg62
Nsg63
Nsg64
Nsg65
Nssg72
(dp111
g59
Nsg60
Nsg61
Nsg62
Nsg63
Nsg64
Nsg65
NsssS'PLO'
p112
(dp113
g70
(dp114
g59
Nsg60
Nsg61
Nsg62
Nsg63
Nsg64
Nsg65
Nssg72
(dp115
g59
Nsg60
Nsg61
Nsg62
Nsg63
Nsg64
Nsg65
NsssS'PLN'
p116
(dp117
g70
(dp118
g59
Nsg60
Nsg61
Nsg62
Nsg63
Nsg64
Nsg65
Nssg72
(dp119
g59
Nsg60
Nsg61
Nsg62
Nsg63
Nsg64
Nsg65
NsssS'OR'
p120
(dp121
Vtx B-tx A
p122
(dp123
g59
F1.1712542900052285
sg60
F-1.7064449177753156
sg61
F-0.26759531388504354
sg62
F3.2260364872412746
sg63
F0.7652173913043478
sg64
F0.18150992968320936
sg65
NssVtx A-tx B
p124
(dp125
g59
F1.7064449177753156
sg60
F-1.1712542900052285
sg61
F0.26759531388504354
sg62
F5.509340462779681
sg63
F1.3068181818181817
sg64
F0.3099778951524333
sg65
NssssS'tx_groups'
p126
(dp127
g70
(ima_dataset
TreatmentGroup
p128
(dp129
S'raw_data'
p130
(lp131
F5.0
aF27.0
asS'id'
p132
I0
sg36
S'tx A'
p133
sbsg72
(ima_dataset
TreatmentGroup
p134
(dp135
g130
(lp136
F4.0
aF27.0
asg132
I1
sg36
S'tx B'
p137
sbssS'outcome'
p138
g46
sg29
I00
sS'raw_data_length'
p139
I2
sbssg18
(dp140
N(ima_dataset
MetaAnalyticUnit
p141
(dp142
g29
I00
sg126
(dp143
S'tx A'
p144
(ima_dataset
TreatmentGroup
p145
(dp146
g130
(lp147
g26
ag26
asg132
I0
sg36
g144
sbsS'tx B'
p148
(ima_dataset
TreatmentGroup
p149
(dp150
g130
(lp151
g26
ag26
asg132
I1
sg36
g148
sbssg138
g42
sg53
(dp152
S'YUY'
p153
(dp154
S'tx B-tx A'
p155
(dp156
S'upper'
p157
NsS'lower'
p158
NsS'est'
p159
NsS'display_upper'
p160
NsS'display_est'
p161
NsS'display_lower'
p162
NsS'SE'
p163
NssS'tx A-tx B'
p164
(dp165
g157
Nsg158
Nsg159
Nsg160
Nsg161
Nsg162
Nsg163
NsssS'PR'
p166
(dp167
g144
(dp168
g157
Nsg158
Nsg159
Nsg160
Nsg161
Nsg162
Nsg163
Nssg148
(dp169
g157
Nsg158
Nsg159
Nsg160
Nsg161
Nsg162
Nsg163
NsssS'PAS'
p170
(dp171
g144
(dp172
g157
Nsg158
Nsg159
Nsg160
Nsg161
Nsg162
Nsg163
Nssg148
(dp173
g157
Nsg158
Nsg159
Nsg160
Nsg161
Nsg162
Nsg163
NsssS'RR'
p174
(dp175
S'tx B-tx A'
p176
(dp177
g157
Nsg158
Nsg159
Nsg160
Nsg161
Nsg162
Nsg163
NssS'tx A-tx B'
p178
(dp179
g157
Nsg158
Nsg159
Nsg160
Nsg161
Nsg162
Nsg163
NsssS'YUQ'
p180
(dp181
S'tx B-tx A'
p182
(dp183
g157
Nsg158
Nsg159
Nsg160
Nsg161
Nsg162
Nsg163
NssS'tx A-tx B'
p184
(dp185
g157
Nsg158
Nsg159
Nsg160
Nsg161
Nsg162
Nsg163
NsssS'RD'
p186
(dp187
S'tx B-tx A'
p188
(dp189
g157
Nsg158
Nsg159
Nsg160
Nsg161
Nsg162
Nsg163
NssS'tx A-tx B'
p190
(dp191
g157
Nsg158
Nsg159
Nsg160
Nsg161
Nsg162
Nsg163
NsssS'AS'
p192
(dp193
S'tx B-tx A'
p194
(dp195
g157
Nsg158
Nsg159
Nsg160
Nsg161
Nsg162
Nsg163
NssS'tx A-tx B'
p196
(dp197
g157
Nsg158
Nsg159
Nsg160
Nsg161
Nsg162
Nsg163
NsssS'PFT'
p198
(dp199
g144
(dp200
g157
Nsg158
Nsg159
Nsg160
Nsg161
Nsg162
Nsg163
Nssg148
(dp201
g157
Nsg158
Nsg159
Nsg160
Nsg161
Nsg162
Nsg163
NsssS'PLO'
p202
(dp203
g144
(dp204
g157
Nsg158
Nsg159
Nsg160
Nsg161
Nsg162
Nsg163
Nssg148
(dp205
g157
Nsg158
Nsg159
Nsg160
Nsg161
Nsg162
Nsg163
NsssS'PLN'
p206
(dp207
g144
(dp208
g157
Nsg158
Nsg159
Nsg160
Nsg161
Nsg162
Nsg163
Nssg148
(dp209
g157
Nsg158
Nsg159
Nsg160
Nsg161
Nsg162
Nsg163
NsssS'OR'
p210
(dp211
S'tx B-tx A'
p212
(dp213
g157
Nsg158
Nsg159
Nsg160
Nsg161
Nsg162
Nsg163
NssS'tx A-tx B'
p214
(dp215
g157
Nsg158
Nsg159
Nsg160
Nsg161
Nsg162
Nsg163
Nssssg139
I2
sbsg20
(ima_dataset
MetaAnalyticUnit
p216
(dp217
g53
(dp218
S'YUY'
p219
(dp220
Vtx B-tx A
p221
(dp222
S'upper'
p223
NsS'lower'
p224
NsS'est'
p225
NsS'display_upper'
p226
NsS'display_est'
p227
NsS'display_lower'
p228
NsS'SE'
p229
NssVtx A-tx B
p230
(dp231
g223
Nsg224
Nsg225
Nsg226
Nsg227
Nsg228
Nsg229
NsssS'PR'
p232
(dp233
g70
(dp234
g223
Nsg224
Nsg225
Nsg226
Nsg227
Nsg228
Nsg229
Nssg72
(dp235
g223
Nsg224
Nsg225
Nsg226
Nsg227
Nsg228
Nsg229
NsssS'PAS'
p236
(dp237
g70
(dp238
g223
Nsg224
Nsg225
Nsg226
Nsg227
Nsg228
Nsg229
Nssg72
(dp239
g223
Nsg224
Nsg225
Nsg226
Nsg227
Nsg228
Nsg229
NsssS'RR'
p240
(dp241
Vtx B-tx A
p242
(dp243
g223
F1.290066368225204
sg224
F-0.4791361520088754
sg225
F0.4054651081081644
sg226
F3.633027665349979
sg227
F1.5
sg228
F0.6193181575409917
sg229
NssVtx A-tx B
p244
(dp245
g223
F0.4791361520088754
sg224
F-1.290066368225204
sg225
F-0.4054651081081644
sg226
F1.6146789623777686
sg227
F0.6666666666666666
sg228
F0.275252514462663
sg229
NsssS'YUQ'
p246
(dp247
Vtx B-tx A
p248
(dp249
g223
Nsg224
Nsg225
Nsg226
Nsg227
Nsg228
Nsg229
NssVtx A-tx B
p250
(dp251
g223
Nsg224
Nsg225
Nsg226
Nsg227
Nsg228
Nsg229
NsssS'PETO'
p252
(dp253
Vtx B-tx A
p254
(dp255
g223
Nsg224
Nsg225
Nsg226
Nsg227
Nsg228
Nsg229
NssVtx A-tx B
p256
(dp257
g223
Nsg224
Nsg225
Nsg226
Nsg227
Nsg228
Nsg229
NsssS'RD'
p258
(dp259
Vtx B-tx A
p260
(dp261
g223
Nsg224
Nsg225
Nsg226
Nsg227
Nsg228
Nsg229
NssVtx A-tx B
p262
(dp263
g223
Nsg224
Nsg225
Nsg226
Nsg227
Nsg228
Nsg229
NsssS'AS'
p264
(dp265
Vtx B-tx A
p266
(dp267
g223
Nsg224
Nsg225
Nsg226
Nsg227
Nsg228
Nsg229
NssVtx A-tx B
p268
(dp269
g223
Nsg224
Nsg225
Nsg226
Nsg227
Nsg228
Nsg229
NsssS'PFT'
p270
(dp271
g70
(dp272
g223
Nsg224
Nsg225
Nsg226
Nsg227
Nsg228
Nsg229
Nssg72
(dp273
g223
Nsg224
Nsg225
Nsg226
Nsg227
Nsg228
Nsg229
NsssS'PLO'
p274
(dp275
g70
(dp276
g223
Nsg224
Nsg225
Nsg226
Nsg227
Nsg228
Nsg229
Nssg72
(dp277
g223
Nsg224
Nsg225
Nsg226
Nsg227
Nsg228
Nsg229
NsssS'PLN'
p278
(dp279
g70
(dp280
g223
Nsg224
Nsg225
Nsg226
Nsg227
Nsg228
Nsg229
Nssg72
(dp281
g223
Nsg224
Nsg225
Nsg226
Nsg227
Nsg228
Nsg229
NsssS'OR'
p282
(dp283
Vtx B-tx A
p284
(dp285
g223
F1.7693318224137426
sg224
F-0.6501002465428974
sg225
F0.5596157879354225
sg226
F5.8669318990168495
sg227
F1.7499999999999998
sg228
F0.5219934460996893
sg229
NssVtx A-tx B
p286
(dp287
g223
F0.6501002465428976
sg224
F-1.7693318224137429
sg225
F-0.5596157879354227
sg226
F1.9157328649852905
sg227
F0.571428571428813
sg228
F0.17044683954339362
sS'display_conf_level'
p288
F95.0
sS'display_se'
p289
Nsg229
F0.6172133998483676
ssssg126
(dp290
g70
(ima_dataset
TreatmentGroup
p291
(dp292
g130
(lp293
F6.0
aF27.0
asg132
I0
sg36
g133
sbsg72
(ima_dataset
TreatmentGroup
p294
(dp295
g130
(lp296
F9.0
aF27.0
asg132
I1
sg36
g137
sbssg138
g42
sg29
I00
sg139
I2
sbsssS'manually_excluded'
p297
I00
sS'year'
p298
I1993
sS'N'
p299
Nsg132
I0
sba(ima_dataset
Study
p300
(dp301
g35
I01
sg36
VPrins
p302
sg38
(dp303
sg25
g26
sg40
(lp304
g42
ag46
asg48
(dp305
g7
(dp306
g12
(ima_dataset
MetaAnalyticUnit
p307
(dp308
g53
(dp309
g55
(dp310
Vtx B-tx A
p311
(dp312
g59
Nsg60
Nsg61
Nsg62
Nsg63
Nsg64
Nsg65
NssVtx A-tx B
p313
(dp314
g59
Nsg60
Nsg61
Nsg62
Nsg63
Nsg64
Nsg65
Nsssg68
(dp315
g70
(dp316
g59
Nsg60
Nsg61
Nsg62
Nsg63
Nsg64
Nsg65
Nssg72
(dp317
g59
Nsg60
Nsg61
Nsg62
Nsg63
Nsg64
Nsg65
Nsssg74
(dp318
g70
(dp319
g59
Nsg60
Nsg61
Nsg62
Nsg63
Nsg64
Nsg65
Nssg72
(dp320
g59
Nsg60
Nsg61
Nsg62
Nsg63
Nsg64
Nsg65
Nsssg78
(dp321
Vtx B-tx A
p322
(dp323
g59
Nsg60
Nsg61
Nsg62
Nsg63
Nsg64
Nsg65
NssVtx A-tx B
p324
(dp325
g59
F-0.15888182340073564
sg60
F-3.0879230821682104
sg61
F-1.623402452784473
sg62
F0.8530971691346033
sg63
F0.19722650231124803
sg64
F0.045596556431417815
sg65
Nsssg84
(dp326
Vtx B-tx A
p327
(dp328
g59
Nsg60
Nsg61
Nsg62
Nsg63
Nsg64
Nsg65
NssVtx A-tx B
p329
(dp330
g59
Nsg60
Nsg61
Nsg62
Nsg63
Nsg64
Nsg65
Nsssg90
(dp331
Vtx B-tx A
p332
(dp333
g59
Nsg60
Nsg61
Nsg62
Nsg63
Nsg64
Nsg65
NssVtx A-tx B
p334
(dp335
g59
Nsg60
Nsg61
Nsg62
Nsg63
Nsg64
Nsg65
Nsssg96
(dp336
Vtx B-tx A
p337
(dp338
g59
Nsg60
Nsg61
Nsg62
Nsg63
Nsg64
Nsg65
NssVtx A-tx B
p339
(dp340
g59
Nsg60
Nsg61
Nsg62
Nsg63
Nsg64
Nsg65
Nsssg102
(dp341
Vtx B-tx A
p342
(dp343
g59
Nsg60
Nsg61
Nsg62
Nsg63
Nsg64
Nsg65
NssVtx A-tx B
p344
(dp345
g59
Nsg60
Nsg61
Nsg62
Nsg63
Nsg64
Nsg65
Nsssg108
(dp346
g70
(dp347
g59
Nsg60
Nsg61
Nsg62
Nsg63
Nsg64
Nsg65
Nssg72
(dp348
g59
Nsg60
Nsg61
Nsg62
Nsg63
Nsg64
Nsg65
Nsssg112
(dp349
g70
(dp350
g59
Nsg60
Nsg61
Nsg62
Nsg63
Nsg64
Nsg65
Nssg72
(dp351
g59
Nsg60
Nsg61
Nsg62
Nsg63
Nsg64
Nsg65
Nsssg116
(dp352
g70
(dp353
g59
Nsg60
Nsg61
Nsg62
Nsg63
Nsg64
Nsg65
Nssg72
(dp354
g59
Nsg60
Nsg61
Nsg62
Nsg63
Nsg64
Nsg65
Nsssg120
(dp355
Vtx B-tx A
p356
(dp357
g59
F3.3298692951266005
sg60
F0.2251455979151067
sg61
F1.7775074465208536
sg62
F27.934690264456812
sg63
F5.915094339622642
sg64
F1.2525050650428668
sg65
NssVtx A-tx B
p358
(dp359
g59
F-0.2251455979151067
sg60
F-3.3298692951266005
sg61
F-1.7775074465208536
sg62
F0.7983999649261101
sg63
F0.16905901116427433
sg64
F0.035797783706675544
sg65
Nssssg126
(dp360
g70
(ima_dataset
TreatmentGroup
p361
(dp362
g130
(lp363
F2.0
aF59.0
asg132
I0
sg36
g133
sbsg72
(ima_dataset
TreatmentGroup
p364
(dp365
g130
(lp366
F11.0
aF64.0
asg132
I1
sg36
g137
sbssg138
g46
sg29
I00
sg139
I2
sbssg18
(dp367
N(ima_dataset
MetaAnalyticUnit
p368
(dp369
g29
I00
sg126
(dp370
g144
(ima_dataset
TreatmentGroup
p371
(dp372
g130
(lp373
g26
ag26
asg132
I0
sg36
g144
sbsg148
(ima_dataset
TreatmentGroup
p374
(dp375
g130
(lp376
g26
ag26
asg132
I1
sg36
g148
sbssg138
g42
sg53
(dp377
g153
(dp378
S'tx B-tx A'
p379
(dp380
g157
Nsg158
Nsg159
Nsg160
Nsg161
Nsg162
Nsg163
NssS'tx A-tx B'
p381
(dp382
g157
Nsg158
Nsg159
Nsg160
Nsg161
Nsg162
Nsg163
Nsssg166
(dp383
g144
(dp384
g157
Nsg158
Nsg159
Nsg160
Nsg161
Nsg162
Nsg163
Nssg148
(dp385
g157
Nsg158
Nsg159
Nsg160
Nsg161
Nsg162
Nsg163
Nsssg170
(dp386
g144
(dp387
g157
Nsg158
Nsg159
Nsg160
Nsg161
Nsg162
Nsg163
Nssg148
(dp388
g157
Nsg158
Nsg159
Nsg160
Nsg161
Nsg162
Nsg163
Nsssg174
(dp389
S'tx B-tx A'
p390
(dp391
g157
Nsg158
Nsg159
Nsg160
Nsg161
Nsg162
Nsg163
NssS'tx A-tx B'
p392
(dp393
g157
Nsg158
Nsg159
Nsg160
Nsg161
Nsg162
Nsg163
Nsssg180
(dp394
S'tx B-tx A'
p395
(dp396
g157
Nsg158
Nsg159
Nsg160
Nsg161
Nsg162
Nsg163
NssS'tx A-tx B'
p397
(dp398
g157
Nsg158
Nsg159
Nsg160
Nsg161
Nsg162
Nsg163
Nsssg186
(dp399
S'tx B-tx A'
p400
(dp401
g157
Nsg158
Nsg159
Nsg160
Nsg161
Nsg162
Nsg163
NssS'tx A-tx B'
p402
(dp403
g157
Nsg158
Nsg159
Nsg160
Nsg161
Nsg162
Nsg163
Nsssg192
(dp404
S'tx B-tx A'
p405
(dp406
g157
Nsg158
Nsg159
Nsg160
Nsg161
Nsg162
Nsg163
NssS'tx A-tx B'
p407
(dp408
g157
Nsg158
Nsg159
Nsg160
Nsg161
Nsg162
Nsg163
Nsssg198
(dp409
g144
(dp410
g157
Nsg158
Nsg159
Nsg160
Nsg161
Nsg162
Nsg163
Nssg148
(dp411
g157
Nsg158
Nsg159
Nsg160
Nsg161
Nsg162
Nsg163
Nsssg202
(dp412
g144
(dp413
g157
Nsg158
Nsg159
Nsg160
Nsg161
Nsg162
Nsg163
Nssg148
(dp414
g157
Nsg158
Nsg159
Nsg160
Nsg161
Nsg162
Nsg163
Nsssg206
(dp415
g144
(dp416
g157
Nsg158
Nsg159
Nsg160
Nsg161
Nsg162
Nsg163
Nssg148
(dp417
g157
Nsg158
Nsg159
Nsg160
Nsg161
Nsg162
Nsg163
Nsssg210
(dp418
S'tx B-tx A'
p419
(dp420
g157
Nsg158
Nsg159
Nsg160
Nsg161
Nsg162
Nsg163
NssS'tx A-tx B'
p421
(dp422
g157
Nsg158
Nsg159
Nsg160
Nsg161
Nsg162
Nsg163
Nssssg139
I2
sbsg20
(ima_dataset
MetaAnalyticUnit
p423
(dp424
g53
(dp425
g219
(dp426
Vtx B-tx A
p427
(dp428
g223
Nsg224
Nsg225
Nsg226
Nsg227
Nsg228
Nsg229
NssVtx A-tx B
p429
(dp430
g223
Nsg224
Nsg225
Nsg226
Nsg227
Nsg228
Nsg229
Nsssg232
(dp431
g70
(dp432
g223
Nsg224
Nsg225
Nsg226
Nsg227
Nsg228
Nsg229
Nssg72
(dp433
g223
Nsg224
Nsg225
Nsg226
Nsg227
Nsg228
Nsg229
Nsssg236
(dp434
g70
(dp435
g223
Nsg224
Nsg225
Nsg226
Nsg227
Nsg228
Nsg229
Nssg72
(dp436
g223
Nsg224
Nsg225
Nsg226
Nsg227
Nsg228
Nsg229
Nsssg240
(dp437
Vtx B-tx A
p438
(dp439
g223
F2.0713769945153624
sg224
F-0.5394725526488597
sg225
F0.7659522209332512
sg226
F7.9357430724513245
sg227
F2.1510416666666665
sg228
F0.5830557024708278
sg229
NssVtx A-tx B
p440
(dp441
g223
F0.5394725526488597
sg224
F-2.0713769945153624
sg225
F-0.7659522209332512
sg226
F1.7151019975660615
sg227
F0.4648910411622276
sg228
F0.12601214415212958
sg229
Nsssg246
(dp442
Vtx B-tx A
p443
(dp444
g223
Nsg224
Nsg225
Nsg226
Nsg227
Nsg228
Nsg229
NssVtx A-tx B
p445
(dp446
g223
Nsg224
Nsg225
Nsg226
Nsg227
Nsg228
Nsg229
Nsssg252
(dp447
Vtx B-tx A
p448
(dp449
g223
Nsg224
Nsg225
Nsg226
Nsg227
Nsg228
Nsg229
NssVtx A-tx B
p450
(dp451
g223
Nsg224
Nsg225
Nsg226
Nsg227
Nsg228
Nsg229
Nsssg258
(dp452
Vtx B-tx A
p453
(dp454
g223
Nsg224
Nsg225
Nsg226
Nsg227
Nsg228
Nsg229
NssVtx A-tx B
p455
(dp456
g223
Nsg224
Nsg225
Nsg226
Nsg227
Nsg228
Nsg229
Nsssg264
(dp457
Vtx B-tx A
p458
(dp459
g223
Nsg224
Nsg225
Nsg226
Nsg227
Nsg228
Nsg229
NssVtx A-tx B
p460
(dp461
g223
Nsg224
Nsg225
Nsg226
Nsg227
Nsg228
Nsg229
Nsssg270
(dp462
g70
(dp463
g223
Nsg224
Nsg225
Nsg226
Nsg227
Nsg228
Nsg229
Nssg72
(dp464
g223
Nsg224
Nsg225
Nsg226
Nsg227
Nsg228
Nsg229
Nsssg274
(dp465
g70
(dp466
g223
Nsg224
Nsg225
Nsg226
Nsg227
Nsg228
Nsg229
Nssg72
(dp467
g223
Nsg224
Nsg225
Nsg226
Nsg227
Nsg228
Nsg229
Nsssg278
(dp468
g70
(dp469
g223
Nsg224
Nsg225
Nsg226
Nsg227
Nsg228
Nsg229
Nssg72
(dp470
g223
Nsg224
Nsg225
Nsg226
Nsg227
Nsg228
Nsg229
Nsssg282
(dp471
Vtx B-tx A
p472
(dp473
g223
F2.2314747394819814
sg224
F-0.5722781729063757
sg225
F0.8295982832878028
sg226
F9.31359107707857
sg227
F2.2923976608187138
sg228
F0.5642385404122224
sg229
NssVtx A-tx B
p474
(dp475
g223
F0.5722781729063757
sg224
F-2.2314747394819814
sg225
F-0.8295982832878028
sg226
F1.7723000617239695
sg227
F0.4362244897958323
sg228
F0.10736997058664674
sg288
F95.0
sg289
Nsg229
F0.7152562328961152
ssssg126
(dp476
g70
(ima_dataset
TreatmentGroup
p477
(dp478
g130
(lp479
F3.0
aF59.0
asg132
I0
sg36
g133
sbsg72
(ima_dataset
TreatmentGroup
p480
(dp481
g130
(lp482
F7.0
aF64.0
asg132
I1
sg36
g137
sbssg138
g42
sg29
I00
sg139
I2
sbsssg297
I00
sg298
I1993
sg299
Nsg132
I1
sba(ima_dataset
Study
p483
(dp484
g35
I01
sg36
VGiamarellou
p485
sg38
(dp486
sg25
g26
sg40
(lp487
g42
ag46
asg48
(dp488
g7
(dp489
g12
(ima_dataset
MetaAnalyticUnit
p490
(dp491
g53
(dp492
g55
(dp493
Vtx B-tx A
p494
(dp495
g59
Nsg60
Nsg61
Nsg62
Nsg63
Nsg64
Nsg65
NssVtx A-tx B
p496
(dp497
g59
Nsg60
Nsg61
Nsg62
Nsg63
Nsg64
Nsg65
Nsssg68
(dp498
g70
(dp499
g59
Nsg60
Nsg61
Nsg62
Nsg63
Nsg64
Nsg65
Nssg72
(dp500
g59
Nsg60
Nsg61
Nsg62
Nsg63
Nsg64
Nsg65
Nsssg74
(dp501
g70
(dp502
g59
Nsg60
Nsg61
Nsg62
Nsg63
Nsg64
Nsg65
Nssg72
(dp503
g59
Nsg60
Nsg61
Nsg62
Nsg63
Nsg64
Nsg65
Nsssg78
(dp504
Vtx B-tx A
p505
(dp506
g59
Nsg60
Nsg61
Nsg62
Nsg63
Nsg64
Nsg65
NssVtx A-tx B
p507
(dp508
g59
F3.304478975380136
sg60
F-1.1072543980439158
sg61
F1.09861228866811
sg62
F27.234348125670888
sg63
F3.000000000000001
sg64
F0.33046504210308875
sg65
Nsssg84
(dp509
Vtx B-tx A
p510
(dp511
g59
Nsg60
Nsg61
Nsg62
Nsg63
Nsg64
Nsg65
NssVtx A-tx B
p512
(dp513
g59
Nsg60
Nsg61
Nsg62
Nsg63
Nsg64
Nsg65
Nsssg90
(dp514
Vtx B-tx A
p515
(dp516
g59
Nsg60
Nsg61
Nsg62
Nsg63
Nsg64
Nsg65
NssVtx A-tx B
p517
(dp518
g59
Nsg60
Nsg61
Nsg62
Nsg63
Nsg64
Nsg65
Nsssg96
(dp519
Vtx B-tx A
p520
(dp521
g59
Nsg60
Nsg61
Nsg62
Nsg63
Nsg64
Nsg65
NssVtx A-tx B
p522
(dp523
g59
Nsg60
Nsg61
Nsg62
Nsg63
Nsg64
Nsg65
Nsssg102
(dp524
Vtx B-tx A
p525
(dp526
g59
Nsg60
Nsg61
Nsg62
Nsg63
Nsg64
Nsg65
NssVtx A-tx B
p527
(dp528
g59
Nsg60
Nsg61
Nsg62
Nsg63
Nsg64
Nsg65
Nsssg108
(dp529
g70
(dp530
g59
Nsg60
Nsg61
Nsg62
Nsg63
Nsg64
Nsg65
Nssg72
(dp531
g59
Nsg60
Nsg61
Nsg62
Nsg63
Nsg64
Nsg65
Nsssg112
(dp532
g70
(dp533
g59
Nsg60
Nsg61
Nsg62
Nsg63
Nsg64
Nsg65
Nssg72
(dp534
g59
Nsg60
Nsg61
Nsg62
Nsg63
Nsg64
Nsg65
Nsssg116
(dp535
g70
(dp536
g59
Nsg60
Nsg61
Nsg62
Nsg63
Nsg64
Nsg65
Nssg72
(dp537
g59
Nsg60
Nsg61
Nsg62
Nsg63
Nsg64
Nsg65
Nsssg120
(dp538
Vtx B-tx A
p539
(dp540
g59
F1.153005466733426
sg60
F-3.493147972033936
sg61
F-1.170071252650255
sg62
F3.167699031428309
sg63
F0.3103448275862068
sg64
F0.030405007247827034
sg65
NssVtx A-tx B
p541
(dp542
g59
F3.493147972033936
sg60
F-1.153005466733426
sg61
F1.170071252650255
sg62
F32.88931957322481
sg63
F3.2222222222222237
sg64
F0.3156865567336118
sg65
Nssssg126
(dp543
g70
(ima_dataset
TreatmentGroup
p544
(dp545
g130
(lp546
F3.0
aF30.0
asg132
I0
sg36
g133
sbsg72
(ima_dataset
TreatmentGroup
p547
(dp548
g130
(lp549
F1.0
aF30.0
asg132
I1
sg36
g137
sbssg138
g46
sg29
I00
sg139
I2
sbssg18
(dp550
N(ima_dataset
MetaAnalyticUnit
p551
(dp552
g29
I00
sg126
(dp553
g144
(ima_dataset
TreatmentGroup
p554
(dp555
g130
(lp556
g26
ag26
asg132
I0
sg36
g144
sbsg148
(ima_dataset
TreatmentGroup
p557
(dp558
g130
(lp559
g26
ag26
asg132
I1
sg36
g148
sbssg138
g42
sg53
(dp560
g153
(dp561
S'tx B-tx A'
p562
(dp563
g157
Nsg158
Nsg159
Nsg160
Nsg161
Nsg162
Nsg163
NssS'tx A-tx B'
p564
(dp565
g157
Nsg158
Nsg159
Nsg160
Nsg161
Nsg162
Nsg163
Nsssg166
(dp566
g144
(dp567
g157
Nsg158
Nsg159
Nsg160
Nsg161
Nsg162
Nsg163
Nssg148
(dp568
g157
Nsg158
Nsg159
Nsg160
Nsg161
Nsg162
Nsg163
Nsssg170
(dp569
g144
(dp570
g157
Nsg158
Nsg159
Nsg160
Nsg161
Nsg162
Nsg163
Nssg148
(dp571
g157
Nsg158
Nsg159
Nsg160
Nsg161
Nsg162
Nsg163
Nsssg174
(dp572
S'tx B-tx A'
p573
(dp574
g157
Nsg158
Nsg159
Nsg160
Nsg161
Nsg162
Nsg163
NssS'tx A-tx B'
p575
(dp576
g157
Nsg158
Nsg159
Nsg160
Nsg161
Nsg162
Nsg163
Nsssg180
(dp577
S'tx B-tx A'
p578
(dp579
g157
Nsg158
Nsg159
Nsg160
Nsg161
Nsg162
Nsg163
NssS'tx A-tx B'
p580
(dp581
g157
Nsg158
Nsg159
Nsg160
Nsg161
Nsg162
Nsg163
Nsssg186
(dp582
S'tx B-tx A'
p583
(dp584
g157
Nsg158
Nsg159
Nsg160
Nsg161
Nsg162
Nsg163
NssS'tx A-tx B'
p585
(dp586
g157
Nsg158
Nsg159
Nsg160
Nsg161
Nsg162
Nsg163
Nsssg192
(dp587
S'tx B-tx A'
p588
(dp589
g157
Nsg158
Nsg159
Nsg160
Nsg161
Nsg162
Nsg163
NssS'tx A-tx B'
p590
(dp591
g157
Nsg158
Nsg159
Nsg160
Nsg161
Nsg162
Nsg163
Nsssg198
(dp592
g144
(dp593
g157
Nsg158
Nsg159
Nsg160
Nsg161
Nsg162
Nsg163
Nssg148
(dp594
g157
Nsg158
Nsg159
Nsg160
Nsg161
Nsg162
Nsg163
Nsssg202
(dp595
g144
(dp596
g157
Nsg158
Nsg159
Nsg160
Nsg161
Nsg162
Nsg163
Nssg148
(dp597
g157
Nsg158
Nsg159
Nsg160
Nsg161
Nsg162
Nsg163
Nsssg206
(dp598
g144
(dp599
g157
Nsg158
Nsg159
Nsg160
Nsg161
Nsg162
Nsg163
Nssg148
(dp600
g157
Nsg158
Nsg159
Nsg160
Nsg161
Nsg162
Nsg163
Nsssg210
(dp601
S'tx B-tx A'
p602
(dp603
g157
Nsg158
Nsg159
Nsg160
Nsg161
Nsg162
Nsg163
NssS'tx A-tx B'
p604
(dp605
g157
Nsg158
Nsg159
Nsg160
Nsg161
Nsg162
Nsg163
Nssssg139
I2
sbsg20
(ima_dataset
MetaAnalyticUnit
p606
(dp607
g53
(dp608
g219
(dp609
Vtx B-tx A
p610
(dp611
g223
Nsg224
Nsg225
Nsg226
Nsg227
Nsg228
Nsg229
NssVtx A-tx B
p612
(dp613
g223
Nsg224
Nsg225
Nsg226
Nsg227
Nsg228
Nsg229
Nsssg232
(dp614
g70
(dp615
g223
Nsg224
Nsg225
Nsg226
Nsg227
Nsg228
Nsg229
Nssg72
(dp616
g223
Nsg224
Nsg225
Nsg226
Nsg227
Nsg228
Nsg229
Nsssg236
(dp617
g70
(dp618
g223
Nsg224
Nsg225
Nsg226
Nsg227
Nsg228
Nsg229
Nssg72
(dp619
g223
Nsg224
Nsg225
Nsg226
Nsg227
Nsg228
Nsg229
Nsssg240
(dp620
Vtx B-tx A
p621
(dp622
g223
F5.24982946677064
sg224
F-0.4540389211738991
sg225
F2.3978952727983707
sg226
F190.53377334828946
sg227
F11.000000000000002
sg228
F0.6350580155614509
sg229
NssVtx A-tx B
p623
(dp624
g223
F0.4540389211738991
sg224
F-5.24982946677064
sg225
F-2.3978952727983707
sg226
F1.5746592838701612
sg227
F0.0909090909090909
sg228
F0.005248413351747529
sg229
Nsssg246
(dp625
Vtx B-tx A
p626
(dp627
g223
Nsg224
Nsg225
Nsg226
Nsg227
Nsg228
Nsg229
NssVtx A-tx B
p628
(dp629
g223
Nsg224
Nsg225
Nsg226
Nsg227
Nsg228
Nsg229
Nsssg252
(dp630
Vtx B-tx A
p631
(dp632
g223
Nsg224
Nsg225
Nsg226
Nsg227
Nsg228
Nsg229
NssVtx A-tx B
p633
(dp634
g223
Nsg224
Nsg225
Nsg226
Nsg227
Nsg228
Nsg229
Nsssg258
(dp635
Vtx B-tx A
p636
(dp637
g223
Nsg224
Nsg225
Nsg226
Nsg227
Nsg228
Nsg229
NssVtx A-tx B
p638
(dp639
g223
Nsg224
Nsg225
Nsg226
Nsg227
Nsg228
Nsg229
Nsssg264
(dp640
Vtx B-tx A
p641
(dp642
g223
Nsg224
Nsg225
Nsg226
Nsg227
Nsg228
Nsg229
NssVtx A-tx B
p643
(dp644
g223
Nsg224
Nsg225
Nsg226
Nsg227
Nsg228
Nsg229
Nsssg270
(dp645
g70
(dp646
g223
Nsg224
Nsg225
Nsg226
Nsg227
Nsg228
Nsg229
Nssg72
(dp647
g223
Nsg224
Nsg225
Nsg226
Nsg227
Nsg228
Nsg229
Nsssg274
(dp648
g70
(dp649
g223
Nsg224
Nsg225
Nsg226
Nsg227
Nsg228
Nsg229
Nssg72
(dp650
g223
Nsg224
Nsg225
Nsg226
Nsg227
Nsg228
Nsg229
Nsssg278
(dp651
g70
(dp652
g223
Nsg224
Nsg225
Nsg226
Nsg227
Nsg228
Nsg229
Nssg72
(dp653
g223
Nsg224
Nsg225
Nsg226
Nsg227
Nsg228
Nsg229
Nsssg282
(dp654
Vtx B-tx A
p655
(dp656
g223
F5.519384601903521
sg224
F-0.3654975934088083
sg225
F2.5769435042473563
sg226
F249.48145952354145
sg227
F13.156862745098042
sg228
F0.6938513091271002
sg229
NssVtx A-tx B
p657
(dp658
g223
F0.3654975934088083
sg224
F-5.519384601903521
sg225
F-2.5769435042473563
sg226
F1.4412309767898859
sg227
F0.07600596125166194
sg228
F0.00400831389199549
sg288
F95.0
sg289
Nsg229
F1.5012730442323252
ssssg126
(dp659
g70
(ima_dataset
TreatmentGroup
p660
(dp661
g130
(lp662
F0.0
aF30.0
asg132
I0
sg36
g133
sbsg72
(ima_dataset
TreatmentGroup
p663
(dp664
g130
(lp665
F5.0
aF30.0
asg132
I1
sg36
g137
sbssg138
g42
sg29
I00
sg139
I2
sbsssg297
I00
sg298
I1991
sg299
Nsg132
I2
sba(ima_dataset
Study
p666
(dp667
g35
I01
sg36
VMaller
p668
sg38
(dp669
sg25
g26
sg40
(lp670
g42
ag46
asg48
(dp671
g7
(dp672
g12
(ima_dataset
MetaAnalyticUnit
p673
(dp674
g53
(dp675
g55
(dp676
Vtx B-tx A
p677
(dp678
g59
Nsg60
Nsg61
Nsg62
Nsg63
Nsg64
Nsg65
NssVtx A-tx B
p679
(dp680
g59
Nsg60
Nsg61
Nsg62
Nsg63
Nsg64
Nsg65
Nsssg68
(dp681
g70
(dp682
g59
Nsg60
Nsg61
Nsg62
Nsg63
Nsg64
Nsg65
Nssg72
(dp683
g59
Nsg60
Nsg61
Nsg62
Nsg63
Nsg64
Nsg65
Nsssg74
(dp684
g70
(dp685
g59
Nsg60
Nsg61
Nsg62
Nsg63
Nsg64
Nsg65
Nssg72
(dp686
g59
Nsg60
Nsg61
Nsg62
Nsg63
Nsg64
Nsg65
Nsssg78
(dp687
Vtx B-tx A
p688
(dp689
g59
Nsg60
Nsg61
Nsg62
Nsg63
Nsg64
Nsg65
NssVtx A-tx B
p690
(dp691
g59
F0.5761950858475995
sg60
F-1.1295082907277463
sg61
F-0.2766566024400734
sg62
F1.7792556200375218
sg63
F0.7583148558758314
sg64
F0.32319213392725216
sg65
Nsssg84
(dp692
Vtx B-tx A
p693
(dp694
g59
Nsg60
Nsg61
Nsg62
Nsg63
Nsg64
Nsg65
NssVtx A-tx B
p695
(dp696
g59
Nsg60
Nsg61
Nsg62
Nsg63
Nsg64
Nsg65
Nsssg90
(dp697
Vtx B-tx A
p698
(dp699
g59
Nsg60
Nsg61
Nsg62
Nsg63
Nsg64
Nsg65
NssVtx A-tx B
p700
(dp701
g59
Nsg60
Nsg61
Nsg62
Nsg63
Nsg64
Nsg65
Nsssg96
(dp702
Vtx B-tx A
p703
(dp704
g59
Nsg60
Nsg61
Nsg62
Nsg63
Nsg64
Nsg65
NssVtx A-tx B
p705
(dp706
g59
Nsg60
Nsg61
Nsg62
Nsg63
Nsg64
Nsg65
Nsssg102
(dp707
Vtx B-tx A
p708
(dp709
g59
Nsg60
Nsg61
Nsg62
Nsg63
Nsg64
Nsg65
NssVtx A-tx B
p710
(dp711
g59
Nsg60
Nsg61
Nsg62
Nsg63
Nsg64
Nsg65
Nsssg108
(dp712
g70
(dp713
g59
Nsg60
Nsg61
Nsg62
Nsg63
Nsg64
Nsg65
Nssg72
(dp714
g59
Nsg60
Nsg61
Nsg62
Nsg63
Nsg64
Nsg65
Nsssg112
(dp715
g70
(dp716
g59
Nsg60
Nsg61
Nsg62
Nsg63
Nsg64
Nsg65
Nssg72
(dp717
g59
Nsg60
Nsg61
Nsg62
Nsg63
Nsg64
Nsg65
Nsssg116
(dp718
g70
(dp719
g59
Nsg60
Nsg61
Nsg62
Nsg63
Nsg64
Nsg65
Nssg72
(dp720
g59
Nsg60
Nsg61
Nsg62
Nsg63
Nsg64
Nsg65
Nsssg120
(dp721
Vtx B-tx A
p722
(dp723
g59
F1.2053250873799186
sg60
F-0.6146532433734598
sg61
F0.29533592200322945
sg62
F3.3378439926699914
sg63
F1.3435776201733647
sg64
F0.5408283986294743
sg65
NssVtx A-tx B
p724
(dp725
g59
F0.61465324337346
sg60
F-1.2053250873799188
sg61
F-0.29533592200322945
sg62
F1.8490153300642556
sg63
F0.7442815249266863
sg64
F0.2995945892606217
sg65
Nssssg126
(dp726
g70
(ima_dataset
TreatmentGroup
p727
(dp728
g130
(lp729
F9.0
aF164.0
asg132
I0
sg36
g133
sbsg72
(ima_dataset
TreatmentGroup
p730
(dp731
g130
(lp732
F11.0
aF152.0
asg132
I1
sg36
g137
sbssg138
g46
sg29
I00
sg139
I2
sbssg18
(dp733
N(ima_dataset
MetaAnalyticUnit
p734
(dp735
g29
I00
sg126
(dp736
g144
(ima_dataset
TreatmentGroup
p737
(dp738
g130
(lp739
g26
ag26
asg132
I0
sg36
g144
sbsg148
(ima_dataset
TreatmentGroup
p740
(dp741
g130
(lp742
g26
ag26
asg132
I1
sg36
g148
sbssg138
g42
sg53
(dp743
g153
(dp744
S'tx B-tx A'
p745
(dp746
g157
Nsg158
Nsg159
Nsg160
Nsg161
Nsg162
Nsg163
NssS'tx A-tx B'
p747
(dp748
g157
Nsg158
Nsg159
Nsg160
Nsg161
Nsg162
Nsg163
Nsssg166
(dp749
g144
(dp750
g157
Nsg158
Nsg159
Nsg160
Nsg161
Nsg162
Nsg163
Nssg148
(dp751
g157
Nsg158
Nsg159
Nsg160
Nsg161
Nsg162
Nsg163
Nsssg170
(dp752
g144
(dp753
g157
Nsg158
Nsg159
Nsg160
Nsg161
Nsg162
Nsg163
Nssg148
(dp754
g157
Nsg158
Nsg159
Nsg160
Nsg161
Nsg162
Nsg163
Nsssg174
(dp755
S'tx B-tx A'
p756
(dp757
g157
Nsg158
Nsg159
Nsg160
Nsg161
Nsg162
Nsg163
NssS'tx A-tx B'
p758
(dp759
g157
Nsg158
Nsg159
Nsg160
Nsg161
Nsg162
Nsg163
Nsssg180
(dp760
S'tx B-tx A'
p761
(dp762
g157
Nsg158
Nsg159
Nsg160
Nsg161
Nsg162
Nsg163
NssS'tx A-tx B'
p763
(dp764
g157
Nsg158
Nsg159
Nsg160
Nsg161
Nsg162
Nsg163
Nsssg186
(dp765
S'tx B-tx A'
p766
(dp767
g157
Nsg158
Nsg159
Nsg160
Nsg161
Nsg162
Nsg163
NssS'tx A-tx B'
p768
(dp769
g157
Nsg158
Nsg159
Nsg160
Nsg161
Nsg162
Nsg163
Nsssg192
(dp770
S'tx B-tx A'
p771
(dp772
g157
Nsg158
Nsg159
Nsg160
Nsg161
Nsg162
Nsg163
NssS'tx A-tx B'
p773
(dp774
g157
Nsg158
Nsg159
Nsg160
Nsg161
Nsg162
Nsg163
Nsssg198
(dp775
g144
(dp776
g157
Nsg158
Nsg159
Nsg160
Nsg161
Nsg162
Nsg163
Nssg148
(dp777
g157
Nsg158
Nsg159
Nsg160
Nsg161
Nsg162
Nsg163
Nsssg202
(dp778
g144
(dp779
g157
Nsg158
Nsg159
Nsg160
Nsg161
Nsg162
Nsg163
Nssg148
(dp780
g157
Nsg158
Nsg159
Nsg160
Nsg161
Nsg162
Nsg163
Nsssg206
(dp781
g144
(dp782
g157
Nsg158
Nsg159
Nsg160
Nsg161
Nsg162
Nsg163
Nssg148
(dp783
g157
Nsg158
Nsg159
Nsg160
Nsg161
Nsg162
Nsg163
Nsssg210
(dp784
S'tx B-tx A'
p785
(dp786
g157
Nsg158
Nsg159
Nsg160
Nsg161
Nsg162
Nsg163
NssS'tx A-tx B'
p787
(dp788
g157
Nsg158
Nsg159
Nsg160
Nsg161
Nsg162
Nsg163
Nssssg139
I2
sbsg20
(ima_dataset
MetaAnalyticUnit
p789
(dp790
g53
(dp791
g219
(dp792
Vtx B-tx A
p793
(dp794
g223
Nsg224
Nsg225
Nsg226
Nsg227
Nsg228
Nsg229
NssVtx A-tx B
p795
(dp796
g223
Nsg224
Nsg225
Nsg226
Nsg227
Nsg228
Nsg229
Nsssg232
(dp797
g70
(dp798
g223
Nsg224
Nsg225
Nsg226
Nsg227
Nsg228
Nsg229
Nssg72
(dp799
g223
Nsg224
Nsg225
Nsg226
Nsg227
Nsg228
Nsg229
Nsssg236
(dp800
g70
(dp801
g223
Nsg224
Nsg225
Nsg226
Nsg227
Nsg228
Nsg229
Nssg72
(dp802
g223
Nsg224
Nsg225
Nsg226
Nsg227
Nsg228
Nsg229
Nsssg240
(dp803
Vtx B-tx A
p804
(dp805
g223
F0.3665579173351251
sg224
F-0.9735653467890885
sg225
F-0.3035037147269817
sg226
F1.4427599589425772
sg227
F0.7382271468144045
sg228
F0.3777338821443039
sg229
NssVtx A-tx B
p806
(dp807
g223
F0.9735653467890885
sg224
F-0.3665579173351251
sg225
F0.3035037147269817
sg226
F2.647366432482153
sg227
F1.3545966228893058
sg228
F0.6931159918888493
sg229
Nsssg246
(dp808
Vtx B-tx A
p809
(dp810
g223
Nsg224
Nsg225
Nsg226
Nsg227
Nsg228
Nsg229
NssVtx A-tx B
p811
(dp812
g223
Nsg224
Nsg225
Nsg226
Nsg227
Nsg228
Nsg229
Nsssg252
(dp813
Vtx B-tx A
p814
(dp815
g223
Nsg224
Nsg225
Nsg226
Nsg227
Nsg228
Nsg229
NssVtx A-tx B
p816
(dp817
g223
Nsg224
Nsg225
Nsg226
Nsg227
Nsg228
Nsg229
Nsssg258
(dp818
Vtx B-tx A
p819
(dp820
g223
Nsg224
Nsg225
Nsg226
Nsg227
Nsg228
Nsg229
NssVtx A-tx B
p821
(dp822
g223
Nsg224
Nsg225
Nsg226
Nsg227
Nsg228
Nsg229
Nsssg264
(dp823
Vtx B-tx A
p824
(dp825
g223
Nsg224
Nsg225
Nsg226
Nsg227
Nsg228
Nsg229
NssVtx A-tx B
p826
(dp827
g223
Nsg224
Nsg225
Nsg226
Nsg227
Nsg228
Nsg229
Nsssg270
(dp828
g70
(dp829
g223
Nsg224
Nsg225
Nsg226
Nsg227
Nsg228
Nsg229
Nssg72
(dp830
g223
Nsg224
Nsg225
Nsg226
Nsg227
Nsg228
Nsg229
Nsssg274
(dp831
g70
(dp832
g223
Nsg224
Nsg225
Nsg226
Nsg227
Nsg228
Nsg229
Nssg72
(dp833
g223
Nsg224
Nsg225
Nsg226
Nsg227
Nsg228
Nsg229
Nsssg278
(dp834
g70
(dp835
g223
Nsg224
Nsg225
Nsg226
Nsg227
Nsg228
Nsg229
Nssg72
(dp836
g223
Nsg224
Nsg225
Nsg226
Nsg227
Nsg228
Nsg229
Nsssg282
(dp837
Vtx B-tx A
p838
(dp839
g223
F0.4056080497070301
sg224
F-1.0800676745370725
sg225
F-0.33722981241502126
sg226
F1.5002144277232543
sg227
F0.7137447936387731
sg228
F0.3395725444525788
sg229
NssVtx A-tx B
p840
(dp841
g223
F1.0800676745370728
sg224
F-0.40560804970703024
sg225
F0.33722981241502126
sg226
F2.944878837642827
sg227
F1.40106100795753
sg228
F0.6665713790778853
sg288
F95.0
sg289
Nsg229
F0.3790058735678114
ssssg126
(dp842
g70
(ima_dataset
TreatmentGroup
p843
(dp844
g130
(lp845
F19.0
aF164.0
asg132
I0
sg36
g133
sbsg72
(ima_dataset
TreatmentGroup
p846
(dp847
g130
(lp848
F13.0
aF152.0
asg132
I1
sg36
g137
sbssg138
g42
sg29
I00
sg139
I2
sbsssg297
I00
sg298
I1993
sg299
Nsg132
I3
sba(ima_dataset
Study
p849
(dp850
g35
I01
sg36
VSturm
p851
sg38
(dp852
sg25
g26
sg40
(lp853
g42
ag46
asg48
(dp854
g7
(dp855
g12
(ima_dataset
MetaAnalyticUnit
p856
(dp857
g53
(dp858
g55
(dp859
Vtx B-tx A
p860
(dp861
g59
Nsg60
Nsg61
Nsg62
Nsg63
Nsg64
Nsg65
NssVtx A-tx B
p862
(dp863
g59
Nsg60
Nsg61
Nsg62
Nsg63
Nsg64
Nsg65
Nsssg68
(dp864
g70
(dp865
g59
Nsg60
Nsg61
Nsg62
Nsg63
Nsg64
Nsg65
Nssg72
(dp866
g59
Nsg60
Nsg61
Nsg62
Nsg63
Nsg64
Nsg65
Nsssg74
(dp867
g70
(dp868
g59
Nsg60
Nsg61
Nsg62
Nsg63
Nsg64
Nsg65
Nssg72
(dp869
g59
Nsg60
Nsg61
Nsg62
Nsg63
Nsg64
Nsg65
Nsssg78
(dp870
Vtx B-tx A
p871
(dp872
g59
Nsg60
Nsg61
Nsg62
Nsg63
Nsg64
Nsg65
NssVtx A-tx B
p873
(dp874
g59
F4.266615408265285
sg60
F-2.069390830929067
sg61
F1.0986122886681091
sg62
F71.27997327732771
sg63
F2.9999999999999982
sg64
F0.1262626735981487
sg65
Nsssg84
(dp875
Vtx B-tx A
p876
(dp877
g59
Nsg60
Nsg61
Nsg62
Nsg63
Nsg64
Nsg65
NssVtx A-tx B
p878
(dp879
g59
Nsg60
Nsg61
Nsg62
Nsg63
Nsg64
Nsg65
Nsssg90
(dp880
Vtx B-tx A
p881
(dp882
g59
Nsg60
Nsg61
Nsg62
Nsg63
Nsg64
Nsg65
NssVtx A-tx B
p883
(dp884
g59
Nsg60
Nsg61
Nsg62
Nsg63
Nsg64
Nsg65
Nsssg96
(dp885
Vtx B-tx A
p886
(dp887
g59
Nsg60
Nsg61
Nsg62
Nsg63
Nsg64
Nsg65
NssVtx A-tx B
p888
(dp889
g59
Nsg60
Nsg61
Nsg62
Nsg63
Nsg64
Nsg65
Nsssg102
(dp890
Vtx B-tx A
p891
(dp892
g59
Nsg60
Nsg61
Nsg62
Nsg63
Nsg64
Nsg65
NssVtx A-tx B
p893
(dp894
g59
Nsg60
Nsg61
Nsg62
Nsg63
Nsg64
Nsg65
Nsssg108
(dp895
g70
(dp896
g59
Nsg60
Nsg61
Nsg62
Nsg63
Nsg64
Nsg65
Nssg72
(dp897
g59
Nsg60
Nsg61
Nsg62
Nsg63
Nsg64
Nsg65
Nsssg112
(dp898
g70
(dp899
g59
Nsg60
Nsg61
Nsg62
Nsg63
Nsg64
Nsg65
Nssg72
(dp900
g59
Nsg60
Nsg61
Nsg62
Nsg63
Nsg64
Nsg65
Nsssg116
(dp901
g70
(dp902
g59
Nsg60
Nsg61
Nsg62
Nsg63
Nsg64
Nsg65
Nssg72
(dp903
g59
Nsg60
Nsg61
Nsg62
Nsg63
Nsg64
Nsg65
Nsssg120
(dp904
Vtx B-tx A
p905
(dp906
g59
F2.107390103894923
sg60
F-4.360173809445294
sg61
F-1.1263918527751855
sg62
F8.226742299086954
sg63
F0.3242009132420091
sg64
F0.012776166838071238
sg65
NssVtx A-tx B
p907
(dp908
g59
F4.360173809445294
sg60
F-2.107390103894923
sg61
F1.1263918527751855
sg62
F78.27073743434033
sg63
F3.0845070422535215
sg64
F0.12155479819891589
sg65
Nssssg126
(dp909
g70
(ima_dataset
TreatmentGroup
p910
(dp911
g130
(lp912
F1.0
aF36.0
asg132
I0
sg36
g133
sbsg72
(ima_dataset
TreatmentGroup
p913
(dp914
g130
(lp915
F0.0
aF36.0
asg132
I1
sg36
g137
sbssg138
g46
sg29
I00
sg139
I2
sbssg18
(dp916
N(ima_dataset
MetaAnalyticUnit
p917
(dp918
g29
I00
sg126
(dp919
g144
(ima_dataset
TreatmentGroup
p920
(dp921
g130
(lp922
g26
ag26
asg132
I0
sg36
g144
sbsg148
(ima_dataset
TreatmentGroup
p923
(dp924
g130
(lp925
g26
ag26
asg132
I1
sg36
g148
sbssg138
g42
sg53
(dp926
g153
(dp927
S'tx B-tx A'
p928
(dp929
g157
Nsg158
Nsg159
Nsg160
Nsg161
Nsg162
Nsg163
NssS'tx A-tx B'
p930
(dp931
g157
Nsg158
Nsg159
Nsg160
Nsg161
Nsg162
Nsg163
Nsssg166
(dp932
g144
(dp933
g157
Nsg158
Nsg159
Nsg160
Nsg161
Nsg162
Nsg163
Nssg148
(dp934
g157
Nsg158
Nsg159
Nsg160
Nsg161
Nsg162
Nsg163
Nsssg170
(dp935
g144
(dp936
g157
Nsg158
Nsg159
Nsg160
Nsg161
Nsg162
Nsg163
Nssg148
(dp937
g157
Nsg158
Nsg159
Nsg160
Nsg161
Nsg162
Nsg163
Nsssg174
(dp938
S'tx B-tx A'
p939
(dp940
g157
Nsg158
Nsg159
Nsg160
Nsg161
Nsg162
Nsg163
NssS'tx A-tx B'
p941
(dp942
g157
Nsg158
Nsg159
Nsg160
Nsg161
Nsg162
Nsg163
Nsssg180
(dp943
S'tx B-tx A'
p944
(dp945
g157
Nsg158
Nsg159
Nsg160
Nsg161
Nsg162
Nsg163
NssS'tx A-tx B'
p946
(dp947
g157
Nsg158
Nsg159
Nsg160
Nsg161
Nsg162
Nsg163
Nsssg186
(dp948
S'tx B-tx A'
p949
(dp950
g157
Nsg158
Nsg159
Nsg160
Nsg161
Nsg162
Nsg163
NssS'tx A-tx B'
p951
(dp952
g157
Nsg158
Nsg159
Nsg160
Nsg161
Nsg162
Nsg163
Nsssg192
(dp953
S'tx B-tx A'
p954
(dp955
g157
Nsg158
Nsg159
Nsg160
Nsg161
Nsg162
Nsg163
NssS'tx A-tx B'
p956
(dp957
g157
Nsg158
Nsg159
Nsg160
Nsg161
Nsg162
Nsg163
Nsssg198
(dp958
g144
(dp959
g157
Nsg158
Nsg159
Nsg160
Nsg161
Nsg162
Nsg163
Nssg148
(dp960
g157
Nsg158
Nsg159
Nsg160
Nsg161
Nsg162
Nsg163
Nsssg202
(dp961
g144
(dp962
g157
Nsg158
Nsg159
Nsg160
Nsg161
Nsg162
Nsg163
Nssg148
(dp963
g157
Nsg158
Nsg159
Nsg160
Nsg161
Nsg162
Nsg163
Nsssg206
(dp964
g144
(dp965
g157
Nsg158
Nsg159
Nsg160
Nsg161
Nsg162
Nsg163
Nssg148
(dp966
g157
Nsg158
Nsg159
Nsg160
Nsg161
Nsg162
Nsg163
Nsssg210
(dp967
S'tx B-tx A'
p968
(dp969
g157
Nsg158
Nsg159
Nsg160
Nsg161
Nsg162
Nsg163
NssS'tx A-tx B'
p970
(dp971
g157
Nsg158
Nsg159
Nsg160
Nsg161
Nsg162
Nsg163
Nssssg139
I2
sbsg20
(ima_dataset
MetaAnalyticUnit
p972
(dp973
g53
(dp974
g219
(dp975
Vtx B-tx A
p976
(dp977
g223
Nsg224
Nsg225
Nsg226
Nsg227
Nsg228
Nsg229
NssVtx A-tx B
p978
(dp979
g223
Nsg224
Nsg225
Nsg226
Nsg227
Nsg228
Nsg229
Nsssg232
(dp980
g70
(dp981
g223
Nsg224
Nsg225
Nsg226
Nsg227
Nsg228
Nsg229
Nssg72
(dp982
g223
Nsg224
Nsg225
Nsg226
Nsg227
Nsg228
Nsg229
Nsssg236
(dp983
g70
(dp984
g223
Nsg224
Nsg225
Nsg226
Nsg227
Nsg228
Nsg229
Nssg72
(dp985
g223
Nsg224
Nsg225
Nsg226
Nsg227
Nsg228
Nsg229
Nsssg240
(dp986
Vtx B-tx A
p987
(dp988
g223
F4.611413053391412
sg224
F-1.3925372285232118
sg225
F1.6094379124341
sg226
F100.62623947143506
sg227
F4.999999999999998
sg228
F0.2484441447014104
sg229
NssVtx A-tx B
p989
(dp990
g223
F1.3925372285232118
sg224
F-4.611413053391412
sg225
F-1.6094379124341
sg226
F4.025049578857405
sg227
F0.20000000000000007
sg228
F0.009937765788056422
sg229
Nsssg246
(dp991
Vtx B-tx A
p992
(dp993
g223
Nsg224
Nsg225
Nsg226
Nsg227
Nsg228
Nsg229
NssVtx A-tx B
p994
(dp995
g223
Nsg224
Nsg225
Nsg226
Nsg227
Nsg228
Nsg229
Nsssg252
(dp996
Vtx B-tx A
p997
(dp998
g223
Nsg224
Nsg225
Nsg226
Nsg227
Nsg228
Nsg229
NssVtx A-tx B
p999
(dp1000
g223
Nsg224
Nsg225
Nsg226
Nsg227
Nsg228
Nsg229
Nsssg258
(dp1001
Vtx B-tx A
p1002
(dp1003
g223
Nsg224
Nsg225
Nsg226
Nsg227
Nsg228
Nsg229
NssVtx A-tx B
p1004
(dp1005
g223
Nsg224
Nsg225
Nsg226
Nsg227
Nsg228
Nsg229
Nsssg264
(dp1006
Vtx B-tx A
p1007
(dp1008
g223
Nsg224
Nsg225
Nsg226
Nsg227
Nsg228
Nsg229
NssVtx A-tx B
p1009
(dp1010
g223
Nsg224
Nsg225
Nsg226
Nsg227
Nsg228
Nsg229
Nsssg270
(dp1011
g70
(dp1012
g223
Nsg224
Nsg225
Nsg226
Nsg227
Nsg228
Nsg229
Nssg72
(dp1013
g223
Nsg224
Nsg225
Nsg226
Nsg227
Nsg228
Nsg229
Nsssg274
(dp1014
g70
(dp1015
g223
Nsg224
Nsg225
Nsg226
Nsg227
Nsg228
Nsg229
Nssg72
(dp1016
g223
Nsg224
Nsg225
Nsg226
Nsg227
Nsg228
Nsg229
Nsssg278
(dp1017
g70
(dp1018
g223
Nsg224
Nsg225
Nsg226
Nsg227
Nsg228
Nsg229
Nssg72
(dp1019
g223
Nsg224
Nsg225
Nsg226
Nsg227
Nsg228
Nsg229
Nsssg282
(dp1020
Vtx B-tx A
p1021
(dp1022
g223
F4.737613312815473
sg224
F-1.4060316148450087
sg225
F1.6657908489852318
sg226
F114.16140870278059
sg227
F5.289855072463766
sg228
F0.24511406267351962
sg229
NssVtx A-tx B
p1023
(dp1024
g223
F1.4060316148450092
sg224
F-4.737613312815473
sg225
F-1.6657908489852318
sg226
F4.079733284568598
sg227
F0.18904109588950965
sg228
F0.008759527508976125
sg288
F95.0
sg289
Nsg229
F1.5672851583296352
ssssg126
(dp1025
g70
(ima_dataset
TreatmentGroup
p1026
(dp1027
g130
(lp1028
F0.0
aF36.0
asg132
I0
sg36
g133
sbsg72
(ima_dataset
TreatmentGroup
p1029
(dp1030
g130
(lp1031
F2.0
aF36.0
asg132
I1
sg36
g137
sbssg138
g42
sg29
I00
sg139
I2
sbsssg297
I00
sg298
I1989
sg299
Nsg132
I4
sba(ima_dataset
Study
p1032
(dp1033
g35
I01
sg36
VMarik
p1034
sg38
(dp1035
sg25
g26
sg40
(lp1036
g42
ag46
asg48
(dp1037
g7
(dp1038
g12
(ima_dataset
MetaAnalyticUnit
p1039
(dp1040
g53
(dp1041
g55
(dp1042
Vtx B-tx A
p1043
(dp1044
g59
Nsg60
Nsg61
Nsg62
Nsg63
Nsg64
Nsg65
NssVtx A-tx B
p1045
(dp1046
g59
Nsg60
Nsg61
Nsg62
Nsg63
Nsg64
Nsg65
Nsssg68
(dp1047
g70
(dp1048
g59
Nsg60
Nsg61
Nsg62
Nsg63
Nsg64
Nsg65
Nssg72
(dp1049
g59
Nsg60
Nsg61
Nsg62
Nsg63
Nsg64
Nsg65
Nsssg74
(dp1050
g70
(dp1051
g59
Nsg60
Nsg61
Nsg62
Nsg63
Nsg64
Nsg65
Nssg72
(dp1052
g59
Nsg60
Nsg61
Nsg62
Nsg63
Nsg64
Nsg65
Nsssg78
(dp1053
Vtx B-tx A
p1054
(dp1055
g59
Nsg60
Nsg61
Nsg62
Nsg63
Nsg64
Nsg65
NssVtx A-tx B
p1056
(dp1057
g59
F0.7265892461427415
sg60
F-3.6325607173798673
sg61
F-1.452985735618563
sg62
F2.068015074733827
sg63
F0.23387096774193547
sg64
F0.02644837081740773
sg65
Nsssg84
(dp1058
Vtx B-tx A
p1059
(dp1060
g59
Nsg60
Nsg61
Nsg62
Nsg63
Nsg64
Nsg65
NssVtx A-tx B
p1061
(dp1062
g59
Nsg60
Nsg61
Nsg62
Nsg63
Nsg64
Nsg65
Nsssg90
(dp1063
Vtx B-tx A
p1064
(dp1065
g59
Nsg60
Nsg61
Nsg62
Nsg63
Nsg64
Nsg65
NssVtx A-tx B
p1066
(dp1067
g59
Nsg60
Nsg61
Nsg62
Nsg63
Nsg64
Nsg65
Nsssg96
(dp1068
Vtx B-tx A
p1069
(dp1070
g59
Nsg60
Nsg61
Nsg62
Nsg63
Nsg64
Nsg65
NssVtx A-tx B
p1071
(dp1072
g59
Nsg60
Nsg61
Nsg62
Nsg63
Nsg64
Nsg65
Nsssg102
(dp1073
Vtx B-tx A
p1074
(dp1075
g59
Nsg60
Nsg61
Nsg62
Nsg63
Nsg64
Nsg65
NssVtx A-tx B
p1076
(dp1077
g59
Nsg60
Nsg61
Nsg62
Nsg63
Nsg64
Nsg65
Nsssg108
(dp1078
g70
(dp1079
g59
Nsg60
Nsg61
Nsg62
Nsg63
Nsg64
Nsg65
Nssg72
(dp1080
g59
Nsg60
Nsg61
Nsg62
Nsg63
Nsg64
Nsg65
Nsssg112
(dp1081
g70
(dp1082
g59
Nsg60
Nsg61
Nsg62
Nsg63
Nsg64
Nsg65
Nssg72
(dp1083
g59
Nsg60
Nsg61
Nsg62
Nsg63
Nsg64
Nsg65
Nsssg116
(dp1084
g70
(dp1085
g59
Nsg60
Nsg61
Nsg62
Nsg63
Nsg64
Nsg65
Nssg72
(dp1086
g59
Nsg60
Nsg61
Nsg62
Nsg63
Nsg64
Nsg65
Nsssg120
(dp1087
Vtx B-tx A
p1088
(dp1089
g59
F3.677669419776625
sg60
F-0.7286952734659211
sg61
F1.4744870731553519
sg62
F39.55410255878158
sg63
F4.368794326241137
sg64
F0.4825381598945998
sg65
NssVtx A-tx B
p1090
(dp1091
g59
F0.7286952734659211
sg60
F-3.677669419776625
sg61
F-1.4744870731553519
sg62
F2.0723749603936583
sg63
F0.22889610389610382
sg64
F0.025281827555407036
sg65
Nssssg126
(dp1092
g70
(ima_dataset
TreatmentGroup
p1093
(dp1094
g130
(lp1095
F1.0
aF155.0
asg132
I0
sg36
g133
sbsg72
(ima_dataset
TreatmentGroup
p1096
(dp1097
g130
(lp1098
F4.0
aF145.0
asg132
I1
sg36
g137
sbssg138
g46
sg29
I00
sg139
I2
sbssg18
(dp1099
N(ima_dataset
MetaAnalyticUnit
p1100
(dp1101
g29
I00
sg126
(dp1102
g144
(ima_dataset
TreatmentGroup
p1103
(dp1104
g130
(lp1105
g26
ag26
asg132
I0
sg36
g144
sbsg148
(ima_dataset
TreatmentGroup
p1106
(dp1107
g130
(lp1108
g26
ag26
asg132
I1
sg36
g148
sbssg138
g42
sg53
(dp1109
g153
(dp1110
S'tx B-tx A'
p1111
(dp1112
g157
Nsg158
Nsg159
Nsg160
Nsg161
Nsg162
Nsg163
NssS'tx A-tx B'
p1113
(dp1114
g157
Nsg158
Nsg159
Nsg160
Nsg161
Nsg162
Nsg163
Nsssg166
(dp1115
g144
(dp1116
g157
Nsg158
Nsg159
Nsg160
Nsg161
Nsg162
Nsg163
Nssg148
(dp1117
g157
Nsg158
Nsg159
Nsg160
Nsg161
Nsg162
Nsg163
Nsssg170
(dp1118
g144
(dp1119
g157
Nsg158
Nsg159
Nsg160
Nsg161
Nsg162
Nsg163
Nssg148
(dp1120
g157
Nsg158
Nsg159
Nsg160
Nsg161
Nsg162
Nsg163
Nsssg174
(dp1121
S'tx B-tx A'
p1122
(dp1123
g157
Nsg158
Nsg159
Nsg160
Nsg161
Nsg162
Nsg163
NssS'tx A-tx B'
p1124
(dp1125
g157
Nsg158
Nsg159
Nsg160
Nsg161
Nsg162
Nsg163
Nsssg180
(dp1126
S'tx B-tx A'
p1127
(dp1128
g157
Nsg158
Nsg159
Nsg160
Nsg161
Nsg162
Nsg163
NssS'tx A-tx B'
p1129
(dp1130
g157
Nsg158
Nsg159
Nsg160
Nsg161
Nsg162
Nsg163
Nsssg186
(dp1131
S'tx B-tx A'
p1132
(dp1133
g157
Nsg158
Nsg159
Nsg160
Nsg161
Nsg162
Nsg163
NssS'tx A-tx B'
p1134
(dp1135
g157
Nsg158
Nsg159
Nsg160
Nsg161
Nsg162
Nsg163
Nsssg192
(dp1136
S'tx B-tx A'
p1137
(dp1138
g157
Nsg158
Nsg159
Nsg160
Nsg161
Nsg162
Nsg163
NssS'tx A-tx B'
p1139
(dp1140
g157
Nsg158
Nsg159
Nsg160
Nsg161
Nsg162
Nsg163
Nsssg198
(dp1141
g144
(dp1142
g157
Nsg158
Nsg159
Nsg160
Nsg161
Nsg162
Nsg163
Nssg148
(dp1143
g157
Nsg158
Nsg159
Nsg160
Nsg161
Nsg162
Nsg163
Nsssg202
(dp1144
g144
(dp1145
g157
Nsg158
Nsg159
Nsg160
Nsg161
Nsg162
Nsg163
Nssg148
(dp1146
g157
Nsg158
Nsg159
Nsg160
Nsg161
Nsg162
Nsg163
Nsssg206
(dp1147
g144
(dp1148
g157
Nsg158
Nsg159
Nsg160
Nsg161
Nsg162
Nsg163
Nssg148
(dp1149
g157
Nsg158
Nsg159
Nsg160
Nsg161
Nsg162
Nsg163
Nsssg210
(dp1150
S'tx B-tx A'
p1151
(dp1152
g157
Nsg158
Nsg159
Nsg160
Nsg161
Nsg162
Nsg163
NssS'tx A-tx B'
p1153
(dp1154
g157
Nsg158
Nsg159
Nsg160
Nsg161
Nsg162
Nsg163
Nssssg139
I2
sbsg20
(ima_dataset
MetaAnalyticUnit
p1155
(dp1156
g53
(dp1157
g219
(dp1158
Vtx B-tx A
p1159
(dp1160
g223
Nsg224
Nsg225
Nsg226
Nsg227
Nsg228
Nsg229
NssVtx A-tx B
p1161
(dp1162
g223
Nsg224
Nsg225
Nsg226
Nsg227
Nsg228
Nsg229
Nsssg232
(dp1163
g70
(dp1164
g223
Nsg224
Nsg225
Nsg226
Nsg227
Nsg228
Nsg229
Nssg72
(dp1165
g223
Nsg224
Nsg225
Nsg226
Nsg227
Nsg228
Nsg229
Nsssg236
(dp1166
g70
(dp1167
g223
Nsg224
Nsg225
Nsg226
Nsg227
Nsg228
Nsg229
Nssg72
(dp1168
g223
Nsg224
Nsg225
Nsg226
Nsg227
Nsg228
Nsg229
Nsssg240
(dp1169
Vtx B-tx A
p1170
(dp1171
g223
F1.1185886753844045
sg224
F0.2822415937912289
sg225
F0.7004151345878167
sg226
F3.060531750022502
sg227
F2.0145888594164454
sg228
F1.3260990585884347
sg229
NssVtx A-tx B
p1172
(dp1173
g223
F-0.2822415937912289
sg224
F-1.1185886753844045
sg225
F-0.7004151345878167
sg226
F0.7540914787048031
sg227
F0.4963791968400264
sg228
F0.3267406064297969
sg229
Nsssg246
(dp1174
Vtx B-tx A
p1175
(dp1176
g223
Nsg224
Nsg225
Nsg226
Nsg227
Nsg228
Nsg229
NssVtx A-tx B
p1177
(dp1178
g223
Nsg224
Nsg225
Nsg226
Nsg227
Nsg228
Nsg229
Nsssg252
(dp1179
Vtx B-tx A
p1180
(dp1181
g223
Nsg224
Nsg225
Nsg226
Nsg227
Nsg228
Nsg229
NssVtx A-tx B
p1182
(dp1183
g223
Nsg224
Nsg225
Nsg226
Nsg227
Nsg228
Nsg229
Nsssg258
(dp1184
Vtx B-tx A
p1185
(dp1186
g223
Nsg224
Nsg225
Nsg226
Nsg227
Nsg228
Nsg229
NssVtx A-tx B
p1187
(dp1188
g223
Nsg224
Nsg225
Nsg226
Nsg227
Nsg228
Nsg229
Nsssg264
(dp1189
Vtx B-tx A
p1190
(dp1191
g223
Nsg224
Nsg225
Nsg226
Nsg227
Nsg228
Nsg229
NssVtx A-tx B
p1192
(dp1193
g223
Nsg224
Nsg225
Nsg226
Nsg227
Nsg228
Nsg229
Nsssg270
(dp1194
g70
(dp1195
g223
Nsg224
Nsg225
Nsg226
Nsg227
Nsg228
Nsg229
Nssg72
(dp1196
g223
Nsg224
Nsg225
Nsg226
Nsg227
Nsg228
Nsg229
Nsssg274
(dp1197
g70
(dp1198
g223
Nsg224
Nsg225
Nsg226
Nsg227
Nsg228
Nsg229
Nssg72
(dp1199
g223
Nsg224
Nsg225
Nsg226
Nsg227
Nsg228
Nsg229
Nsssg278
(dp1200
g70
(dp1201
g223
Nsg224
Nsg225
Nsg226
Nsg227
Nsg228
Nsg229
Nssg72
(dp1202
g223
Nsg224
Nsg225
Nsg226
Nsg227
Nsg228
Nsg229
Nsssg282
(dp1203
Vtx B-tx A
p1204
(dp1205
g223
F1.4731911729433602
sg224
F0.3851847730226008
sg225
F0.9291879729829805
sg226
F4.363136471546958
sg227
F2.5324519230769234
sg228
F1.4698858916100221
sg229
NssVtx A-tx B
p1206
(dp1207
g223
F-0.3851847730226008
sg224
F-1.4731911729433602
sg225
F-0.9291879729829805
sg226
F0.6803249188984748
sg227
F0.3948742287612642
sg228
F0.22919292268866584
sg288
F95.0
sg289
Nsg229
F0.27755775322985915
ssssg126
(dp1208
g70
(ima_dataset
TreatmentGroup
p1209
(dp1210
g130
(lp1211
F26.0
aF155.0
asg132
I0
sg36
g133
sbsg72
(ima_dataset
TreatmentGroup
p1212
(dp1213
g130
(lp1214
F49.0
aF145.0
asg132
I1
sg36
g137
sbssg138
g42
sg29
I00
sg139
I2
sbsssg297
I00
sg298
I1991
sg299
Nsg132
I5
sba(ima_dataset
Study
p1215
(dp1216
g35
I01
sg36
VMuijsken
p1217
sg38
(dp1218
sg25
g26
sg40
(lp1219
g42
ag46
asg48
(dp1220
g7
(dp1221
g12
(ima_dataset
MetaAnalyticUnit
p1222
(dp1223
g53
(dp1224
g55
(dp1225
Vtx B-tx A
p1226
(dp1227
g59
Nsg60
Nsg61
Nsg62
Nsg63
Nsg64
Nsg65
NssVtx A-tx B
p1228
(dp1229
g59
Nsg60
Nsg61
Nsg62
Nsg63
Nsg64
Nsg65
Nsssg68
(dp1230
g70
(dp1231
g59
Nsg60
Nsg61
Nsg62
Nsg63
Nsg64
Nsg65
Nssg72
(dp1232
g59
Nsg60
Nsg61
Nsg62
Nsg63
Nsg64
Nsg65
Nsssg74
(dp1233
g70
(dp1234
g59
Nsg60
Nsg61
Nsg62
Nsg63
Nsg64
Nsg65
Nssg72
(dp1235
g59
Nsg60
Nsg61
Nsg62
Nsg63
Nsg64
Nsg65
Nsssg78
(dp1236
Vtx B-tx A
p1237
(dp1238
g59
Nsg60
Nsg61
Nsg62
Nsg63
Nsg64
Nsg65
NssVtx A-tx B
p1239
(dp1240
g59
F0.8651320085136736
sg60
F-2.265267255322712
sg61
F-0.7000676234045191
sg62
F2.37531962769512
sg63
F0.496551724137931
sg64
F0.10380228911912949
sg65
Nsssg84
(dp1241
Vtx B-tx A
p1242
(dp1243
g59
Nsg60
Nsg61
Nsg62
Nsg63
Nsg64
Nsg65
NssVtx A-tx B
p1244
(dp1245
g59
Nsg60
Nsg61
Nsg62
Nsg63
Nsg64
Nsg65
Nsssg90
(dp1246
Vtx B-tx A
p1247
(dp1248
g59
Nsg60
Nsg61
Nsg62
Nsg63
Nsg64
Nsg65
NssVtx A-tx B
p1249
(dp1250
g59
Nsg60
Nsg61
Nsg62
Nsg63
Nsg64
Nsg65
Nsssg96
(dp1251
Vtx B-tx A
p1252
(dp1253
g59
Nsg60
Nsg61
Nsg62
Nsg63
Nsg64
Nsg65
NssVtx A-tx B
p1254
(dp1255
g59
Nsg60
Nsg61
Nsg62
Nsg63
Nsg64
Nsg65
Nsssg102
(dp1256
Vtx B-tx A
p1257
(dp1258
g59
Nsg60
Nsg61
Nsg62
Nsg63
Nsg64
Nsg65
NssVtx A-tx B
p1259
(dp1260
g59
Nsg60
Nsg61
Nsg62
Nsg63
Nsg64
Nsg65
Nsssg108
(dp1261
g70
(dp1262
g59
Nsg60
Nsg61
Nsg62
Nsg63
Nsg64
Nsg65
Nssg72
(dp1263
g59
Nsg60
Nsg61
Nsg62
Nsg63
Nsg64
Nsg65
Nsssg112
(dp1264
g70
(dp1265
g59
Nsg60
Nsg61
Nsg62
Nsg63
Nsg64
Nsg65
Nssg72
(dp1266
g59
Nsg60
Nsg61
Nsg62
Nsg63
Nsg64
Nsg65
Nsssg116
(dp1267
g70
(dp1268
g59
Nsg60
Nsg61
Nsg62
Nsg63
Nsg64
Nsg65
Nssg72
(dp1269
g59
Nsg60
Nsg61
Nsg62
Nsg63
Nsg64
Nsg65
Nsssg120
(dp1270
Vtx B-tx A
p1271
(dp1272
g59
F2.497214403893814
sg60
F-0.9409336171071385
sg61
F0.7781403933933377
sg62
F12.148605674415208
sg63
F2.1774193548387095
sg64
F0.390263308719537
sg65
NssVtx A-tx B
p1273
(dp1274
g59
F0.9409336171071383
sg60
F-2.497214403893814
sg61
F-0.7781403933933377
sg62
F2.562372576814928
sg63
F0.4592592592592593
sg64
F0.08231397304350621
sg65
Nssssg126
(dp1275
g70
(ima_dataset
TreatmentGroup
p1276
(dp1277
g130
(lp1278
F2.0
aF29.0
asg132
I0
sg36
g133
sbsg72
(ima_dataset
TreatmentGroup
p1279
(dp1280
g130
(lp1281
F5.0
aF36.0
asg132
I1
sg36
g137
sbssg138
g46
sg29
I00
sg139
I2
sbssg18
(dp1282
N(ima_dataset
MetaAnalyticUnit
p1283
(dp1284
g29
I00
sg126
(dp1285
g144
(ima_dataset
TreatmentGroup
p1286
(dp1287
g130
(lp1288
g26
ag26
asg132
I0
sg36
g144
sbsg148
(ima_dataset
TreatmentGroup
p1289
(dp1290
g130
(lp1291
g26
ag26
asg132
I1
sg36
g148
sbssg138
g42
sg53
(dp1292
g153
(dp1293
S'tx B-tx A'
p1294
(dp1295
g157
Nsg158
Nsg159
Nsg160
Nsg161
Nsg162
Nsg163
NssS'tx A-tx B'
p1296
(dp1297
g157
Nsg158
Nsg159
Nsg160
Nsg161
Nsg162
Nsg163
Nsssg166
(dp1298
g144
(dp1299
g157
Nsg158
Nsg159
Nsg160
Nsg161
Nsg162
Nsg163
Nssg148
(dp1300
g157
Nsg158
Nsg159
Nsg160
Nsg161
Nsg162
Nsg163
Nsssg170
(dp1301
g144
(dp1302
g157
Nsg158
Nsg159
Nsg160
Nsg161
Nsg162
Nsg163
Nssg148
(dp1303
g157
Nsg158
Nsg159
Nsg160
Nsg161
Nsg162
Nsg163
Nsssg174
(dp1304
S'tx B-tx A'
p1305
(dp1306
g157
Nsg158
Nsg159
Nsg160
Nsg161
Nsg162
Nsg163
NssS'tx A-tx B'
p1307
(dp1308
g157
Nsg158
Nsg159
Nsg160
Nsg161
Nsg162
Nsg163
Nsssg180
(dp1309
S'tx B-tx A'
p1310
(dp1311
g157
Nsg158
Nsg159
Nsg160
Nsg161
Nsg162
Nsg163
NssS'tx A-tx B'
p1312
(dp1313
g157
Nsg158
Nsg159
Nsg160
Nsg161
Nsg162
Nsg163
Nsssg186
(dp1314
S'tx B-tx A'
p1315
(dp1316
g157
Nsg158
Nsg159
Nsg160
Nsg161
Nsg162
Nsg163
NssS'tx A-tx B'
p1317
(dp1318
g157
Nsg158
Nsg159
Nsg160
Nsg161
Nsg162
Nsg163
Nsssg192
(dp1319
S'tx B-tx A'
p1320
(dp1321
g157
Nsg158
Nsg159
Nsg160
Nsg161
Nsg162
Nsg163
NssS'tx A-tx B'
p1322
(dp1323
g157
Nsg158
Nsg159
Nsg160
Nsg161
Nsg162
Nsg163
Nsssg198
(dp1324
g144
(dp1325
g157
Nsg158
Nsg159
Nsg160
Nsg161
Nsg162
Nsg163
Nssg148
(dp1326
g157
Nsg158
Nsg159
Nsg160
Nsg161
Nsg162
Nsg163
Nsssg202
(dp1327
g144
(dp1328
g157
Nsg158
Nsg159
Nsg160
Nsg161
Nsg162
Nsg163
Nssg148
(dp1329
g157
Nsg158
Nsg159
Nsg160
Nsg161
Nsg162
Nsg163
Nsssg206
(dp1330
g144
(dp1331
g157
Nsg158
Nsg159
Nsg160
Nsg161
Nsg162
Nsg163
Nssg148
(dp1332
g157
Nsg158
Nsg159
Nsg160
Nsg161
Nsg162
Nsg163
Nsssg210
(dp1333
S'tx B-tx A'
p1334
(dp1335
g157
Nsg158
Nsg159
Nsg160
Nsg161
Nsg162
Nsg163
NssS'tx A-tx B'
p1336
(dp1337
g157
Nsg158
Nsg159
Nsg160
Nsg161
Nsg162
Nsg163
Nssssg139
I2
sbsg20
(ima_dataset
MetaAnalyticUnit
p1338
(dp1339
g53
(dp1340
g219
(dp1341
Vtx B-tx A
p1342
(dp1343
g223
Nsg224
Nsg225
Nsg226
Nsg227
Nsg228
Nsg229
NssVtx A-tx B
p1344
(dp1345
g223
Nsg224
Nsg225
Nsg226
Nsg227
Nsg228
Nsg229
Nsssg232
(dp1346
g70
(dp1347
g223
Nsg224
Nsg225
Nsg226
Nsg227
Nsg228
Nsg229
Nssg72
(dp1348
g223
Nsg224
Nsg225
Nsg226
Nsg227
Nsg228
Nsg229
Nsssg236
(dp1349
g70
(dp1350
g223
Nsg224
Nsg225
Nsg226
Nsg227
Nsg228
Nsg229
Nssg72
(dp1351
g223
Nsg224
Nsg225
Nsg226
Nsg227
Nsg228
Nsg229
Nsssg240
(dp1352
Vtx B-tx A
p1353
(dp1354
g223
F0.5664345089723853
sg224
F-1.3210229712553216
sg225
F-0.3772942311414682
sg226
F1.761973537528411
sg227
F0.6857142857142856
sg228
F0.26686216995757306
sg229
NssVtx A-tx B
p1355
(dp1356
g223
F1.3210229712553216
sg224
F-0.5664345089723853
sg225
F0.3772942311414682
sg226
F3.7472527490838607
sg227
F1.4583333333333335
sg228
F0.5675454135382414
sg229
Nsssg246
(dp1357
Vtx B-tx A
p1358
(dp1359
g223
Nsg224
Nsg225
Nsg226
Nsg227
Nsg228
Nsg229
NssVtx A-tx B
p1360
(dp1361
g223
Nsg224
Nsg225
Nsg226
Nsg227
Nsg228
Nsg229
Nsssg252
(dp1362
Vtx B-tx A
p1363
(dp1364
g223
Nsg224
Nsg225
Nsg226
Nsg227
Nsg228
Nsg229
NssVtx A-tx B
p1365
(dp1366
g223
Nsg224
Nsg225
Nsg226
Nsg227
Nsg228
Nsg229
Nsssg258
(dp1367
Vtx B-tx A
p1368
(dp1369
g223
Nsg224
Nsg225
Nsg226
Nsg227
Nsg228
Nsg229
NssVtx A-tx B
p1370
(dp1371
g223
Nsg224
Nsg225
Nsg226
Nsg227
Nsg228
Nsg229
Nsssg264
(dp1372
Vtx B-tx A
p1373
(dp1374
g223
Nsg224
Nsg225
Nsg226
Nsg227
Nsg228
Nsg229
NssVtx A-tx B
p1375
(dp1376
g223
Nsg224
Nsg225
Nsg226
Nsg227
Nsg228
Nsg229
Nsssg270
(dp1377
g70
(dp1378
g223
Nsg224
Nsg225
Nsg226
Nsg227
Nsg228
Nsg229
Nssg72
(dp1379
g223
Nsg224
Nsg225
Nsg226
Nsg227
Nsg228
Nsg229
Nsssg274
(dp1380
g70
(dp1381
g223
Nsg224
Nsg225
Nsg226
Nsg227
Nsg228
Nsg229
Nssg72
(dp1382
g223
Nsg224
Nsg225
Nsg226
Nsg227
Nsg228
Nsg229
Nsssg278
(dp1383
g70
(dp1384
g223
Nsg224
Nsg225
Nsg226
Nsg227
Nsg228
Nsg229
Nssg72
(dp1385
g223
Nsg224
Nsg225
Nsg226
Nsg227
Nsg228
Nsg229
Nsssg282
(dp1386
Vtx B-tx A
p1387
(dp1388
g223
F0.7117518176416322
sg224
F-1.6655999618222506
sg225
F-0.4769240720903092
sg226
F2.037557563262202
sg227
F0.6206896551724139
sg228
F0.18907718485324268
sg229
NssVtx A-tx B
p1389
(dp1390
g223
F1.6655999618222506
sg224
F-0.7117518176416322
sg225
F0.4769240720903092
sg226
F5.288845403393996
sg227
F1.6111111111106127
sg228
F0.49078368043678566
sg288
F95.0
sg289
Nsg229
F0.6064784348631227
ssssg126
(dp1391
g70
(ima_dataset
TreatmentGroup
p1392
(dp1393
g130
(lp1394
F8.0
aF32.0
asg132
I0
sg36
g133
sbsg72
(ima_dataset
TreatmentGroup
p1395
(dp1396
g130
(lp1397
F6.0
aF35.0
asg132
I1
sg36
g137
sbssg138
g42
sg29
I00
sg139
I2
sbsssg297
I00
sg298
I1988
sg299
Nsg132
I6
sba(ima_dataset
Study
p1398
(dp1399
g35
I01
sg36
VVigano
p1400
sg38
(dp1401
sg25
g26
sg40
(lp1402
g42
ag46
asg48
(dp1403
g7
(dp1404
g12
(ima_dataset
MetaAnalyticUnit
p1405
(dp1406
g53
(dp1407
g55
(dp1408
Vtx B-tx A
p1409
(dp1410
g59
Nsg60
Nsg61
Nsg62
Nsg63
Nsg64
Nsg65
NssVtx A-tx B
p1411
(dp1412
g59
Nsg60
Nsg61
Nsg62
Nsg63
Nsg64
Nsg65
Nsssg68
(dp1413
g70
(dp1414
g59
Nsg60
Nsg61
Nsg62
Nsg63
Nsg64
Nsg65
Nssg72
(dp1415
g59
Nsg60
Nsg61
Nsg62
Nsg63
Nsg64
Nsg65
Nsssg74
(dp1416
g70
(dp1417
g59
Nsg60
Nsg61
Nsg62
Nsg63
Nsg64
Nsg65
Nssg72
(dp1418
g59
Nsg60
Nsg61
Nsg62
Nsg63
Nsg64
Nsg65
Nsssg78
(dp1419
Vtx B-tx A
p1420
(dp1421
g59
Nsg60
Nsg61
Nsg62
Nsg63
Nsg64
Nsg65
NssVtx A-tx B
p1422
(dp1423
g59
F1.8769593806697158
sg60
F-1.9880990829793375
sg61
F-0.055569851154810834
sg62
F6.533608412719652
sg63
F0.9459459459459458
sg64
F0.1369555192364366
sg65
Nsssg84
(dp1424
Vtx B-tx A
p1425
(dp1426
g59
Nsg60
Nsg61
Nsg62
Nsg63
Nsg64
Nsg65
NssVtx A-tx B
p1427
(dp1428
g59
Nsg60
Nsg61
Nsg62
Nsg63
Nsg64
Nsg65
Nsssg90
(dp1429
Vtx B-tx A
p1430
(dp1431
g59
Nsg60
Nsg61
Nsg62
Nsg63
Nsg64
Nsg65
NssVtx A-tx B
p1432
(dp1433
g59
Nsg60
Nsg61
Nsg62
Nsg63
Nsg64
Nsg65
Nsssg96
(dp1434
Vtx B-tx A
p1435
(dp1436
g59
Nsg60
Nsg61
Nsg62
Nsg63
Nsg64
Nsg65
NssVtx A-tx B
p1437
(dp1438
g59
Nsg60
Nsg61
Nsg62
Nsg63
Nsg64
Nsg65
Nsssg102
(dp1439
Vtx B-tx A
p1440
(dp1441
g59
Nsg60
Nsg61
Nsg62
Nsg63
Nsg64
Nsg65
NssVtx A-tx B
p1442
(dp1443
g59
Nsg60
Nsg61
Nsg62
Nsg63
Nsg64
Nsg65
Nsssg108
(dp1444
g70
(dp1445
g59
Nsg60
Nsg61
Nsg62
Nsg63
Nsg64
Nsg65
Nssg72
(dp1446
g59
Nsg60
Nsg61
Nsg62
Nsg63
Nsg64
Nsg65
Nsssg112
(dp1447
g70
(dp1448
g59
Nsg60
Nsg61
Nsg62
Nsg63
Nsg64
Nsg65
Nssg72
(dp1449
g59
Nsg60
Nsg61
Nsg62
Nsg63
Nsg64
Nsg65
Nsssg116
(dp1450
g70
(dp1451
g59
Nsg60
Nsg61
Nsg62
Nsg63
Nsg64
Nsg65
Nssg72
(dp1452
g59
Nsg60
Nsg61
Nsg62
Nsg63
Nsg64
Nsg65
Nsssg120
(dp1453
Vtx B-tx A
p1454
(dp1455
g59
F2.044947249935669
sg60
F-1.9306304222557726
sg61
F0.05715841383994835
sg62
F7.728750835053053
sg63
F1.0588235294117645
sg64
F0.14505672266613956
sg65
NssVtx A-tx B
p1456
(dp1457
g59
F1.9306304222557726
sg60
F-2.044947249935669
sg61
F-0.05715841383994835
sg62
F6.893854911513376
sg63
F0.9444444444444446
sg64
F0.12938701497072336
sg65
Nssssg126
(dp1458
g70
(ima_dataset
TreatmentGroup
p1459
(dp1460
g130
(lp1461
F2.0
aF74.0
asg132
I0
sg36
g133
sbsg72
(ima_dataset
TreatmentGroup
p1462
(dp1463
g130
(lp1464
F2.0
aF70.0
asg132
I1
sg36
g137
sbssg138
g46
sg29
I00
sg139
I2
sbssg18
(dp1465
N(ima_dataset
MetaAnalyticUnit
p1466
(dp1467
g29
I00
sg126
(dp1468
g144
(ima_dataset
TreatmentGroup
p1469
(dp1470
g130
(lp1471
g26
ag26
asg132
I0
sg36
g144
sbsg148
(ima_dataset
TreatmentGroup
p1472
(dp1473
g130
(lp1474
g26
ag26
asg132
I1
sg36
g148
sbssg138
g42
sg53
(dp1475
g153
(dp1476
S'tx B-tx A'
p1477
(dp1478
g157
Nsg158
Nsg159
Nsg160
Nsg161
Nsg162
Nsg163
NssS'tx A-tx B'
p1479
(dp1480
g157
Nsg158
Nsg159
Nsg160
Nsg161
Nsg162
Nsg163
Nsssg166
(dp1481
g144
(dp1482
g157
Nsg158
Nsg159
Nsg160
Nsg161
Nsg162
Nsg163
Nssg148
(dp1483
g157
Nsg158
Nsg159
Nsg160
Nsg161
Nsg162
Nsg163
Nsssg170
(dp1484
g144
(dp1485
g157
Nsg158
Nsg159
Nsg160
Nsg161
Nsg162
Nsg163
Nssg148
(dp1486
g157
Nsg158
Nsg159
Nsg160
Nsg161
Nsg162
Nsg163
Nsssg174
(dp1487
S'tx B-tx A'
p1488
(dp1489
g157
Nsg158
Nsg159
Nsg160
Nsg161
Nsg162
Nsg163
NssS'tx A-tx B'
p1490
(dp1491
g157
Nsg158
Nsg159
Nsg160
Nsg161
Nsg162
Nsg163
Nsssg180
(dp1492
S'tx B-tx A'
p1493
(dp1494
g157
Nsg158
Nsg159
Nsg160
Nsg161
Nsg162
Nsg163
NssS'tx A-tx B'
p1495
(dp1496
g157
Nsg158
Nsg159
Nsg160
Nsg161
Nsg162
Nsg163
Nsssg186
(dp1497
S'tx B-tx A'
p1498
(dp1499
g157
Nsg158
Nsg159
Nsg160
Nsg161
Nsg162
Nsg163
NssS'tx A-tx B'
p1500
(dp1501
g157
Nsg158
Nsg159
Nsg160
Nsg161
Nsg162
Nsg163
Nsssg192
(dp1502
S'tx B-tx A'
p1503
(dp1504
g157
Nsg158
Nsg159
Nsg160
Nsg161
Nsg162
Nsg163
NssS'tx A-tx B'
p1505
(dp1506
g157
Nsg158
Nsg159
Nsg160
Nsg161
Nsg162
Nsg163
Nsssg198
(dp1507
g144
(dp1508
g157
Nsg158
Nsg159
Nsg160
Nsg161
Nsg162
Nsg163
Nssg148
(dp1509
g157
Nsg158
Nsg159
Nsg160
Nsg161
Nsg162
Nsg163
Nsssg202
(dp1510
g144
(dp1511
g157
Nsg158
Nsg159
Nsg160
Nsg161
Nsg162
Nsg163
Nssg148
(dp1512
g157
Nsg158
Nsg159
Nsg160
Nsg161
Nsg162
Nsg163
Nsssg206
(dp1513
g144
(dp1514
g157
Nsg158
Nsg159
Nsg160
Nsg161
Nsg162
Nsg163
Nssg148
(dp1515
g157
Nsg158
Nsg159
Nsg160
Nsg161
Nsg162
Nsg163
Nsssg210
(dp1516
S'tx B-tx A'
p1517
(dp1518
g157
Nsg158
Nsg159
Nsg160
Nsg161
Nsg162
Nsg163
NssS'tx A-tx B'
p1519
(dp1520
g157
Nsg158
Nsg159
Nsg160
Nsg161
Nsg162
Nsg163
Nssssg139
I2
sbsg20
(ima_dataset
MetaAnalyticUnit
p1521
(dp1522
g53
(dp1523
g219
(dp1524
Vtx B-tx A
p1525
(dp1526
g223
Nsg224
Nsg225
Nsg226
Nsg227
Nsg228
Nsg229
NssVtx A-tx B
p1527
(dp1528
g223
Nsg224
Nsg225
Nsg226
Nsg227
Nsg228
Nsg229
Nsssg232
(dp1529
g70
(dp1530
g223
Nsg224
Nsg225
Nsg226
Nsg227
Nsg228
Nsg229
Nssg72
(dp1531
g223
Nsg224
Nsg225
Nsg226
Nsg227
Nsg228
Nsg229
Nsssg236
(dp1532
g70
(dp1533
g223
Nsg224
Nsg225
Nsg226
Nsg227
Nsg228
Nsg229
Nssg72
(dp1534
g223
Nsg224
Nsg225
Nsg226
Nsg227
Nsg228
Nsg229
Nsssg240
(dp1535
Vtx B-tx A
p1536
(dp1537
g223
F2.1403073911910275
sg224
F-4.227915495537257
sg225
F-1.043804052173115
sg226
F8.502050682736224
sg227
F0.35211267605633795
sg228
F0.014582756709661719
sg229
NssVtx A-tx B
p1538
(dp1539
g223
F4.227915495537257
sg224
F-2.1403073911910275
sg225
F1.043804052173115
sg226
F68.57413998667728
sg227
F2.8400000000000007
sg228
F0.11761868251744756
sg229
Nsssg246
(dp1540
Vtx B-tx A
p1541
(dp1542
g223
Nsg224
Nsg225
Nsg226
Nsg227
Nsg228
Nsg229
NssVtx A-tx B
p1543
(dp1544
g223
Nsg224
Nsg225
Nsg226
Nsg227
Nsg228
Nsg229
Nsssg252
(dp1545
Vtx B-tx A
p1546
(dp1547
g223
Nsg224
Nsg225
Nsg226
Nsg227
Nsg228
Nsg229
NssVtx A-tx B
p1548
(dp1549
g223
Nsg224
Nsg225
Nsg226
Nsg227
Nsg228
Nsg229
Nsssg258
(dp1550
Vtx B-tx A
p1551
(dp1552
g223
Nsg224
Nsg225
Nsg226
Nsg227
Nsg228
Nsg229
NssVtx A-tx B
p1553
(dp1554
g223
Nsg224
Nsg225
Nsg226
Nsg227
Nsg228
Nsg229
Nsssg264
(dp1555
Vtx B-tx A
p1556
(dp1557
g223
Nsg224
Nsg225
Nsg226
Nsg227
Nsg228
Nsg229
NssVtx A-tx B
p1558
(dp1559
g223
Nsg224
Nsg225
Nsg226
Nsg227
Nsg228
Nsg229
Nsssg270
(dp1560
g70
(dp1561
g223
Nsg224
Nsg225
Nsg226
Nsg227
Nsg228
Nsg229
Nssg72
(dp1562
g223
Nsg224
Nsg225
Nsg226
Nsg227
Nsg228
Nsg229
Nsssg274
(dp1563
g70
(dp1564
g223
Nsg224
Nsg225
Nsg226
Nsg227
Nsg228
Nsg229
Nssg72
(dp1565
g223
Nsg224
Nsg225
Nsg226
Nsg227
Nsg228
Nsg229
Nsssg278
(dp1566
g70
(dp1567
g223
Nsg224
Nsg225
Nsg226
Nsg227
Nsg228
Nsg229
Nssg72
(dp1568
g223
Nsg224
Nsg225
Nsg226
Nsg227
Nsg228
Nsg229
Nsssg282
(dp1569
Vtx B-tx A
p1570
(dp1571
g223
F2.160302038691492
sg224
F-4.2741812232265755
sg225
F-1.056939592267542
sg226
F8.673757073097935
sg227
F0.3475177304964538
sg228
F0.013923444245859196
sg229
NssVtx A-tx B
p1572
(dp1573
g223
F4.274181223226576
sg224
F-2.1603020386914924
sg225
F1.056939592267542
sg226
F71.82130960885075
sg227
F2.8775510204152375
sg228
F0.1152902936494543
sg288
F95.0
sg289
Nsg229
F1.6414799742935209
ssssg126
(dp1574
g70
(ima_dataset
TreatmentGroup
p1575
(dp1576
g130
(lp1577
F1.0
aF74.0
asg132
I0
sg36
g133
sbsg72
(ima_dataset
TreatmentGroup
p1578
(dp1579
g130
(lp1580
F0.0
aF70.0
asg132
I1
sg36
g137
sbssg138
g42
sg29
I00
sg139
I2
sbsssg297
I00
sg298
I1992
sg299
Nsg132
I7
sba(ima_dataset
Study
p1581
(dp1582
g35
I01
sg36
VHansen
p1583
sg38
(dp1584
sg25
g26
sg40
(lp1585
g42
ag46
asg48
(dp1586
g7
(dp1587
g12
(ima_dataset
MetaAnalyticUnit
p1588
(dp1589
g53
(dp1590
g55
(dp1591
Vtx B-tx A
p1592
(dp1593
g59
Nsg60
Nsg61
Nsg62
Nsg63
Nsg64
Nsg65
NssVtx A-tx B
p1594
(dp1595
g59
Nsg60
Nsg61
Nsg62
Nsg63
Nsg64
Nsg65
Nsssg68
(dp1596
g70
(dp1597
g59
Nsg60
Nsg61
Nsg62
Nsg63
Nsg64
Nsg65
Nssg72
(dp1598
g59
Nsg60
Nsg61
Nsg62
Nsg63
Nsg64
Nsg65
Nsssg74
(dp1599
g70
(dp1600
g59
Nsg60
Nsg61
Nsg62
Nsg63
Nsg64
Nsg65
Nssg72
(dp1601
g59
Nsg60
Nsg61
Nsg62
Nsg63
Nsg64
Nsg65
Nsssg78
(dp1602
Vtx B-tx A
p1603
(dp1604
g59
Nsg60
Nsg61
Nsg62
Nsg63
Nsg64
Nsg65
NssVtx A-tx B
p1605
(dp1606
g59
F1.0383162981360186
sg60
F-4.808887352613775
sg61
F-1.885285527238878
sg62
F2.82445746434688
sg63
F0.15178571428571436
sg64
F0.008156930437807798
sg65
Nsssg84
(dp1607
Vtx B-tx A
p1608
(dp1609
g59
Nsg60
Nsg61
Nsg62
Nsg63
Nsg64
Nsg65
NssVtx A-tx B
p1610
(dp1611
g59
Nsg60
Nsg61
Nsg62
Nsg63
Nsg64
Nsg65
Nsssg90
(dp1612
Vtx B-tx A
p1613
(dp1614
g59
Nsg60
Nsg61
Nsg62
Nsg63
Nsg64
Nsg65
NssVtx A-tx B
p1615
(dp1616
g59
Nsg60
Nsg61
Nsg62
Nsg63
Nsg64
Nsg65
Nsssg96
(dp1617
Vtx B-tx A
p1618
(dp1619
g59
Nsg60
Nsg61
Nsg62
Nsg63
Nsg64
Nsg65
NssVtx A-tx B
p1620
(dp1621
g59
Nsg60
Nsg61
Nsg62
Nsg63
Nsg64
Nsg65
Nsssg102
(dp1622
Vtx B-tx A
p1623
(dp1624
g59
Nsg60
Nsg61
Nsg62
Nsg63
Nsg64
Nsg65
NssVtx A-tx B
p1625
(dp1626
g59
Nsg60
Nsg61
Nsg62
Nsg63
Nsg64
Nsg65
Nsssg108
(dp1627
g70
(dp1628
g59
Nsg60
Nsg61
Nsg62
Nsg63
Nsg64
Nsg65
Nssg72
(dp1629
g59
Nsg60
Nsg61
Nsg62
Nsg63
Nsg64
Nsg65
Nsssg112
(dp1630
g70
(dp1631
g59
Nsg60
Nsg61
Nsg62
Nsg63
Nsg64
Nsg65
Nssg72
(dp1632
g59
Nsg60
Nsg61
Nsg62
Nsg63
Nsg64
Nsg65
Nsssg116
(dp1633
g70
(dp1634
g59
Nsg60
Nsg61
Nsg62
Nsg63
Nsg64
Nsg65
Nssg72
(dp1635
g59
Nsg60
Nsg61
Nsg62
Nsg63
Nsg64
Nsg65
Nsssg120
(dp1636
Vtx B-tx A
p1637
(dp1638
g59
F4.982896930163225
sg60
F-1.026554907616156
sg61
F1.9781710112735347
sg62
F145.89642179304994
sg63
F7.229508196721311
sg64
F0.3582390035623915
sg65
NssVtx A-tx B
p1639
(dp1640
g59
F1.026554907616156
sg60
F-4.982896930163225
sg61
F-1.9781710112735347
sg62
F2.7914325075042763
sg63
F0.1383219954648526
sg64
F0.006854177694765348
sg65
Nssssg126
(dp1641
g70
(ima_dataset
TreatmentGroup
p1642
(dp1643
g130
(lp1644
F0.0
aF31.0
asg132
I0
sg36
g133
sbsg72
(ima_dataset
TreatmentGroup
p1645
(dp1646
g130
(lp1647
F3.0
aF33.0
asg132
I1
sg36
g137
sbssg138
g46
sg29
I00
sg139
I2
sbssg18
(dp1648
N(ima_dataset
MetaAnalyticUnit
p1649
(dp1650
g29
I00
sg126
(dp1651
g144
(ima_dataset
TreatmentGroup
p1652
(dp1653
g130
(lp1654
g26
ag26
asg132
I0
sg36
g144
sbsg148
(ima_dataset
TreatmentGroup
p1655
(dp1656
g130
(lp1657
g26
ag26
asg132
I1
sg36
g148
sbssg138
g42
sg53
(dp1658
g153
(dp1659
S'tx B-tx A'
p1660
(dp1661
g157
Nsg158
Nsg159
Nsg160
Nsg161
Nsg162
Nsg163
NssS'tx A-tx B'
p1662
(dp1663
g157
Nsg158
Nsg159
Nsg160
Nsg161
Nsg162
Nsg163
Nsssg166
(dp1664
g144
(dp1665
g157
Nsg158
Nsg159
Nsg160
Nsg161
Nsg162
Nsg163
Nssg148
(dp1666
g157
Nsg158
Nsg159
Nsg160
Nsg161
Nsg162
Nsg163
Nsssg170
(dp1667
g144
(dp1668
g157
Nsg158
Nsg159
Nsg160
Nsg161
Nsg162
Nsg163
Nssg148
(dp1669
g157
Nsg158
Nsg159
Nsg160
Nsg161
Nsg162
Nsg163
Nsssg174
(dp1670
S'tx B-tx A'
p1671
(dp1672
g157
Nsg158
Nsg159
Nsg160
Nsg161
Nsg162
Nsg163
NssS'tx A-tx B'
p1673
(dp1674
g157
Nsg158
Nsg159
Nsg160
Nsg161
Nsg162
Nsg163
Nsssg180
(dp1675
S'tx B-tx A'
p1676
(dp1677
g157
Nsg158
Nsg159
Nsg160
Nsg161
Nsg162
Nsg163
NssS'tx A-tx B'
p1678
(dp1679
g157
Nsg158
Nsg159
Nsg160
Nsg161
Nsg162
Nsg163
Nsssg186
(dp1680
S'tx B-tx A'
p1681
(dp1682
g157
Nsg158
Nsg159
Nsg160
Nsg161
Nsg162
Nsg163
NssS'tx A-tx B'
p1683
(dp1684
g157
Nsg158
Nsg159
Nsg160
Nsg161
Nsg162
Nsg163
Nsssg192
(dp1685
S'tx B-tx A'
p1686
(dp1687
g157
Nsg158
Nsg159
Nsg160
Nsg161
Nsg162
Nsg163
NssS'tx A-tx B'
p1688
(dp1689
g157
Nsg158
Nsg159
Nsg160
Nsg161
Nsg162
Nsg163
Nsssg198
(dp1690
g144
(dp1691
g157
Nsg158
Nsg159
Nsg160
Nsg161
Nsg162
Nsg163
Nssg148
(dp1692
g157
Nsg158
Nsg159
Nsg160
Nsg161
Nsg162
Nsg163
Nsssg202
(dp1693
g144
(dp1694
g157
Nsg158
Nsg159
Nsg160
Nsg161
Nsg162
Nsg163
Nssg148
(dp1695
g157
Nsg158
Nsg159
Nsg160
Nsg161
Nsg162
Nsg163
Nsssg206
(dp1696
g144
(dp1697
g157
Nsg158
Nsg159
Nsg160
Nsg161
Nsg162
Nsg163
Nssg148
(dp1698
g157
Nsg158
Nsg159
Nsg160
Nsg161
Nsg162
Nsg163
Nsssg210
(dp1699
S'tx B-tx A'
p1700
(dp1701
g157
Nsg158
Nsg159
Nsg160
Nsg161
Nsg162
Nsg163
NssS'tx A-tx B'
p1702
(dp1703
g157
Nsg158
Nsg159
Nsg160
Nsg161
Nsg162
Nsg163
Nssssg139
I2
sbsg20
(ima_dataset
MetaAnalyticUnit
p1704
(dp1705
g53
(dp1706
g219
(dp1707
Vtx B-tx A
p1708
(dp1709
g223
Nsg224
Nsg225
Nsg226
Nsg227
Nsg228
Nsg229
NssVtx A-tx B
p1710
(dp1711
g223
Nsg224
Nsg225
Nsg226
Nsg227
Nsg228
Nsg229
Nsssg232
(dp1712
g70
(dp1713
g223
Nsg224
Nsg225
Nsg226
Nsg227
Nsg228
Nsg229
Nssg72
(dp1714
g223
Nsg224
Nsg225
Nsg226
Nsg227
Nsg228
Nsg229
Nsssg236
(dp1715
g70
(dp1716
g223
Nsg224
Nsg225
Nsg226
Nsg227
Nsg228
Nsg229
Nssg72
(dp1717
g223
Nsg224
Nsg225
Nsg226
Nsg227
Nsg228
Nsg229
Nsssg240
(dp1718
Vtx B-tx A
p1719
(dp1720
g223
F3.020300910481928
sg224
F0.18562988537503844
sg225
F1.6029653979284832
sg226
F20.49745865645572
sg227
F4.967741935483873
sg228
F1.2039765685680508
sg229
NssVtx A-tx B
p1721
(dp1722
g223
F-0.18562988537503822
sg224
F-3.0203009104819283
sg225
F-1.6029653979284832
sg226
F0.8305809482566175
sg227
F0.20129870129870123
sg228
F0.048786535773060205
sg229
Nsssg246
(dp1723
Vtx B-tx A
p1724
(dp1725
g223
Nsg224
Nsg225
Nsg226
Nsg227
Nsg228
Nsg229
NssVtx A-tx B
p1726
(dp1727
g223
Nsg224
Nsg225
Nsg226
Nsg227
Nsg228
Nsg229
Nsssg252
(dp1728
Vtx B-tx A
p1729
(dp1730
g223
Nsg224
Nsg225
Nsg226
Nsg227
Nsg228
Nsg229
NssVtx A-tx B
p1731
(dp1732
g223
Nsg224
Nsg225
Nsg226
Nsg227
Nsg228
Nsg229
Nsssg258
(dp1733
Vtx B-tx A
p1734
(dp1735
g223
Nsg224
Nsg225
Nsg226
Nsg227
Nsg228
Nsg229
NssVtx A-tx B
p1736
(dp1737
g223
Nsg224
Nsg225
Nsg226
Nsg227
Nsg228
Nsg229
Nsssg264
(dp1738
Vtx B-tx A
p1739
(dp1740
g223
Nsg224
Nsg225
Nsg226
Nsg227
Nsg228
Nsg229
NssVtx A-tx B
p1741
(dp1742
g223
Nsg224
Nsg225
Nsg226
Nsg227
Nsg228
Nsg229
Nsssg270
(dp1743
g70
(dp1744
g223
Nsg224
Nsg225
Nsg226
Nsg227
Nsg228
Nsg229
Nssg72
(dp1745
g223
Nsg224
Nsg225
Nsg226
Nsg227
Nsg228
Nsg229
Nsssg274
(dp1746
g70
(dp1747
g223
Nsg224
Nsg225
Nsg226
Nsg227
Nsg228
Nsg229
Nssg72
(dp1748
g223
Nsg224
Nsg225
Nsg226
Nsg227
Nsg228
Nsg229
Nsssg278
(dp1749
g70
(dp1750
g223
Nsg224
Nsg225
Nsg226
Nsg227
Nsg228
Nsg229
Nssg72
(dp1751
g223
Nsg224
Nsg225
Nsg226
Nsg227
Nsg228
Nsg229
Nsssg282
(dp1752
Vtx B-tx A
p1753
(dp1754
g223
F3.5825919439233846
sg224
F0.3516327694884478
sg225
F1.9671123567059163
sg226
F35.96664365978304
sg227
F7.15
sg228
F1.4213864513903431
sg229
NssVtx A-tx B
p1755
(dp1756
g223
F-0.35163276948844757
sg224
F-3.582591943923385
sg225
F-1.9671123567059163
sg226
F0.703538435322982
sg227
F0.13986013985956872
sg228
F0.02780353956467611
sg288
F95.0
sg289
Nsg229
F0.8242394247854379
ssssg126
(dp1757
g70
(ima_dataset
TreatmentGroup
p1758
(dp1759
g130
(lp1760
F2.0
aF28.0
asg132
I0
sg36
g133
sbsg72
(ima_dataset
TreatmentGroup
p1761
(dp1762
g130
(lp1763
F11.0
aF31.0
asg132
I1
sg36
g137
sbssg138
g42
sg29
I00
sg139
I2
sbsssg297
I00
sg298
I1988
sg299
Nsg132
I8
sba(ima_dataset
Study
p1764
(dp1765
g35
I01
sg36
VDe Vries
p1766
sg38
(dp1767
sg25
g26
sg40
(lp1768
g42
ag46
asg48
(dp1769
g7
(dp1770
g12
(ima_dataset
MetaAnalyticUnit
p1771
(dp1772
g53
(dp1773
g55
(dp1774
Vtx B-tx A
p1775
(dp1776
g59
Nsg60
Nsg61
Nsg62
Nsg63
Nsg64
Nsg65
NssVtx A-tx B
p1777
(dp1778
g59
Nsg60
Nsg61
Nsg62
Nsg63
Nsg64
Nsg65
Nsssg68
(dp1779
g70
(dp1780
g59
Nsg60
Nsg61
Nsg62
Nsg63
Nsg64
Nsg65
Nssg72
(dp1781
g59
Nsg60
Nsg61
Nsg62
Nsg63
Nsg64
Nsg65
Nsssg74
(dp1782
g70
(dp1783
g59
Nsg60
Nsg61
Nsg62
Nsg63
Nsg64
Nsg65
Nssg72
(dp1784
g59
Nsg60
Nsg61
Nsg62
Nsg63
Nsg64
Nsg65
Nsssg78
(dp1785
Vtx B-tx A
p1786
(dp1787
g59
Nsg60
Nsg61
Nsg62
Nsg63
Nsg64
Nsg65
NssVtx A-tx B
p1788
(dp1789
g59
F1.1269703140938612
sg60
F-0.6806832114654416
sg61
F0.2231435513142097
sg62
F3.0862918264291834
sg63
F1.25
sg64
F0.5062709840397046
sg65
Nsssg84
(dp1790
Vtx B-tx A
p1791
(dp1792
g59
Nsg60
Nsg61
Nsg62
Nsg63
Nsg64
Nsg65
NssVtx A-tx B
p1793
(dp1794
g59
Nsg60
Nsg61
Nsg62
Nsg63
Nsg64
Nsg65
Nsssg90
(dp1795
Vtx B-tx A
p1796
(dp1797
g59
Nsg60
Nsg61
Nsg62
Nsg63
Nsg64
Nsg65
NssVtx A-tx B
p1798
(dp1799
g59
Nsg60
Nsg61
Nsg62
Nsg63
Nsg64
Nsg65
Nsssg96
(dp1800
Vtx B-tx A
p1801
(dp1802
g59
Nsg60
Nsg61
Nsg62
Nsg63
Nsg64
Nsg65
NssVtx A-tx B
p1803
(dp1804
g59
Nsg60
Nsg61
Nsg62
Nsg63
Nsg64
Nsg65
Nsssg102
(dp1805
Vtx B-tx A
p1806
(dp1807
g59
Nsg60
Nsg61
Nsg62
Nsg63
Nsg64
Nsg65
NssVtx A-tx B
p1808
(dp1809
g59
Nsg60
Nsg61
Nsg62
Nsg63
Nsg64
Nsg65
Nsssg108
(dp1810
g70
(dp1811
g59
Nsg60
Nsg61
Nsg62
Nsg63
Nsg64
Nsg65
Nssg72
(dp1812
g59
Nsg60
Nsg61
Nsg62
Nsg63
Nsg64
Nsg65
Nsssg112
(dp1813
g70
(dp1814
g59
Nsg60
Nsg61
Nsg62
Nsg63
Nsg64
Nsg65
Nssg72
(dp1815
g59
Nsg60
Nsg61
Nsg62
Nsg63
Nsg64
Nsg65
Nsssg116
(dp1816
g70
(dp1817
g59
Nsg60
Nsg61
Nsg62
Nsg63
Nsg64
Nsg65
Nssg72
(dp1818
g59
Nsg60
Nsg61
Nsg62
Nsg63
Nsg64
Nsg65
Nsssg120
(dp1819
Vtx B-tx A
p1820
(dp1821
g59
F0.7557632402216286
sg60
F-1.2514355680307914
sg61
F-0.2478361639045814
sg62
F2.1292360219083806
sg63
F0.7804878048780487
sg64
F0.28609379481443264
sg65
NssVtx A-tx B
p1822
(dp1823
g59
F1.2514355680307914
sg60
F-0.7557632402216286
sg61
F0.2478361639045814
sg62
F3.4953571804960823
sg63
F1.2812500000000002
sg64
F0.46965202058892713
sg65
Nssssg126
(dp1824
g70
(ima_dataset
TreatmentGroup
p1825
(dp1826
g130
(lp1827
F9.0
aF81.0
asg132
I0
sg36
g133
sbsg72
(ima_dataset
TreatmentGroup
p1828
(dp1829
g130
(lp1830
F8.0
aF90.0
asg132
I1
sg36
g137
sbssg138
g46
sg29
I00
sg139
I2
sbssg18
(dp1831
N(ima_dataset
MetaAnalyticUnit
p1832
(dp1833
g29
I00
sg126
(dp1834
g144
(ima_dataset
TreatmentGroup
p1835
(dp1836
g130
(lp1837
g26
ag26
asg132
I0
sg36
g144
sbsg148
(ima_dataset
TreatmentGroup
p1838
(dp1839
g130
(lp1840
g26
ag26
asg132
I1
sg36
g148
sbssg138
g42
sg53
(dp1841
g153
(dp1842
S'tx B-tx A'
p1843
(dp1844
g157
Nsg158
Nsg159
Nsg160
Nsg161
Nsg162
Nsg163
NssS'tx A-tx B'
p1845
(dp1846
g157
Nsg158
Nsg159
Nsg160
Nsg161
Nsg162
Nsg163
Nsssg166
(dp1847
g144
(dp1848
g157
Nsg158
Nsg159
Nsg160
Nsg161
Nsg162
Nsg163
Nssg148
(dp1849
g157
Nsg158
Nsg159
Nsg160
Nsg161
Nsg162
Nsg163
Nsssg170
(dp1850
g144
(dp1851
g157
Nsg158
Nsg159
Nsg160
Nsg161
Nsg162
Nsg163
Nssg148
(dp1852
g157
Nsg158
Nsg159
Nsg160
Nsg161
Nsg162
Nsg163
Nsssg174
(dp1853
S'tx B-tx A'
p1854
(dp1855
g157
Nsg158
Nsg159
Nsg160
Nsg161
Nsg162
Nsg163
NssS'tx A-tx B'
p1856
(dp1857
g157
Nsg158
Nsg159
Nsg160
Nsg161
Nsg162
Nsg163
Nsssg180
(dp1858
S'tx B-tx A'
p1859
(dp1860
g157
Nsg158
Nsg159
Nsg160
Nsg161
Nsg162
Nsg163
NssS'tx A-tx B'
p1861
(dp1862
g157
Nsg158
Nsg159
Nsg160
Nsg161
Nsg162
Nsg163
Nsssg186
(dp1863
S'tx B-tx A'
p1864
(dp1865
g157
Nsg158
Nsg159
Nsg160
Nsg161
Nsg162
Nsg163
NssS'tx A-tx B'
p1866
(dp1867
g157
Nsg158
Nsg159
Nsg160
Nsg161
Nsg162
Nsg163
Nsssg192
(dp1868
S'tx B-tx A'
p1869
(dp1870
g157
Nsg158
Nsg159
Nsg160
Nsg161
Nsg162
Nsg163
NssS'tx A-tx B'
p1871
(dp1872
g157
Nsg158
Nsg159
Nsg160
Nsg161
Nsg162
Nsg163
Nsssg198
(dp1873
g144
(dp1874
g157
Nsg158
Nsg159
Nsg160
Nsg161
Nsg162
Nsg163
Nssg148
(dp1875
g157
Nsg158
Nsg159
Nsg160
Nsg161
Nsg162
Nsg163
Nsssg202
(dp1876
g144
(dp1877
g157
Nsg158
Nsg159
Nsg160
Nsg161
Nsg162
Nsg163
Nssg148
(dp1878
g157
Nsg158
Nsg159
Nsg160
Nsg161
Nsg162
Nsg163
Nsssg206
(dp1879
g144
(dp1880
g157
Nsg158
Nsg159
Nsg160
Nsg161
Nsg162
Nsg163
Nssg148
(dp1881
g157
Nsg158
Nsg159
Nsg160
Nsg161
Nsg162
Nsg163
Nsssg210
(dp1882
S'tx B-tx A'
p1883
(dp1884
g157
Nsg158
Nsg159
Nsg160
Nsg161
Nsg162
Nsg163
NssS'tx A-tx B'
p1885
(dp1886
g157
Nsg158
Nsg159
Nsg160
Nsg161
Nsg162
Nsg163
Nssssg139
I2
sbsg20
(ima_dataset
MetaAnalyticUnit
p1887
(dp1888
g53
(dp1889
g219
(dp1890
Vtx B-tx A
p1891
(dp1892
g223
Nsg224
Nsg225
Nsg226
Nsg227
Nsg228
Nsg229
NssVtx A-tx B
p1893
(dp1894
g223
Nsg224
Nsg225
Nsg226
Nsg227
Nsg228
Nsg229
Nsssg232
(dp1895
g70
(dp1896
g223
Nsg224
Nsg225
Nsg226
Nsg227
Nsg228
Nsg229
Nssg72
(dp1897
g223
Nsg224
Nsg225
Nsg226
Nsg227
Nsg228
Nsg229
Nsssg236
(dp1898
g70
(dp1899
g223
Nsg224
Nsg225
Nsg226
Nsg227
Nsg228
Nsg229
Nssg72
(dp1900
g223
Nsg224
Nsg225
Nsg226
Nsg227
Nsg228
Nsg229
Nsssg240
(dp1901
Vtx B-tx A
p1902
(dp1903
g223
F0.7080222801072305
sg224
F-1.99173005245202
sg225
F-0.6418538861723948
sg226
F2.0299725689040127
sg227
F0.5263157894736842
sg228
F0.1364591396419041
sg229
NssVtx A-tx B
p1904
(dp1905
g223
F1.99173005245202
sg224
F-0.7080222801072305
sg225
F0.6418538861723948
sg226
F7.328200973743487
sg227
F1.9000000000000001
sg228
F0.4926174941072738
sg229
Nsssg246
(dp1906
Vtx B-tx A
p1907
(dp1908
g223
Nsg224
Nsg225
Nsg226
Nsg227
Nsg228
Nsg229
NssVtx A-tx B
p1909
(dp1910
g223
Nsg224
Nsg225
Nsg226
Nsg227
Nsg228
Nsg229
Nsssg252
(dp1911
Vtx B-tx A
p1912
(dp1913
g223
Nsg224
Nsg225
Nsg226
Nsg227
Nsg228
Nsg229
NssVtx A-tx B
p1914
(dp1915
g223
Nsg224
Nsg225
Nsg226
Nsg227
Nsg228
Nsg229
Nsssg258
(dp1916
Vtx B-tx A
p1917
(dp1918
g223
Nsg224
Nsg225
Nsg226
Nsg227
Nsg228
Nsg229
NssVtx A-tx B
p1919
(dp1920
g223
Nsg224
Nsg225
Nsg226
Nsg227
Nsg228
Nsg229
Nsssg264
(dp1921
Vtx B-tx A
p1922
(dp1923
g223
Nsg224
Nsg225
Nsg226
Nsg227
Nsg228
Nsg229
NssVtx A-tx B
p1924
(dp1925
g223
Nsg224
Nsg225
Nsg226
Nsg227
Nsg228
Nsg229
Nsssg270
(dp1926
g70
(dp1927
g223
Nsg224
Nsg225
Nsg226
Nsg227
Nsg228
Nsg229
Nssg72
(dp1928
g223
Nsg224
Nsg225
Nsg226
Nsg227
Nsg228
Nsg229
Nsssg274
(dp1929
g70
(dp1930
g223
Nsg224
Nsg225
Nsg226
Nsg227
Nsg228
Nsg229
Nssg72
(dp1931
g223
Nsg224
Nsg225
Nsg226
Nsg227
Nsg228
Nsg229
Nsssg278
(dp1932
g70
(dp1933
g223
Nsg224
Nsg225
Nsg226
Nsg227
Nsg228
Nsg229
Nssg72
(dp1934
g223
Nsg224
Nsg225
Nsg226
Nsg227
Nsg228
Nsg229
Nsssg282
(dp1935
Vtx B-tx A
p1936
(dp1937
g223
F0.7435760842050816
sg224
F-2.102659141213415
sg225
F-0.6795415285041666
sg226
F2.1034441741803063
sg227
F0.5068493150684932
sg228
F0.12213123188092734
sg229
NssVtx A-tx B
p1938
(dp1939
g223
F2.102659141213415
sg224
F-0.7435760842050816
sg225
F0.6795415285041666
sg226
F8.187913808742568
sg227
F1.972972972972644
sg228
F0.4754107631070232
sg288
F95.0
sg289
Nsg229
F0.7260937567907465
ssssg126
(dp1940
g70
(ima_dataset
TreatmentGroup
p1941
(dp1942
g130
(lp1943
F6.0
aF80.0
asg132
I0
sg36
g133
sbsg72
(ima_dataset
TreatmentGroup
p1944
(dp1945
g130
(lp1946
F3.0
aF76.0
asg132
I1
sg36
g137
sbssg138
g42
sg29
I00
sg139
I2
sbsssg297
I00
sg298
I1990
sg299
Nsg132
I9
sba(ima_dataset
Study
p1947
(dp1948
g35
I01
sg36
VMauracher
p1949
sg38
(dp1950
sg25
g26
sg40
(lp1951
g42
ag46
asg48
(dp1952
g7
(dp1953
g12
(ima_dataset
MetaAnalyticUnit
p1954
(dp1955
g53
(dp1956
g55
(dp1957
Vtx B-tx A
p1958
(dp1959
g59
Nsg60
Nsg61
Nsg62
Nsg63
Nsg64
Nsg65
NssVtx A-tx B
p1960
(dp1961
g59
Nsg60
Nsg61
Nsg62
Nsg63
Nsg64
Nsg65
Nsssg68
(dp1962
g70
(dp1963
g59
Nsg60
Nsg61
Nsg62
Nsg63
Nsg64
Nsg65
Nssg72
(dp1964
g59
Nsg60
Nsg61
Nsg62
Nsg63
Nsg64
Nsg65
Nsssg74
(dp1965
g70
(dp1966
g59
Nsg60
Nsg61
Nsg62
Nsg63
Nsg64
Nsg65
Nssg72
(dp1967
g59
Nsg60
Nsg61
Nsg62
Nsg63
Nsg64
Nsg65
Nsssg78
(dp1968
Vtx B-tx A
p1969
(dp1970
g59
Nsg60
Nsg61
Nsg62
Nsg63
Nsg64
Nsg65
NssVtx A-tx B
p1971
(dp1972
g59
F1.9494696856374196
sg60
F-1.927847853428989
sg61
F0.010810916104215362
sg62
F7.02496115479111
sg63
F1.0108695652173911
sg64
F0.14546091506653783
sg65
Nsssg84
(dp1973
Vtx B-tx A
p1974
(dp1975
g59
Nsg60
Nsg61
Nsg62
Nsg63
Nsg64
Nsg65
NssVtx A-tx B
p1976
(dp1977
g59
Nsg60
Nsg61
Nsg62
Nsg63
Nsg64
Nsg65
Nsssg90
(dp1978
Vtx B-tx A
p1979
(dp1980
g59
Nsg60
Nsg61
Nsg62
Nsg63
Nsg64
Nsg65
NssVtx A-tx B
p1981
(dp1982
g59
Nsg60
Nsg61
Nsg62
Nsg63
Nsg64
Nsg65
Nsssg96
(dp1983
Vtx B-tx A
p1984
(dp1985
g59
Nsg60
Nsg61
Nsg62
Nsg63
Nsg64
Nsg65
NssVtx A-tx B
p1986
(dp1987
g59
Nsg60
Nsg61
Nsg62
Nsg63
Nsg64
Nsg65
Nsssg102
(dp1988
Vtx B-tx A
p1989
(dp1990
g59
Nsg60
Nsg61
Nsg62
Nsg63
Nsg64
Nsg65
NssVtx A-tx B
p1991
(dp1992
g59
Nsg60
Nsg61
Nsg62
Nsg63
Nsg64
Nsg65
Nsssg108
(dp1993
g70
(dp1994
g59
Nsg60
Nsg61
Nsg62
Nsg63
Nsg64
Nsg65
Nssg72
(dp1995
g59
Nsg60
Nsg61
Nsg62
Nsg63
Nsg64
Nsg65
Nsssg112
(dp1996
g70
(dp1997
g59
Nsg60
Nsg61
Nsg62
Nsg63
Nsg64
Nsg65
Nssg72
(dp1998
g59
Nsg60
Nsg61
Nsg62
Nsg63
Nsg64
Nsg65
Nsssg116
(dp1999
g70
(dp2000
g59
Nsg60
Nsg61
Nsg62
Nsg63
Nsg64
Nsg65
Nssg72
(dp2001
g59
Nsg60
Nsg61
Nsg62
Nsg63
Nsg64
Nsg65
Nsssg120
(dp2002
Vtx B-tx A
p2003
(dp2004
g59
F1.9704535147250544
sg60
F-1.9925531870982238
sg61
F-0.011049836186584727
sg62
F7.173929233250784
sg63
F0.9890109890109893
sg64
F0.13634686161258117
sg65
NssVtx A-tx B
p2005
(dp2006
g59
F1.9925531870982238
sg60
F-1.9704535147250544
sg61
F0.011049836186584727
sg62
F7.3342355531542855
sg63
F1.0111111111111108
sg64
F0.13939362481651654
sg65
Nssssg126
(dp2007
g70
(ima_dataset
TreatmentGroup
p2008
(dp2009
g130
(lp2010
F2.0
aF92.0
asg132
I0
sg36
g133
sbsg72
(ima_dataset
TreatmentGroup
p2011
(dp2012
g130
(lp2013
F2.0
aF93.0
asg132
I1
sg36
g137
sbssg138
g46
sg29
I00
sg139
I2
sbssg18
(dp2014
N(ima_dataset
MetaAnalyticUnit
p2015
(dp2016
g29
I00
sg126
(dp2017
g144
(ima_dataset
TreatmentGroup
p2018
(dp2019
g130
(lp2020
g26
ag26
asg132
I0
sg36
g144
sbsg148
(ima_dataset
TreatmentGroup
p2021
(dp2022
g130
(lp2023
g26
ag26
asg132
I1
sg36
g148
sbssg138
g42
sg53
(dp2024
g153
(dp2025
S'tx B-tx A'
p2026
(dp2027
g157
Nsg158
Nsg159
Nsg160
Nsg161
Nsg162
Nsg163
NssS'tx A-tx B'
p2028
(dp2029
g157
Nsg158
Nsg159
Nsg160
Nsg161
Nsg162
Nsg163
Nsssg166
(dp2030
g144
(dp2031
g157
Nsg158
Nsg159
Nsg160
Nsg161
Nsg162
Nsg163
Nssg148
(dp2032
g157
Nsg158
Nsg159
Nsg160
Nsg161
Nsg162
Nsg163
Nsssg170
(dp2033
g144
(dp2034
g157
Nsg158
Nsg159
Nsg160
Nsg161
Nsg162
Nsg163
Nssg148
(dp2035
g157
Nsg158
Nsg159
Nsg160
Nsg161
Nsg162
Nsg163
Nsssg174
(dp2036
S'tx B-tx A'
p2037
(dp2038
g157
Nsg158
Nsg159
Nsg160
Nsg161
Nsg162
Nsg163
NssS'tx A-tx B'
p2039
(dp2040
g157
Nsg158
Nsg159
Nsg160
Nsg161
Nsg162
Nsg163
Nsssg180
(dp2041
S'tx B-tx A'
p2042
(dp2043
g157
Nsg158
Nsg159
Nsg160
Nsg161
Nsg162
Nsg163
NssS'tx A-tx B'
p2044
(dp2045
g157
Nsg158
Nsg159
Nsg160
Nsg161
Nsg162
Nsg163
Nsssg186
(dp2046
S'tx B-tx A'
p2047
(dp2048
g157
Nsg158
Nsg159
Nsg160
Nsg161
Nsg162
Nsg163
NssS'tx A-tx B'
p2049
(dp2050
g157
Nsg158
Nsg159
Nsg160
Nsg161
Nsg162
Nsg163
Nsssg192
(dp2051
S'tx B-tx A'
p2052
(dp2053
g157
Nsg158
Nsg159
Nsg160
Nsg161
Nsg162
Nsg163
NssS'tx A-tx B'
p2054
(dp2055
g157
Nsg158
Nsg159
Nsg160
Nsg161
Nsg162
Nsg163
Nsssg198
(dp2056
g144
(dp2057
g157
Nsg158
Nsg159
Nsg160
Nsg161
Nsg162
Nsg163
Nssg148
(dp2058
g157
Nsg158
Nsg159
Nsg160
Nsg161
Nsg162
Nsg163
Nsssg202
(dp2059
g144
(dp2060
g157
Nsg158
Nsg159
Nsg160
Nsg161
Nsg162
Nsg163
Nssg148
(dp2061
g157
Nsg158
Nsg159
Nsg160
Nsg161
Nsg162
Nsg163
Nsssg206
(dp2062
g144
(dp2063
g157
Nsg158
Nsg159
Nsg160
Nsg161
Nsg162
Nsg163
Nssg148
(dp2064
g157
Nsg158
Nsg159
Nsg160
Nsg161
Nsg162
Nsg163
Nsssg210
(dp2065
S'tx B-tx A'
p2066
(dp2067
g157
Nsg158
Nsg159
Nsg160
Nsg161
Nsg162
Nsg163
NssS'tx A-tx B'
p2068
(dp2069
g157
Nsg158
Nsg159
Nsg160
Nsg161
Nsg162
Nsg163
Nssssg139
I2
sbsg20
(ima_dataset
MetaAnalyticUnit
p2070
(dp2071
g53
(dp2072
g219
(dp2073
Vtx B-tx A
p2074
(dp2075
g223
Nsg224
Nsg225
Nsg226
Nsg227
Nsg228
Nsg229
NssVtx A-tx B
p2076
(dp2077
g223
Nsg224
Nsg225
Nsg226
Nsg227
Nsg228
Nsg229
Nsssg232
(dp2078
g70
(dp2079
g223
Nsg224
Nsg225
Nsg226
Nsg227
Nsg228
Nsg229
Nssg72
(dp2080
g223
Nsg224
Nsg225
Nsg226
Nsg227
Nsg228
Nsg229
Nsssg236
(dp2081
g70
(dp2082
g223
Nsg224
Nsg225
Nsg226
Nsg227
Nsg228
Nsg229
Nssg72
(dp2083
g223
Nsg224
Nsg225
Nsg226
Nsg227
Nsg228
Nsg229
Nsssg240
(dp2084
Vtx B-tx A
p2085
(dp2086
g223
F5.41637543440998
sg224
F-0.30786729772040333
sg225
F2.5542540683447883
sg226
F225.0618907568366
sg227
F12.861702127659568
sg228
F0.7350128494182561
sg229
NssVtx A-tx B
p2087
(dp2088
g223
F0.30786729772040333
sg224
F-5.41637543440998
sg225
F-2.5542540683447883
sg226
F1.3605204327944396
sg227
F0.07775020678246489
sg228
F0.004443222247165909
sg229
Nsssg246
(dp2089
Vtx B-tx A
p2090
(dp2091
g223
Nsg224
Nsg225
Nsg226
Nsg227
Nsg228
Nsg229
NssVtx A-tx B
p2092
(dp2093
g223
Nsg224
Nsg225
Nsg226
Nsg227
Nsg228
Nsg229
Nsssg252
(dp2094
Vtx B-tx A
p2095
(dp2096
g223
Nsg224
Nsg225
Nsg226
Nsg227
Nsg228
Nsg229
NssVtx A-tx B
p2097
(dp2098
g223
Nsg224
Nsg225
Nsg226
Nsg227
Nsg228
Nsg229
Nsssg258
(dp2099
Vtx B-tx A
p2100
(dp2101
g223
Nsg224
Nsg225
Nsg226
Nsg227
Nsg228
Nsg229
NssVtx A-tx B
p2102
(dp2103
g223
Nsg224
Nsg225
Nsg226
Nsg227
Nsg228
Nsg229
Nsssg264
(dp2104
Vtx B-tx A
p2105
(dp2106
g223
Nsg224
Nsg225
Nsg226
Nsg227
Nsg228
Nsg229
NssVtx A-tx B
p2107
(dp2108
g223
Nsg224
Nsg225
Nsg226
Nsg227
Nsg228
Nsg229
Nsssg270
(dp2109
g70
(dp2110
g223
Nsg224
Nsg225
Nsg226
Nsg227
Nsg228
Nsg229
Nssg72
(dp2111
g223
Nsg224
Nsg225
Nsg226
Nsg227
Nsg228
Nsg229
Nsssg274
(dp2112
g70
(dp2113
g223
Nsg224
Nsg225
Nsg226
Nsg227
Nsg228
Nsg229
Nssg72
(dp2114
g223
Nsg224
Nsg225
Nsg226
Nsg227
Nsg228
Nsg229
Nsssg278
(dp2115
g70
(dp2116
g223
Nsg224
Nsg225
Nsg226
Nsg227
Nsg228
Nsg229
Nssg72
(dp2117
g223
Nsg224
Nsg225
Nsg226
Nsg227
Nsg228
Nsg229
Nsssg282
(dp2118
Vtx B-tx A
p2119
(dp2120
g223
F5.511772047297303
sg224
F-0.27073363006460793
sg225
F2.620519208616347
sg226
F247.58947882968926
sg227
F13.742857142857138
sg228
F0.7628196615692863
sg229
NssVtx A-tx B
p2121
(dp2122
g223
F0.2707336300646084
sg224
F-5.511772047297303
sg225
F-2.620519208616347
sg226
F1.3109258326446045
sg227
F0.07276507276480698
sg228
F0.004038943838502839
sg288
F95.0
sg289
Nsg229
F1.4751561056666294
ssssg126
(dp2123
g70
(ima_dataset
TreatmentGroup
p2124
(dp2125
g130
(lp2126
F0.0
aF92.0
asg132
I0
sg36
g133
sbsg72
(ima_dataset
TreatmentGroup
p2127
(dp2128
g130
(lp2129
F6.0
aF93.0
asg132
I1
sg36
g137
sbssg138
g42
sg29
I00
sg139
I2
sbsssg297
I00
sg298
I1989
sg299
Nsg132
I10
sba(ima_dataset
Study
p2130
(dp2131
g35
I01
sg36
VNordstrom
p2132
sg38
(dp2133
sg25
g26
sg40
(lp2134
g42
ag46
asg48
(dp2135
g7
(dp2136
g12
(ima_dataset
MetaAnalyticUnit
p2137
(dp2138
g53
(dp2139
g55
(dp2140
Vtx B-tx A
p2141
(dp2142
g59
Nsg60
Nsg61
Nsg62
Nsg63
Nsg64
Nsg65
NssVtx A-tx B
p2143
(dp2144
g59
Nsg60
Nsg61
Nsg62
Nsg63
Nsg64
Nsg65
Nsssg68
(dp2145
g70
(dp2146
g59
Nsg60
Nsg61
Nsg62
Nsg63
Nsg64
Nsg65
Nssg72
(dp2147
g59
Nsg60
Nsg61
Nsg62
Nsg63
Nsg64
Nsg65
Nsssg74
(dp2148
g70
(dp2149
g59
Nsg60
Nsg61
Nsg62
Nsg63
Nsg64
Nsg65
Nssg72
(dp2150
g59
Nsg60
Nsg61
Nsg62
Nsg63
Nsg64
Nsg65
Nsssg78
(dp2151
Vtx B-tx A
p2152
(dp2153
g59
Nsg60
Nsg61
Nsg62
Nsg63
Nsg64
Nsg65
NssVtx A-tx B
p2154
(dp2155
g59
F0.6684047722418958
sg60
F-1.9868960300104235
sg61
F-0.6592456288842639
sg62
F1.9511223522187486
sg63
F0.5172413793103449
sg64
F0.13712038313057734
sg65
Nsssg84
(dp2156
Vtx B-tx A
p2157
(dp2158
g59
Nsg60
Nsg61
Nsg62
Nsg63
Nsg64
Nsg65
NssVtx A-tx B
p2159
(dp2160
g59
Nsg60
Nsg61
Nsg62
Nsg63
Nsg64
Nsg65
Nsssg90
(dp2161
Vtx B-tx A
p2162
(dp2163
g59
Nsg60
Nsg61
Nsg62
Nsg63
Nsg64
Nsg65
NssVtx A-tx B
p2164
(dp2165
g59
Nsg60
Nsg61
Nsg62
Nsg63
Nsg64
Nsg65
Nsssg96
(dp2166
Vtx B-tx A
p2167
(dp2168
g59
Nsg60
Nsg61
Nsg62
Nsg63
Nsg64
Nsg65
NssVtx A-tx B
p2169
(dp2170
g59
Nsg60
Nsg61
Nsg62
Nsg63
Nsg64
Nsg65
Nsssg102
(dp2171
Vtx B-tx A
p2172
(dp2173
g59
Nsg60
Nsg61
Nsg62
Nsg63
Nsg64
Nsg65
NssVtx A-tx B
p2174
(dp2175
g59
Nsg60
Nsg61
Nsg62
Nsg63
Nsg64
Nsg65
Nsssg108
(dp2176
g70
(dp2177
g59
Nsg60
Nsg61
Nsg62
Nsg63
Nsg64
Nsg65
Nssg72
(dp2178
g59
Nsg60
Nsg61
Nsg62
Nsg63
Nsg64
Nsg65
Nsssg112
(dp2179
g70
(dp2180
g59
Nsg60
Nsg61
Nsg62
Nsg63
Nsg64
Nsg65
Nssg72
(dp2181
g59
Nsg60
Nsg61
Nsg62
Nsg63
Nsg64
Nsg65
Nsssg116
(dp2182
g70
(dp2183
g59
Nsg60
Nsg61
Nsg62
Nsg63
Nsg64
Nsg65
Nssg72
(dp2184
g59
Nsg60
Nsg61
Nsg62
Nsg63
Nsg64
Nsg65
Nsssg120
(dp2185
Vtx B-tx A
p2186
(dp2187
g59
F2.3186993171658266
sg60
F-0.7723195406988625
sg61
F0.773189888233482
sg62
F10.16244758492658
sg63
F2.1666666666666674
sg64
F0.46194033526012646
sg65
NssVtx A-tx B
p2188
(dp2189
g59
F0.7723195406988625
sg60
F-2.3186993171658266
sg61
F-0.773189888233482
sg62
F2.1647817340671995
sg63
F0.4615384615384614
sg64
F0.09840149153470144
sg65
Nssssg126
(dp2190
g70
(ima_dataset
TreatmentGroup
p2191
(dp2192
g130
(lp2193
F3.0
aF29.0
asg132
I0
sg36
g133
sbsg72
(ima_dataset
TreatmentGroup
p2194
(dp2195
g130
(lp2196
F5.0
aF25.0
asg132
I1
sg36
g137
sbssg138
g46
sg29
I00
sg139
I2
sbssg18
(dp2197
N(ima_dataset
MetaAnalyticUnit
p2198
(dp2199
g29
I00
sg126
(dp2200
g144
(ima_dataset
TreatmentGroup
p2201
(dp2202
g130
(lp2203
g26
ag26
asg132
I0
sg36
g144
sbsg148
(ima_dataset
TreatmentGroup
p2204
(dp2205
g130
(lp2206
g26
ag26
asg132
I1
sg36
g148
sbssg138
g42
sg53
(dp2207
g153
(dp2208
S'tx B-tx A'
p2209
(dp2210
g157
Nsg158
Nsg159
Nsg160
Nsg161
Nsg162
Nsg163
NssS'tx A-tx B'
p2211
(dp2212
g157
Nsg158
Nsg159
Nsg160
Nsg161
Nsg162
Nsg163
Nsssg166
(dp2213
g144
(dp2214
g157
Nsg158
Nsg159
Nsg160
Nsg161
Nsg162
Nsg163
Nssg148
(dp2215
g157
Nsg158
Nsg159
Nsg160
Nsg161
Nsg162
Nsg163
Nsssg170
(dp2216
g144
(dp2217
g157
Nsg158
Nsg159
Nsg160
Nsg161
Nsg162
Nsg163
Nssg148
(dp2218
g157
Nsg158
Nsg159
Nsg160
Nsg161
Nsg162
Nsg163
Nsssg174
(dp2219
S'tx B-tx A'
p2220
(dp2221
g157
Nsg158
Nsg159
Nsg160
Nsg161
Nsg162
Nsg163
NssS'tx A-tx B'
p2222
(dp2223
g157
Nsg158
Nsg159
Nsg160
Nsg161
Nsg162
Nsg163
Nsssg180
(dp2224
S'tx B-tx A'
p2225
(dp2226
g157
Nsg158
Nsg159
Nsg160
Nsg161
Nsg162
Nsg163
NssS'tx A-tx B'
p2227
(dp2228
g157
Nsg158
Nsg159
Nsg160
Nsg161
Nsg162
Nsg163
Nsssg186
(dp2229
S'tx B-tx A'
p2230
(dp2231
g157
Nsg158
Nsg159
Nsg160
Nsg161
Nsg162
Nsg163
NssS'tx A-tx B'
p2232
(dp2233
g157
Nsg158
Nsg159
Nsg160
Nsg161
Nsg162
Nsg163
Nsssg192
(dp2234
S'tx B-tx A'
p2235
(dp2236
g157
Nsg158
Nsg159
Nsg160
Nsg161
Nsg162
Nsg163
NssS'tx A-tx B'
p2237
(dp2238
g157
Nsg158
Nsg159
Nsg160
Nsg161
Nsg162
Nsg163
Nsssg198
(dp2239
g144
(dp2240
g157
Nsg158
Nsg159
Nsg160
Nsg161
Nsg162
Nsg163
Nssg148
(dp2241
g157
Nsg158
Nsg159
Nsg160
Nsg161
Nsg162
Nsg163
Nsssg202
(dp2242
g144
(dp2243
g157
Nsg158
Nsg159
Nsg160
Nsg161
Nsg162
Nsg163
Nssg148
(dp2244
g157
Nsg158
Nsg159
Nsg160
Nsg161
Nsg162
Nsg163
Nsssg206
(dp2245
g144
(dp2246
g157
Nsg158
Nsg159
Nsg160
Nsg161
Nsg162
Nsg163
Nssg148
(dp2247
g157
Nsg158
Nsg159
Nsg160
Nsg161
Nsg162
Nsg163
Nsssg210
(dp2248
S'tx B-tx A'
p2249
(dp2250
g157
Nsg158
Nsg159
Nsg160
Nsg161
Nsg162
Nsg163
NssS'tx A-tx B'
p2251
(dp2252
g157
Nsg158
Nsg159
Nsg160
Nsg161
Nsg162
Nsg163
Nssssg139
I2
sbsg20
(ima_dataset
MetaAnalyticUnit
p2253
(dp2254
g53
(dp2255
g219
(dp2256
Vtx B-tx A
p2257
(dp2258
g223
Nsg224
Nsg225
Nsg226
Nsg227
Nsg228
Nsg229
NssVtx A-tx B
p2259
(dp2260
g223
Nsg224
Nsg225
Nsg226
Nsg227
Nsg228
Nsg229
Nsssg232
(dp2261
g70
(dp2262
g223
Nsg224
Nsg225
Nsg226
Nsg227
Nsg228
Nsg229
Nssg72
(dp2263
g223
Nsg224
Nsg225
Nsg226
Nsg227
Nsg228
Nsg229
Nsssg236
(dp2264
g70
(dp2265
g223
Nsg224
Nsg225
Nsg226
Nsg227
Nsg228
Nsg229
Nssg72
(dp2266
g223
Nsg224
Nsg225
Nsg226
Nsg227
Nsg228
Nsg229
Nsssg240
(dp2267
Vtx B-tx A
p2268
(dp2269
g223
F1.7613217055542154
sg224
F-1.0430396326863642
sg225
F0.3591410364339256
sg226
F5.820124804317393
sg227
F1.4320987654320982
sg228
F0.352381940749925
sg229
NssVtx A-tx B
p2270
(dp2271
g223
F1.043039632686364
sg224
F-1.7613217055542152
sg225
F-0.3591410364339256
sg226
F2.837829878204996
sg227
F0.6982758620689657
sg228
F0.17181762137784332
sg229
Nsssg246
(dp2272
Vtx B-tx A
p2273
(dp2274
g223
Nsg224
Nsg225
Nsg226
Nsg227
Nsg228
Nsg229
NssVtx A-tx B
p2275
(dp2276
g223
Nsg224
Nsg225
Nsg226
Nsg227
Nsg228
Nsg229
Nsssg252
(dp2277
Vtx B-tx A
p2278
(dp2279
g223
Nsg224
Nsg225
Nsg226
Nsg227
Nsg228
Nsg229
NssVtx A-tx B
p2280
(dp2281
g223
Nsg224
Nsg225
Nsg226
Nsg227
Nsg228
Nsg229
Nsssg258
(dp2282
Vtx B-tx A
p2283
(dp2284
g223
Nsg224
Nsg225
Nsg226
Nsg227
Nsg228
Nsg229
NssVtx A-tx B
p2285
(dp2286
g223
Nsg224
Nsg225
Nsg226
Nsg227
Nsg228
Nsg229
Nsssg264
(dp2287
Vtx B-tx A
p2288
(dp2289
g223
Nsg224
Nsg225
Nsg226
Nsg227
Nsg228
Nsg229
NssVtx A-tx B
p2290
(dp2291
g223
Nsg224
Nsg225
Nsg226
Nsg227
Nsg228
Nsg229
Nsssg270
(dp2292
g70
(dp2293
g223
Nsg224
Nsg225
Nsg226
Nsg227
Nsg228
Nsg229
Nssg72
(dp2294
g223
Nsg224
Nsg225
Nsg226
Nsg227
Nsg228
Nsg229
Nsssg274
(dp2295
g70
(dp2296
g223
Nsg224
Nsg225
Nsg226
Nsg227
Nsg228
Nsg229
Nssg72
(dp2297
g223
Nsg224
Nsg225
Nsg226
Nsg227
Nsg228
Nsg229
Nsssg278
(dp2298
g70
(dp2299
g223
Nsg224
Nsg225
Nsg226
Nsg227
Nsg228
Nsg229
Nssg72
(dp2300
g223
Nsg224
Nsg225
Nsg226
Nsg227
Nsg228
Nsg229
Nsssg282
(dp2301
Vtx B-tx A
p2302
(dp2303
g223
F2.0089148532945442
sg224
F-1.1883460642063173
sg225
F0.4102843945441135
sg226
F7.455222945688903
sg227
F1.5072463768115945
sg228
F0.3047248428332217
sg229
NssVtx A-tx B
p2304
(dp2305
g223
F1.1883460642063177
sg224
F-2.0089148532945447
sg225
F-0.4102843945441135
sg226
F3.2816490795632003
sg227
F0.6634615384616136
sg228
F0.1341341509555807
sg288
F95.0
sg289
Nsg229
F0.815642772704103
ssssg126
(dp2306
g70
(ima_dataset
TreatmentGroup
p2307
(dp2308
g130
(lp2309
F3.0
aF29.0
asg132
I0
sg36
g133
sbsg72
(ima_dataset
TreatmentGroup
p2310
(dp2311
g130
(lp2312
F4.0
aF27.0
asg132
I1
sg36
g137
sbssg138
g42
sg29
I00
sg139
I2
sbsssg297
I00
sg298
I1990
sg299
Nsg132
I11
sba(ima_dataset
Study
p2313
(dp2314
g35
I01
sg36
VRozdzinski
p2315
sg38
(dp2316
sg25
g26
sg40
(lp2317
g42
ag46
asg48
(dp2318
g7
(dp2319
g12
(ima_dataset
MetaAnalyticUnit
p2320
(dp2321
g53
(dp2322
g55
(dp2323
Vtx B-tx A
p2324
(dp2325
g59
Nsg60
Nsg61
Nsg62
Nsg63
Nsg64
Nsg65
NssVtx A-tx B
p2326
(dp2327
g59
Nsg60
Nsg61
Nsg62
Nsg63
Nsg64
Nsg65
Nsssg68
(dp2328
g70
(dp2329
g59
Nsg60
Nsg61
Nsg62
Nsg63
Nsg64
Nsg65
Nssg72
(dp2330
g59
Nsg60
Nsg61
Nsg62
Nsg63
Nsg64
Nsg65
Nsssg74
(dp2331
g70
(dp2332
g59
Nsg60
Nsg61
Nsg62
Nsg63
Nsg64
Nsg65
Nssg72
(dp2333
g59
Nsg60
Nsg61
Nsg62
Nsg63
Nsg64
Nsg65
Nsssg78
(dp2334
Vtx B-tx A
p2335
(dp2336
g59
Nsg60
Nsg61
Nsg62
Nsg63
Nsg64
Nsg65
NssVtx A-tx B
p2337
(dp2338
g59
F1.18691785225833
sg60
F-1.7343095132124118
sg61
F-0.27369583047704094
sg62
F3.27696553447024
sg63
F0.7605633802816902
sg64
F0.17652204435498442
sg65
Nsssg84
(dp2339
Vtx B-tx A
p2340
(dp2341
g59
Nsg60
Nsg61
Nsg62
Nsg63
Nsg64
Nsg65
NssVtx A-tx B
p2342
(dp2343
g59
Nsg60
Nsg61
Nsg62
Nsg63
Nsg64
Nsg65
Nsssg90
(dp2344
Vtx B-tx A
p2345
(dp2346
g59
Nsg60
Nsg61
Nsg62
Nsg63
Nsg64
Nsg65
NssVtx A-tx B
p2347
(dp2348
g59
Nsg60
Nsg61
Nsg62
Nsg63
Nsg64
Nsg65
Nsssg96
(dp2349
Vtx B-tx A
p2350
(dp2351
g59
Nsg60
Nsg61
Nsg62
Nsg63
Nsg64
Nsg65
NssVtx A-tx B
p2352
(dp2353
g59
Nsg60
Nsg61
Nsg62
Nsg63
Nsg64
Nsg65
Nsssg102
(dp2354
Vtx B-tx A
p2355
(dp2356
g59
Nsg60
Nsg61
Nsg62
Nsg63
Nsg64
Nsg65
NssVtx A-tx B
p2357
(dp2358
g59
Nsg60
Nsg61
Nsg62
Nsg63
Nsg64
Nsg65
Nsssg108
(dp2359
g70
(dp2360
g59
Nsg60
Nsg61
Nsg62
Nsg63
Nsg64
Nsg65
Nssg72
(dp2361
g59
Nsg60
Nsg61
Nsg62
Nsg63
Nsg64
Nsg65
Nsssg112
(dp2362
g70
(dp2363
g59
Nsg60
Nsg61
Nsg62
Nsg63
Nsg64
Nsg65
Nssg72
(dp2364
g59
Nsg60
Nsg61
Nsg62
Nsg63
Nsg64
Nsg65
Nsssg116
(dp2365
g70
(dp2366
g59
Nsg60
Nsg61
Nsg62
Nsg63
Nsg64
Nsg65
Nssg72
(dp2367
g59
Nsg60
Nsg61
Nsg62
Nsg63
Nsg64
Nsg65
Nsssg120
(dp2368
Vtx B-tx A
p2369
(dp2370
g59
F1.8219033934155555
sg60
F-1.246539248511994
sg61
F0.2876820724517808
sg62
F6.183617111748543
sg63
F1.3333333333333333
sg64
F0.2874980364486175
sg65
NssVtx A-tx B
p2371
(dp2372
g59
F1.246539248511994
sg60
F-1.8219033934155555
sg61
F-0.2876820724517808
sg62
F3.4782846253585564
sg63
F0.7500000000000001
sg64
F0.16171764550234738
sg65
Nssssg126
(dp2373
g70
(ima_dataset
TreatmentGroup
p2374
(dp2375
g130
(lp2376
F3.0
aF71.0
asg132
I0
sg36
g133
sbsg72
(ima_dataset
TreatmentGroup
p2377
(dp2378
g130
(lp2379
F4.0
aF72.0
asg132
I1
sg36
g137
sbssg138
g46
sg29
I00
sg139
I2
sbssg18
(dp2380
N(ima_dataset
MetaAnalyticUnit
p2381
(dp2382
g29
I00
sg126
(dp2383
g144
(ima_dataset
TreatmentGroup
p2384
(dp2385
g130
(lp2386
g26
ag26
asg132
I0
sg36
g144
sbsg148
(ima_dataset
TreatmentGroup
p2387
(dp2388
g130
(lp2389
g26
ag26
asg132
I1
sg36
g148
sbssg138
g42
sg53
(dp2390
g153
(dp2391
S'tx B-tx A'
p2392
(dp2393
g157
Nsg158
Nsg159
Nsg160
Nsg161
Nsg162
Nsg163
NssS'tx A-tx B'
p2394
(dp2395
g157
Nsg158
Nsg159
Nsg160
Nsg161
Nsg162
Nsg163
Nsssg166
(dp2396
g144
(dp2397
g157
Nsg158
Nsg159
Nsg160
Nsg161
Nsg162
Nsg163
Nssg148
(dp2398
g157
Nsg158
Nsg159
Nsg160
Nsg161
Nsg162
Nsg163
Nsssg170
(dp2399
g144
(dp2400
g157
Nsg158
Nsg159
Nsg160
Nsg161
Nsg162
Nsg163
Nssg148
(dp2401
g157
Nsg158
Nsg159
Nsg160
Nsg161
Nsg162
Nsg163
Nsssg174
(dp2402
S'tx B-tx A'
p2403
(dp2404
g157
Nsg158
Nsg159
Nsg160
Nsg161
Nsg162
Nsg163
NssS'tx A-tx B'
p2405
(dp2406
g157
Nsg158
Nsg159
Nsg160
Nsg161
Nsg162
Nsg163
Nsssg180
(dp2407
S'tx B-tx A'
p2408
(dp2409
g157
Nsg158
Nsg159
Nsg160
Nsg161
Nsg162
Nsg163
NssS'tx A-tx B'
p2410
(dp2411
g157
Nsg158
Nsg159
Nsg160
Nsg161
Nsg162
Nsg163
Nsssg186
(dp2412
S'tx B-tx A'
p2413
(dp2414
g157
Nsg158
Nsg159
Nsg160
Nsg161
Nsg162
Nsg163
NssS'tx A-tx B'
p2415
(dp2416
g157
Nsg158
Nsg159
Nsg160
Nsg161
Nsg162
Nsg163
Nsssg192
(dp2417
S'tx B-tx A'
p2418
(dp2419
g157
Nsg158
Nsg159
Nsg160
Nsg161
Nsg162
Nsg163
NssS'tx A-tx B'
p2420
(dp2421
g157
Nsg158
Nsg159
Nsg160
Nsg161
Nsg162
Nsg163
Nsssg198
(dp2422
g144
(dp2423
g157
Nsg158
Nsg159
Nsg160
Nsg161
Nsg162
Nsg163
Nssg148
(dp2424
g157
Nsg158
Nsg159
Nsg160
Nsg161
Nsg162
Nsg163
Nsssg202
(dp2425
g144
(dp2426
g157
Nsg158
Nsg159
Nsg160
Nsg161
Nsg162
Nsg163
Nssg148
(dp2427
g157
Nsg158
Nsg159
Nsg160
Nsg161
Nsg162
Nsg163
Nsssg206
(dp2428
g144
(dp2429
g157
Nsg158
Nsg159
Nsg160
Nsg161
Nsg162
Nsg163
Nssg148
(dp2430
g157
Nsg158
Nsg159
Nsg160
Nsg161
Nsg162
Nsg163
Nsssg210
(dp2431
S'tx B-tx A'
p2432
(dp2433
g157
Nsg158
Nsg159
Nsg160
Nsg161
Nsg162
Nsg163
NssS'tx A-tx B'
p2434
(dp2435
g157
Nsg158
Nsg159
Nsg160
Nsg161
Nsg162
Nsg163
Nssssg139
I2
sbsg20
(ima_dataset
MetaAnalyticUnit
p2436
(dp2437
g53
(dp2438
g219
(dp2439
Vtx B-tx A
p2440
(dp2441
g223
Nsg224
Nsg225
Nsg226
Nsg227
Nsg228
Nsg229
NssVtx A-tx B
p2442
(dp2443
g223
Nsg224
Nsg225
Nsg226
Nsg227
Nsg228
Nsg229
Nsssg232
(dp2444
g70
(dp2445
g223
Nsg224
Nsg225
Nsg226
Nsg227
Nsg228
Nsg229
Nssg72
(dp2446
g223
Nsg224
Nsg225
Nsg226
Nsg227
Nsg228
Nsg229
Nsssg236
(dp2447
g70
(dp2448
g223
Nsg224
Nsg225
Nsg226
Nsg227
Nsg228
Nsg229
Nssg72
(dp2449
g223
Nsg224
Nsg225
Nsg226
Nsg227
Nsg228
Nsg229
Nsssg240
(dp2450
Vtx B-tx A
p2451
(dp2452
g223
F0.5965247767974925
sg224
F-0.6244972607469726
sg225
F-0.013986241974740077
sg226
F1.8157975211477462
sg227
F0.9861111111111109
sg228
F0.5355305931038702
sg229
NssVtx A-tx B
p2453
(dp2454
g223
F0.6244972607469726
sg224
F-0.5965247767974925
sg225
F0.013986241974740077
sg226
F1.8673069529121047
sg227
F1.0140845070422537
sg228
F0.5507221969153867
sg229
Nsssg246
(dp2455
Vtx B-tx A
p2456
(dp2457
g223
Nsg224
Nsg225
Nsg226
Nsg227
Nsg228
Nsg229
NssVtx A-tx B
p2458
(dp2459
g223
Nsg224
Nsg225
Nsg226
Nsg227
Nsg228
Nsg229
Nsssg252
(dp2460
Vtx B-tx A
p2461
(dp2462
g223
Nsg224
Nsg225
Nsg226
Nsg227
Nsg228
Nsg229
NssVtx A-tx B
p2463
(dp2464
g223
Nsg224
Nsg225
Nsg226
Nsg227
Nsg228
Nsg229
Nsssg258
(dp2465
Vtx B-tx A
p2466
(dp2467
g223
Nsg224
Nsg225
Nsg226
Nsg227
Nsg228
Nsg229
NssVtx A-tx B
p2468
(dp2469
g223
Nsg224
Nsg225
Nsg226
Nsg227
Nsg228
Nsg229
Nsssg264
(dp2470
Vtx B-tx A
p2471
(dp2472
g223
Nsg224
Nsg225
Nsg226
Nsg227
Nsg228
Nsg229
NssVtx A-tx B
p2473
(dp2474
g223
Nsg224
Nsg225
Nsg226
Nsg227
Nsg228
Nsg229
Nsssg270
(dp2475
g70
(dp2476
g223
Nsg224
Nsg225
Nsg226
Nsg227
Nsg228
Nsg229
Nssg72
(dp2477
g223
Nsg224
Nsg225
Nsg226
Nsg227
Nsg228
Nsg229
Nsssg274
(dp2478
g70
(dp2479
g223
Nsg224
Nsg225
Nsg226
Nsg227
Nsg228
Nsg229
Nssg72
(dp2480
g223
Nsg224
Nsg225
Nsg226
Nsg227
Nsg228
Nsg229
Nsssg278
(dp2481
g70
(dp2482
g223
Nsg224
Nsg225
Nsg226
Nsg227
Nsg228
Nsg229
Nssg72
(dp2483
g223
Nsg224
Nsg225
Nsg226
Nsg227
Nsg228
Nsg229
Nsssg282
(dp2484
Vtx B-tx A
p2485
(dp2486
g223
F0.7685083772918857
sg224
F-0.8045453882972426
sg225
F-0.018018505502678472
sg226
F2.1565470988757007
sg227
F0.982142857142857
sg228
F0.44729122417016703
sg229
NssVtx A-tx B
p2487
(dp2488
g223
F0.8045453882972428
sg224
F-0.7685083772918858
sg225
F0.018018505502678472
sg226
F2.2356799015115896
sg227
F1.0181818181818403
sg228
F0.4637042244619782
sg288
F95.0
sg289
Nsg229
F0.4012965998347868
ssssg126
(dp2489
g70
(ima_dataset
TreatmentGroup
p2490
(dp2491
g130
(lp2492
F16.0
aF71.0
asg132
I0
sg36
g133
sbsg72
(ima_dataset
TreatmentGroup
p2493
(dp2494
g130
(lp2495
F16.0
aF72.0
asg132
I1
sg36
g137
sbssg138
g42
sg29
I00
sg139
I2
sbsssg297
I00
sg298
I1993
sg299
Nsg132
I12
sba(ima_dataset
Study
p2496
(dp2497
g35
I01
sg36
VTer Braak
p2498
sg38
(dp2499
sg25
g26
sg40
(lp2500
g42
ag46
asg48
(dp2501
g7
(dp2502
g12
(ima_dataset
MetaAnalyticUnit
p2503
(dp2504
g53
(dp2505
g55
(dp2506
Vtx B-tx A
p2507
(dp2508
g59
Nsg60
Nsg61
Nsg62
Nsg63
Nsg64
Nsg65
NssVtx A-tx B
p2509
(dp2510
g59
Nsg60
Nsg61
Nsg62
Nsg63
Nsg64
Nsg65
Nsssg68
(dp2511
g70
(dp2512
g59
Nsg60
Nsg61
Nsg62
Nsg63
Nsg64
Nsg65
Nssg72
(dp2513
g59
Nsg60
Nsg61
Nsg62
Nsg63
Nsg64
Nsg65
Nsssg74
(dp2514
g70
(dp2515
g59
Nsg60
Nsg61
Nsg62
Nsg63
Nsg64
Nsg65
Nssg72
(dp2516
g59
Nsg60
Nsg61
Nsg62
Nsg63
Nsg64
Nsg65
Nsssg78
(dp2517
Vtx B-tx A
p2518
(dp2519
g59
Nsg60
Nsg61
Nsg62
Nsg63
Nsg64
Nsg65
NssVtx A-tx B
p2520
(dp2521
g59
F0.4739682814562953
sg60
F-0.7771610815006182
sg61
F-0.15159640002216146
sg62
F1.606356034945302
sg63
F0.8593350383631714
sg64
F0.4597092376123071
sg65
Nsssg84
(dp2522
Vtx B-tx A
p2523
(dp2524
g59
Nsg60
Nsg61
Nsg62
Nsg63
Nsg64
Nsg65
NssVtx A-tx B
p2525
(dp2526
g59
Nsg60
Nsg61
Nsg62
Nsg63
Nsg64
Nsg65
Nsssg90
(dp2527
Vtx B-tx A
p2528
(dp2529
g59
Nsg60
Nsg61
Nsg62
Nsg63
Nsg64
Nsg65
NssVtx A-tx B
p2530
(dp2531
g59
Nsg60
Nsg61
Nsg62
Nsg63
Nsg64
Nsg65
Nsssg96
(dp2532
Vtx B-tx A
p2533
(dp2534
g59
Nsg60
Nsg61
Nsg62
Nsg63
Nsg64
Nsg65
NssVtx A-tx B
p2535
(dp2536
g59
Nsg60
Nsg61
Nsg62
Nsg63
Nsg64
Nsg65
Nsssg102
(dp2537
Vtx B-tx A
p2538
(dp2539
g59
Nsg60
Nsg61
Nsg62
Nsg63
Nsg64
Nsg65
NssVtx A-tx B
p2540
(dp2541
g59
Nsg60
Nsg61
Nsg62
Nsg63
Nsg64
Nsg65
Nsssg108
(dp2542
g70
(dp2543
g59
Nsg60
Nsg61
Nsg62
Nsg63
Nsg64
Nsg65
Nssg72
(dp2544
g59
Nsg60
Nsg61
Nsg62
Nsg63
Nsg64
Nsg65
Nsssg112
(dp2545
g70
(dp2546
g59
Nsg60
Nsg61
Nsg62
Nsg63
Nsg64
Nsg65
Nssg72
(dp2547
g59
Nsg60
Nsg61
Nsg62
Nsg63
Nsg64
Nsg65
Nsssg116
(dp2548
g70
(dp2549
g59
Nsg60
Nsg61
Nsg62
Nsg63
Nsg64
Nsg65
Nssg72
(dp2550
g59
Nsg60
Nsg61
Nsg62
Nsg63
Nsg64
Nsg65
Nsssg120
(dp2551
Vtx B-tx A
p2552
(dp2553
g59
F0.9941856972331986
sg60
F-0.605873668351284
sg61
F0.19415601444095731
sg62
F2.702522773258032
sg63
F1.2142857142857142
sg64
F0.5455975470433475
sg65
NssVtx A-tx B
p2554
(dp2555
g59
F0.605873668351284
sg60
F-0.9941856972331986
sg61
F-0.19415601444095731
sg62
F1.8328528150815724
sg63
F0.823529411764706
sg64
F0.3700246339809555
sg65
Nssssg126
(dp2556
g70
(ima_dataset
TreatmentGroup
p2557
(dp2558
g130
(lp2559
F14.0
aF69.0
asg132
I0
sg36
g133
sbsg72
(ima_dataset
TreatmentGroup
p2560
(dp2561
g130
(lp2562
F17.0
aF72.0
asg132
I1
sg36
g137
sbssg138
g46
sg29
I00
sg139
I2
sbssg18
(dp2563
N(ima_dataset
MetaAnalyticUnit
p2564
(dp2565
g29
I00
sg126
(dp2566
g144
(ima_dataset
TreatmentGroup
p2567
(dp2568
g130
(lp2569
g26
ag26
asg132
I0
sg36
g144
sbsg148
(ima_dataset
TreatmentGroup
p2570
(dp2571
g130
(lp2572
g26
ag26
asg132
I1
sg36
g148
sbssg138
g42
sg53
(dp2573
g153
(dp2574
S'tx B-tx A'
p2575
(dp2576
g157
Nsg158
Nsg159
Nsg160
Nsg161
Nsg162
Nsg163
NssS'tx A-tx B'
p2577
(dp2578
g157
Nsg158
Nsg159
Nsg160
Nsg161
Nsg162
Nsg163
Nsssg166
(dp2579
g144
(dp2580
g157
Nsg158
Nsg159
Nsg160
Nsg161
Nsg162
Nsg163
Nssg148
(dp2581
g157
Nsg158
Nsg159
Nsg160
Nsg161
Nsg162
Nsg163
Nsssg170
(dp2582
g144
(dp2583
g157
Nsg158
Nsg159
Nsg160
Nsg161
Nsg162
Nsg163
Nssg148
(dp2584
g157
Nsg158
Nsg159
Nsg160
Nsg161
Nsg162
Nsg163
Nsssg174
(dp2585
S'tx B-tx A'
p2586
(dp2587
g157
Nsg158
Nsg159
Nsg160
Nsg161
Nsg162
Nsg163
NssS'tx A-tx B'
p2588
(dp2589
g157
Nsg158
Nsg159
Nsg160
Nsg161
Nsg162
Nsg163
Nsssg180
(dp2590
S'tx B-tx A'
p2591
(dp2592
g157
Nsg158
Nsg159
Nsg160
Nsg161
Nsg162
Nsg163
NssS'tx A-tx B'
p2593
(dp2594
g157
Nsg158
Nsg159
Nsg160
Nsg161
Nsg162
Nsg163
Nsssg186
(dp2595
S'tx B-tx A'
p2596
(dp2597
g157
Nsg158
Nsg159
Nsg160
Nsg161
Nsg162
Nsg163
NssS'tx A-tx B'
p2598
(dp2599
g157
Nsg158
Nsg159
Nsg160
Nsg161
Nsg162
Nsg163
Nsssg192
(dp2600
S'tx B-tx A'
p2601
(dp2602
g157
Nsg158
Nsg159
Nsg160
Nsg161
Nsg162
Nsg163
NssS'tx A-tx B'
p2603
(dp2604
g157
Nsg158
Nsg159
Nsg160
Nsg161
Nsg162
Nsg163
Nsssg198
(dp2605
g144
(dp2606
g157
Nsg158
Nsg159
Nsg160
Nsg161
Nsg162
Nsg163
Nssg148
(dp2607
g157
Nsg158
Nsg159
Nsg160
Nsg161
Nsg162
Nsg163
Nsssg202
(dp2608
g144
(dp2609
g157
Nsg158
Nsg159
Nsg160
Nsg161
Nsg162
Nsg163
Nssg148
(dp2610
g157
Nsg158
Nsg159
Nsg160
Nsg161
Nsg162
Nsg163
Nsssg206
(dp2611
g144
(dp2612
g157
Nsg158
Nsg159
Nsg160
Nsg161
Nsg162
Nsg163
Nssg148
(dp2613
g157
Nsg158
Nsg159
Nsg160
Nsg161
Nsg162
Nsg163
Nsssg210
(dp2614
S'tx B-tx A'
p2615
(dp2616
g157
Nsg158
Nsg159
Nsg160
Nsg161
Nsg162
Nsg163
NssS'tx A-tx B'
p2617
(dp2618
g157
Nsg158
Nsg159
Nsg160
Nsg161
Nsg162
Nsg163
Nssssg139
I2
sbsg20
(ima_dataset
MetaAnalyticUnit
p2619
(dp2620
g53
(dp2621
g219
(dp2622
Vtx B-tx A
p2623
(dp2624
g223
Nsg224
Nsg225
Nsg226
Nsg227
Nsg228
Nsg229
NssVtx A-tx B
p2625
(dp2626
g223
Nsg224
Nsg225
Nsg226
Nsg227
Nsg228
Nsg229
Nsssg232
(dp2627
g70
(dp2628
g223
Nsg224
Nsg225
Nsg226
Nsg227
Nsg228
Nsg229
Nssg72
(dp2629
g223
Nsg224
Nsg225
Nsg226
Nsg227
Nsg228
Nsg229
Nsssg236
(dp2630
g70
(dp2631
g223
Nsg224
Nsg225
Nsg226
Nsg227
Nsg228
Nsg229
Nssg72
(dp2632
g223
Nsg224
Nsg225
Nsg226
Nsg227
Nsg228
Nsg229
Nsssg240
(dp2633
Vtx B-tx A
p2634
(dp2635
g223
F0.6033775691140916
sg224
F-1.1347839005801035
sg225
F-0.265703165733006
sg226
F1.8282835376253588
sg227
F0.7666666666666664
sg228
F0.32149158797393357
sg229
NssVtx A-tx B
p2636
(dp2637
g223
F1.1347839005801037
sg224
F-0.6033775691140917
sg225
F0.265703165733006
sg226
F3.1105012927463593
sg227
F1.304347826086957
sg228
F0.5469611137552747
sg229
Nsssg246
(dp2638
Vtx B-tx A
p2639
(dp2640
g223
Nsg224
Nsg225
Nsg226
Nsg227
Nsg228
Nsg229
NssVtx A-tx B
p2641
(dp2642
g223
Nsg224
Nsg225
Nsg226
Nsg227
Nsg228
Nsg229
Nsssg252
(dp2643
Vtx B-tx A
p2644
(dp2645
g223
Nsg224
Nsg225
Nsg226
Nsg227
Nsg228
Nsg229
NssVtx A-tx B
p2646
(dp2647
g223
Nsg224
Nsg225
Nsg226
Nsg227
Nsg228
Nsg229
Nsssg258
(dp2648
Vtx B-tx A
p2649
(dp2650
g223
Nsg224
Nsg225
Nsg226
Nsg227
Nsg228
Nsg229
NssVtx A-tx B
p2651
(dp2652
g223
Nsg224
Nsg225
Nsg226
Nsg227
Nsg228
Nsg229
Nsssg264
(dp2653
Vtx B-tx A
p2654
(dp2655
g223
Nsg224
Nsg225
Nsg226
Nsg227
Nsg228
Nsg229
NssVtx A-tx B
p2656
(dp2657
g223
Nsg224
Nsg225
Nsg226
Nsg227
Nsg228
Nsg229
Nsssg270
(dp2658
g70
(dp2659
g223
Nsg224
Nsg225
Nsg226
Nsg227
Nsg228
Nsg229
Nssg72
(dp2660
g223
Nsg224
Nsg225
Nsg226
Nsg227
Nsg228
Nsg229
Nsssg274
(dp2661
g70
(dp2662
g223
Nsg224
Nsg225
Nsg226
Nsg227
Nsg228
Nsg229
Nssg72
(dp2663
g223
Nsg224
Nsg225
Nsg226
Nsg227
Nsg228
Nsg229
Nsssg278
(dp2664
g70
(dp2665
g223
Nsg224
Nsg225
Nsg226
Nsg227
Nsg228
Nsg229
Nssg72
(dp2666
g223
Nsg224
Nsg225
Nsg226
Nsg227
Nsg228
Nsg229
Nsssg282
(dp2667
Vtx B-tx A
p2668
(dp2669
g223
F0.6902271005766174
sg224
F-1.2992054821129413
sg225
F-0.30448919076816194
sg226
F1.9941683586067973
sg227
F0.7375000000000002
sg228
F0.27274841046018505
sg229
NssVtx A-tx B
p2670
(dp2671
g223
F1.2992054821129413
sg224
F-0.6902271005766175
sg225
F0.30448919076816194
sg226
F3.666382503604125
sg227
F1.3559322033896106
sg228
F0.5014621737846928
sg288
F95.0
sg289
Nsg229
F0.5075176376662912
ssssg126
(dp2672
g70
(ima_dataset
TreatmentGroup
p2673
(dp2674
g130
(lp2675
F10.0
aF69.0
asg132
I0
sg36
g133
sbsg72
(ima_dataset
TreatmentGroup
p2676
(dp2677
g130
(lp2678
F8.0
aF72.0
asg132
I1
sg36
g137
sbssg138
g42
sg29
I00
sg139
I2
sbsssg297
I00
sg298
I1990
sg299
Nsg132
I13
sba(ima_dataset
Study
p2679
(dp2680
g35
I01
sg36
VTulkens
p2681
sg38
(dp2682
sg25
g26
sg40
(lp2683
g42
ag46
asg48
(dp2684
g7
(dp2685
g12
(ima_dataset
MetaAnalyticUnit
p2686
(dp2687
g53
(dp2688
g55
(dp2689
Vtx B-tx A
p2690
(dp2691
g59
Nsg60
Nsg61
Nsg62
Nsg63
Nsg64
Nsg65
NssVtx A-tx B
p2692
(dp2693
g59
Nsg60
Nsg61
Nsg62
Nsg63
Nsg64
Nsg65
Nsssg68
(dp2694
g70
(dp2695
g59
Nsg60
Nsg61
Nsg62
Nsg63
Nsg64
Nsg65
Nssg72
(dp2696
g59
Nsg60
Nsg61
Nsg62
Nsg63
Nsg64
Nsg65
Nsssg74
(dp2697
g70
(dp2698
g59
Nsg60
Nsg61
Nsg62
Nsg63
Nsg64
Nsg65
Nssg72
(dp2699
g59
Nsg60
Nsg61
Nsg62
Nsg63
Nsg64
Nsg65
Nsssg78
(dp2700
Vtx B-tx A
p2701
(dp2702
g59
Nsg60
Nsg61
Nsg62
Nsg63
Nsg64
Nsg65
NssVtx A-tx B
p2703
(dp2704
g59
F3.870618736159257
sg60
F-3.870618736159257
sg61
F0.0
sg62
F47.97205894753966
sg63
F1.0
sg64
F0.020845467589655896
sg65
Nsssg84
(dp2705
Vtx B-tx A
p2706
(dp2707
g59
Nsg60
Nsg61
Nsg62
Nsg63
Nsg64
Nsg65
NssVtx A-tx B
p2708
(dp2709
g59
Nsg60
Nsg61
Nsg62
Nsg63
Nsg64
Nsg65
Nsssg90
(dp2710
Vtx B-tx A
p2711
(dp2712
g59
Nsg60
Nsg61
Nsg62
Nsg63
Nsg64
Nsg65
NssVtx A-tx B
p2713
(dp2714
g59
Nsg60
Nsg61
Nsg62
Nsg63
Nsg64
Nsg65
Nsssg96
(dp2715
Vtx B-tx A
p2716
(dp2717
g59
Nsg60
Nsg61
Nsg62
Nsg63
Nsg64
Nsg65
NssVtx A-tx B
p2718
(dp2719
g59
Nsg60
Nsg61
Nsg62
Nsg63
Nsg64
Nsg65
Nsssg102
(dp2720
Vtx B-tx A
p2721
(dp2722
g59
Nsg60
Nsg61
Nsg62
Nsg63
Nsg64
Nsg65
NssVtx A-tx B
p2723
(dp2724
g59
Nsg60
Nsg61
Nsg62
Nsg63
Nsg64
Nsg65
Nsssg108
(dp2725
g70
(dp2726
g59
Nsg60
Nsg61
Nsg62
Nsg63
Nsg64
Nsg65
Nssg72
(dp2727
g59
Nsg60
Nsg61
Nsg62
Nsg63
Nsg64
Nsg65
Nsssg112
(dp2728
g70
(dp2729
g59
Nsg60
Nsg61
Nsg62
Nsg63
Nsg64
Nsg65
Nssg72
(dp2730
g59
Nsg60
Nsg61
Nsg62
Nsg63
Nsg64
Nsg65
Nsssg116
(dp2731
g70
(dp2732
g59
Nsg60
Nsg61
Nsg62
Nsg63
Nsg64
Nsg65
Nssg72
(dp2733
g59
Nsg60
Nsg61
Nsg62
Nsg63
Nsg64
Nsg65
Nsssg120
(dp2734
Vtx B-tx A
p2735
(dp2736
g59
F3.9698653704197504
sg60
F-3.9698653704197504
sg61
F0.0
sg62
F52.97739803468354
sg63
F1.0
sg64
F0.018875974228581675
sg65
NssVtx A-tx B
p2737
(dp2738
g59
F3.9698653704197504
sg60
F-3.9698653704197504
sg61
F0.0
sg62
F52.97739803468354
sg63
F1.0
sg64
F0.018875974228581675
sg65
Nssssg126
(dp2739
g70
(ima_dataset
TreatmentGroup
p2740
(dp2741
g130
(lp2742
F0.0
aF19.0
asg132
I0
sg36
g133
sbsg72
(ima_dataset
TreatmentGroup
p2743
(dp2744
g130
(lp2745
F0.0
aF19.0
asg132
I1
sg36
g137
sbssg138
g46
sg29
I00
sg139
I2
sbssg18
(dp2746
N(ima_dataset
MetaAnalyticUnit
p2747
(dp2748
g29
I00
sg126
(dp2749
g144
(ima_dataset
TreatmentGroup
p2750
(dp2751
g130
(lp2752
g26
ag26
asg132
I0
sg36
g144
sbsg148
(ima_dataset
TreatmentGroup
p2753
(dp2754
g130
(lp2755
g26
ag26
asg132
I1
sg36
g148
sbssg138
g42
sg53
(dp2756
g153
(dp2757
S'tx B-tx A'
p2758
(dp2759
g157
Nsg158
Nsg159
Nsg160
Nsg161
Nsg162
Nsg163
NssS'tx A-tx B'
p2760
(dp2761
g157
Nsg158
Nsg159
Nsg160
Nsg161
Nsg162
Nsg163
Nsssg166
(dp2762
g144
(dp2763
g157
Nsg158
Nsg159
Nsg160
Nsg161
Nsg162
Nsg163
Nssg148
(dp2764
g157
Nsg158
Nsg159
Nsg160
Nsg161
Nsg162
Nsg163
Nsssg170
(dp2765
g144
(dp2766
g157
Nsg158
Nsg159
Nsg160
Nsg161
Nsg162
Nsg163
Nssg148
(dp2767
g157
Nsg158
Nsg159
Nsg160
Nsg161
Nsg162
Nsg163
Nsssg174
(dp2768
S'tx B-tx A'
p2769
(dp2770
g157
Nsg158
Nsg159
Nsg160
Nsg161
Nsg162
Nsg163
NssS'tx A-tx B'
p2771
(dp2772
g157
Nsg158
Nsg159
Nsg160
Nsg161
Nsg162
Nsg163
Nsssg180
(dp2773
S'tx B-tx A'
p2774
(dp2775
g157
Nsg158
Nsg159
Nsg160
Nsg161
Nsg162
Nsg163
NssS'tx A-tx B'
p2776
(dp2777
g157
Nsg158
Nsg159
Nsg160
Nsg161
Nsg162
Nsg163
Nsssg186
(dp2778
S'tx B-tx A'
p2779
(dp2780
g157
Nsg158
Nsg159
Nsg160
Nsg161
Nsg162
Nsg163
NssS'tx A-tx B'
p2781
(dp2782
g157
Nsg158
Nsg159
Nsg160
Nsg161
Nsg162
Nsg163
Nsssg192
(dp2783
S'tx B-tx A'
p2784
(dp2785
g157
Nsg158
Nsg159
Nsg160
Nsg161
Nsg162
Nsg163
NssS'tx A-tx B'
p2786
(dp2787
g157
Nsg158
Nsg159
Nsg160
Nsg161
Nsg162
Nsg163
Nsssg198
(dp2788
g144
(dp2789
g157
Nsg158
Nsg159
Nsg160
Nsg161
Nsg162
Nsg163
Nssg148
(dp2790
g157
Nsg158
Nsg159
Nsg160
Nsg161
Nsg162
Nsg163
Nsssg202
(dp2791
g144
(dp2792
g157
Nsg158
Nsg159
Nsg160
Nsg161
Nsg162
Nsg163
Nssg148
(dp2793
g157
Nsg158
Nsg159
Nsg160
Nsg161
Nsg162
Nsg163
Nsssg206
(dp2794
g144
(dp2795
g157
Nsg158
Nsg159
Nsg160
Nsg161
Nsg162
Nsg163
Nssg148
(dp2796
g157
Nsg158
Nsg159
Nsg160
Nsg161
Nsg162
Nsg163
Nsssg210
(dp2797
S'tx B-tx A'
p2798
(dp2799
g157
Nsg158
Nsg159
Nsg160
Nsg161
Nsg162
Nsg163
NssS'tx A-tx B'
p2800
(dp2801
g157
Nsg158
Nsg159
Nsg160
Nsg161
Nsg162
Nsg163
Nssssg139
I2
sbsg20
(ima_dataset
MetaAnalyticUnit
p2802
(dp2803
g53
(dp2804
g219
(dp2805
Vtx B-tx A
p2806
(dp2807
g223
Nsg224
Nsg225
Nsg226
Nsg227
Nsg228
Nsg229
NssVtx A-tx B
p2808
(dp2809
g223
Nsg224
Nsg225
Nsg226
Nsg227
Nsg228
Nsg229
Nsssg232
(dp2810
g70
(dp2811
g223
Nsg224
Nsg225
Nsg226
Nsg227
Nsg228
Nsg229
Nssg72
(dp2812
g223
Nsg224
Nsg225
Nsg226
Nsg227
Nsg228
Nsg229
Nsssg236
(dp2813
g70
(dp2814
g223
Nsg224
Nsg225
Nsg226
Nsg227
Nsg228
Nsg229
Nssg72
(dp2815
g223
Nsg224
Nsg225
Nsg226
Nsg227
Nsg228
Nsg229
Nsssg240
(dp2816
Vtx B-tx A
p2817
(dp2818
g223
F3.870618736159257
sg224
F-3.870618736159257
sg225
F0.0
sg226
F47.97205894753966
sg227
F1.0
sg228
F0.020845467589655896
sg229
NssVtx A-tx B
p2819
(dp2820
g223
F3.870618736159257
sg224
F-3.870618736159257
sg225
F0.0
sg226
F47.97205894753966
sg227
F1.0
sg228
F0.020845467589655896
sg229
Nsssg246
(dp2821
Vtx B-tx A
p2822
(dp2823
g223
Nsg224
Nsg225
Nsg226
Nsg227
Nsg228
Nsg229
NssVtx A-tx B
p2824
(dp2825
g223
Nsg224
Nsg225
Nsg226
Nsg227
Nsg228
Nsg229
Nsssg252
(dp2826
Vtx B-tx A
p2827
(dp2828
g223
Nsg224
Nsg225
Nsg226
Nsg227
Nsg228
Nsg229
NssVtx A-tx B
p2829
(dp2830
g223
Nsg224
Nsg225
Nsg226
Nsg227
Nsg228
Nsg229
Nsssg258
(dp2831
Vtx B-tx A
p2832
(dp2833
g223
Nsg224
Nsg225
Nsg226
Nsg227
Nsg228
Nsg229
NssVtx A-tx B
p2834
(dp2835
g223
Nsg224
Nsg225
Nsg226
Nsg227
Nsg228
Nsg229
Nsssg264
(dp2836
Vtx B-tx A
p2837
(dp2838
g223
Nsg224
Nsg225
Nsg226
Nsg227
Nsg228
Nsg229
NssVtx A-tx B
p2839
(dp2840
g223
Nsg224
Nsg225
Nsg226
Nsg227
Nsg228
Nsg229
Nsssg270
(dp2841
g70
(dp2842
g223
Nsg224
Nsg225
Nsg226
Nsg227
Nsg228
Nsg229
Nssg72
(dp2843
g223
Nsg224
Nsg225
Nsg226
Nsg227
Nsg228
Nsg229
Nsssg274
(dp2844
g70
(dp2845
g223
Nsg224
Nsg225
Nsg226
Nsg227
Nsg228
Nsg229
Nssg72
(dp2846
g223
Nsg224
Nsg225
Nsg226
Nsg227
Nsg228
Nsg229
Nsssg278
(dp2847
g70
(dp2848
g223
Nsg224
Nsg225
Nsg226
Nsg227
Nsg228
Nsg229
Nssg72
(dp2849
g223
Nsg224
Nsg225
Nsg226
Nsg227
Nsg228
Nsg229
Nsssg282
(dp2850
Vtx B-tx A
p2851
(dp2852
g223
F3.9698653704197504
sg224
F-3.9698653704197504
sg225
F0.0
sg226
F52.97739803468354
sg227
F1.0
sg228
F0.018875974228581675
sg229
NssVtx A-tx B
p2853
(dp2854
g223
F3.969865370419751
sg224
F-3.969865370419751
sg225
F0.0
sg226
F52.97739803469676
sg227
F1.0
sg228
F0.018875974228576967
sg288
F95.0
sg289
Nsg229
F2.0254787341673333
ssssg126
(dp2855
g70
(ima_dataset
TreatmentGroup
p2856
(dp2857
g130
(lp2858
F0.0
aF19.0
asg132
I0
sg36
g133
sbsg72
(ima_dataset
TreatmentGroup
p2859
(dp2860
g130
(lp2861
F0.0
aF19.0
asg132
I1
sg36
g137
sbssg138
g42
sg29
I00
sg139
I2
sbsssg297
I00
sg298
I1988
sg299
Nsg132
I14
sba(ima_dataset
Study
p2862
(dp2863
g35
I01
sg36
VVan der Auwera
p2864
sg38
(dp2865
sg25
g26
sg40
(lp2866
g42
ag46
asg48
(dp2867
g7
(dp2868
g12
(ima_dataset
MetaAnalyticUnit
p2869
(dp2870
g53
(dp2871
g55
(dp2872
Vtx B-tx A
p2873
(dp2874
g59
Nsg60
Nsg61
Nsg62
Nsg63
Nsg64
Nsg65
NssVtx A-tx B
p2875
(dp2876
g59
Nsg60
Nsg61
Nsg62
Nsg63
Nsg64
Nsg65
Nsssg68
(dp2877
g70
(dp2878
g59
Nsg60
Nsg61
Nsg62
Nsg63
Nsg64
Nsg65
Nssg72
(dp2879
g59
Nsg60
Nsg61
Nsg62
Nsg63
Nsg64
Nsg65
Nsssg74
(dp2880
g70
(dp2881
g59
Nsg60
Nsg61
Nsg62
Nsg63
Nsg64
Nsg65
Nssg72
(dp2882
g59
Nsg60
Nsg61
Nsg62
Nsg63
Nsg64
Nsg65
Nsssg78
(dp2883
Vtx B-tx A
p2884
(dp2885
g59
Nsg60
Nsg61
Nsg62
Nsg63
Nsg64
Nsg65
NssVtx A-tx B
p2886
(dp2887
g59
F1.1072543980439158
sg60
F-3.304478975380136
sg61
F-1.09861228866811
sg62
F3.026038680630097
sg63
F0.3333333333333332
sg64
F0.03671833801145428
sg65
Nsssg84
(dp2888
Vtx B-tx A
p2889
(dp2890
g59
Nsg60
Nsg61
Nsg62
Nsg63
Nsg64
Nsg65
NssVtx A-tx B
p2891
(dp2892
g59
Nsg60
Nsg61
Nsg62
Nsg63
Nsg64
Nsg65
Nsssg90
(dp2893
Vtx B-tx A
p2894
(dp2895
g59
Nsg60
Nsg61
Nsg62
Nsg63
Nsg64
Nsg65
NssVtx A-tx B
p2896
(dp2897
g59
Nsg60
Nsg61
Nsg62
Nsg63
Nsg64
Nsg65
Nsssg96
(dp2898
Vtx B-tx A
p2899
(dp2900
g59
Nsg60
Nsg61
Nsg62
Nsg63
Nsg64
Nsg65
NssVtx A-tx B
p2901
(dp2902
g59
Nsg60
Nsg61
Nsg62
Nsg63
Nsg64
Nsg65
Nsssg102
(dp2903
Vtx B-tx A
p2904
(dp2905
g59
Nsg60
Nsg61
Nsg62
Nsg63
Nsg64
Nsg65
NssVtx A-tx B
p2906
(dp2907
g59
Nsg60
Nsg61
Nsg62
Nsg63
Nsg64
Nsg65
Nsssg108
(dp2908
g70
(dp2909
g59
Nsg60
Nsg61
Nsg62
Nsg63
Nsg64
Nsg65
Nssg72
(dp2910
g59
Nsg60
Nsg61
Nsg62
Nsg63
Nsg64
Nsg65
Nsssg112
(dp2911
g70
(dp2912
g59
Nsg60
Nsg61
Nsg62
Nsg63
Nsg64
Nsg65
Nssg72
(dp2913
g59
Nsg60
Nsg61
Nsg62
Nsg63
Nsg64
Nsg65
Nsssg116
(dp2914
g70
(dp2915
g59
Nsg60
Nsg61
Nsg62
Nsg63
Nsg64
Nsg65
Nssg72
(dp2916
g59
Nsg60
Nsg61
Nsg62
Nsg63
Nsg64
Nsg65
Nsssg120
(dp2917
Vtx B-tx A
p2918
(dp2919
g59
F3.493147972033936
sg60
F-1.153005466733426
sg61
F1.170071252650255
sg62
F32.88931957322481
sg63
F3.2222222222222237
sg64
F0.3156865567336118
sg65
NssVtx A-tx B
p2920
(dp2921
g59
F1.153005466733426
sg60
F-3.493147972033936
sg61
F-1.170071252650255
sg62
F3.167699031428309
sg63
F0.3103448275862068
sg64
F0.030405007247827034
sg65
Nssssg126
(dp2922
g70
(ima_dataset
TreatmentGroup
p2923
(dp2924
g130
(lp2925
F1.0
aF30.0
asg132
I0
sg36
g133
sbsg72
(ima_dataset
TreatmentGroup
p2926
(dp2927
g130
(lp2928
F3.0
aF30.0
asg132
I1
sg36
g137
sbssg138
g46
sg29
I00
sg139
I2
sbssg18
(dp2929
N(ima_dataset
MetaAnalyticUnit
p2930
(dp2931
g29
I00
sg126
(dp2932
g144
(ima_dataset
TreatmentGroup
p2933
(dp2934
g130
(lp2935
g26
ag26
asg132
I0
sg36
g144
sbsg148
(ima_dataset
TreatmentGroup
p2936
(dp2937
g130
(lp2938
g26
ag26
asg132
I1
sg36
g148
sbssg138
g42
sg53
(dp2939
g153
(dp2940
S'tx B-tx A'
p2941
(dp2942
g157
Nsg158
Nsg159
Nsg160
Nsg161
Nsg162
Nsg163
NssS'tx A-tx B'
p2943
(dp2944
g157
Nsg158
Nsg159
Nsg160
Nsg161
Nsg162
Nsg163
Nsssg166
(dp2945
g144
(dp2946
g157
Nsg158
Nsg159
Nsg160
Nsg161
Nsg162
Nsg163
Nssg148
(dp2947
g157
Nsg158
Nsg159
Nsg160
Nsg161
Nsg162
Nsg163
Nsssg170
(dp2948
g144
(dp2949
g157
Nsg158
Nsg159
Nsg160
Nsg161
Nsg162
Nsg163
Nssg148
(dp2950
g157
Nsg158
Nsg159
Nsg160
Nsg161
Nsg162
Nsg163
Nsssg174
(dp2951
S'tx B-tx A'
p2952
(dp2953
g157
Nsg158
Nsg159
Nsg160
Nsg161
Nsg162
Nsg163
NssS'tx A-tx B'
p2954
(dp2955
g157
Nsg158
Nsg159
Nsg160
Nsg161
Nsg162
Nsg163
Nsssg180
(dp2956
S'tx B-tx A'
p2957
(dp2958
g157
Nsg158
Nsg159
Nsg160
Nsg161
Nsg162
Nsg163
NssS'tx A-tx B'
p2959
(dp2960
g157
Nsg158
Nsg159
Nsg160
Nsg161
Nsg162
Nsg163
Nsssg186
(dp2961
S'tx B-tx A'
p2962
(dp2963
g157
Nsg158
Nsg159
Nsg160
Nsg161
Nsg162
Nsg163
NssS'tx A-tx B'
p2964
(dp2965
g157
Nsg158
Nsg159
Nsg160
Nsg161
Nsg162
Nsg163
Nsssg192
(dp2966
S'tx B-tx A'
p2967
(dp2968
g157
Nsg158
Nsg159
Nsg160
Nsg161
Nsg162
Nsg163
NssS'tx A-tx B'
p2969
(dp2970
g157
Nsg158
Nsg159
Nsg160
Nsg161
Nsg162
Nsg163
Nsssg198
(dp2971
g144
(dp2972
g157
Nsg158
Nsg159
Nsg160
Nsg161
Nsg162
Nsg163
Nssg148
(dp2973
g157
Nsg158
Nsg159
Nsg160
Nsg161
Nsg162
Nsg163
Nsssg202
(dp2974
g144
(dp2975
g157
Nsg158
Nsg159
Nsg160
Nsg161
Nsg162
Nsg163
Nssg148
(dp2976
g157
Nsg158
Nsg159
Nsg160
Nsg161
Nsg162
Nsg163
Nsssg206
(dp2977
g144
(dp2978
g157
Nsg158
Nsg159
Nsg160
Nsg161
Nsg162
Nsg163
Nssg148
(dp2979
g157
Nsg158
Nsg159
Nsg160
Nsg161
Nsg162
Nsg163
Nsssg210
(dp2980
S'tx B-tx A'
p2981
(dp2982
g157
Nsg158
Nsg159
Nsg160
Nsg161
Nsg162
Nsg163
NssS'tx A-tx B'
p2983
(dp2984
g157
Nsg158
Nsg159
Nsg160
Nsg161
Nsg162
Nsg163
Nssssg139
I2
sbsg20
(ima_dataset
MetaAnalyticUnit
p2985
(dp2986
g53
(dp2987
g219
(dp2988
Vtx B-tx A
p2989
(dp2990
g223
Nsg224
Nsg225
Nsg226
Nsg227
Nsg228
Nsg229
NssVtx A-tx B
p2991
(dp2992
g223
Nsg224
Nsg225
Nsg226
Nsg227
Nsg228
Nsg229
Nsssg232
(dp2993
g70
(dp2994
g223
Nsg224
Nsg225
Nsg226
Nsg227
Nsg228
Nsg229
Nssg72
(dp2995
g223
Nsg224
Nsg225
Nsg226
Nsg227
Nsg228
Nsg229
Nsssg236
(dp2996
g70
(dp2997
g223
Nsg224
Nsg225
Nsg226
Nsg227
Nsg228
Nsg229
Nssg72
(dp2998
g223
Nsg224
Nsg225
Nsg226
Nsg227
Nsg228
Nsg229
Nsssg240
(dp2999
Vtx B-tx A
p3000
(dp3001
g223
F4.604711709054017
sg224
F-1.3858358841858158
sg225
F1.6094379124341005
sg226
F99.95416281504153
sg227
F5.000000000000001
sg228
F0.25011464551267204
sg229
NssVtx A-tx B
p3002
(dp3003
g223
F1.3858358841858158
sg224
F-4.604711709054017
sg225
F-1.6094379124341005
sg226
F3.998166512601658
sg227
F0.19999999999999998
sg228
F0.010004585820506876
sg229
Nsssg246
(dp3004
Vtx B-tx A
p3005
(dp3006
g223
Nsg224
Nsg225
Nsg226
Nsg227
Nsg228
Nsg229
NssVtx A-tx B
p3007
(dp3008
g223
Nsg224
Nsg225
Nsg226
Nsg227
Nsg228
Nsg229
Nsssg252
(dp3009
Vtx B-tx A
p3010
(dp3011
g223
Nsg224
Nsg225
Nsg226
Nsg227
Nsg228
Nsg229
NssVtx A-tx B
p3012
(dp3013
g223
Nsg224
Nsg225
Nsg226
Nsg227
Nsg228
Nsg229
Nsssg258
(dp3014
Vtx B-tx A
p3015
(dp3016
g223
Nsg224
Nsg225
Nsg226
Nsg227
Nsg228
Nsg229
NssVtx A-tx B
p3017
(dp3018
g223
Nsg224
Nsg225
Nsg226
Nsg227
Nsg228
Nsg229
Nsssg264
(dp3019
Vtx B-tx A
p3020
(dp3021
g223
Nsg224
Nsg225
Nsg226
Nsg227
Nsg228
Nsg229
NssVtx A-tx B
p3022
(dp3023
g223
Nsg224
Nsg225
Nsg226
Nsg227
Nsg228
Nsg229
Nsssg270
(dp3024
g70
(dp3025
g223
Nsg224
Nsg225
Nsg226
Nsg227
Nsg228
Nsg229
Nssg72
(dp3026
g223
Nsg224
Nsg225
Nsg226
Nsg227
Nsg228
Nsg229
Nsssg274
(dp3027
g70
(dp3028
g223
Nsg224
Nsg225
Nsg226
Nsg227
Nsg228
Nsg229
Nssg72
(dp3029
g223
Nsg224
Nsg225
Nsg226
Nsg227
Nsg228
Nsg229
Nsssg278
(dp3030
g70
(dp3031
g223
Nsg224
Nsg225
Nsg226
Nsg227
Nsg228
Nsg229
Nssg72
(dp3032
g223
Nsg224
Nsg225
Nsg226
Nsg227
Nsg228
Nsg229
Nsssg282
(dp3033
Vtx B-tx A
p3034
(dp3035
g223
F4.756260130077342
sg224
F-1.4017391125316192
sg225
F1.6772605087728616
sg226
F116.310126746146
sg227
F5.350877192982456
sg228
F0.24616847677305567
sg229
NssVtx A-tx B
p3036
(dp3037
g223
F1.4017391125316196
sg224
F-4.756260130077343
sg225
F-1.6772605087728616
sg226
F4.062258551983108
sg227
F0.18688524590163932
sg228
F0.008597703639190081
sg229
F1.57094704065546
ssssg126
(dp3038
g70
(ima_dataset
TreatmentGroup
p3039
(dp3040
g130
(lp3041
F0.0
aF30.0
asg132
I0
sg36
g133
sbsg72
(ima_dataset
TreatmentGroup
p3042
(dp3043
g130
(lp3044
F2.0
aF30.0
asg132
I1
sg36
g137
sbssg138
g42
sg29
I00
sg139
I2
sbsssg297
I00
sg298
I1991
sg299
Nsg132
I15
sba(ima_dataset
Study
p3045
(dp3046
g35
I01
sg36
VKlastersky
p3047
sg38
(dp3048
sg25
g26
sg40
(lp3049
g42
ag46
asg48
(dp3050
g7
(dp3051
g12
(ima_dataset
MetaAnalyticUnit
p3052
(dp3053
g53
(dp3054
g55
(dp3055
Vtx B-tx A
p3056
(dp3057
g59
Nsg60
Nsg61
Nsg62
Nsg63
Nsg64
Nsg65
NssVtx A-tx B
p3058
(dp3059
g59
Nsg60
Nsg61
Nsg62
Nsg63
Nsg64
Nsg65
Nsssg68
(dp3060
g70
(dp3061
g59
Nsg60
Nsg61
Nsg62
Nsg63
Nsg64
Nsg65
Nssg72
(dp3062
g59
Nsg60
Nsg61
Nsg62
Nsg63
Nsg64
Nsg65
Nsssg74
(dp3063
g70
(dp3064
g59
Nsg60
Nsg61
Nsg62
Nsg63
Nsg64
Nsg65
Nssg72
(dp3065
g59
Nsg60
Nsg61
Nsg62
Nsg63
Nsg64
Nsg65
Nsssg78
(dp3066
Vtx B-tx A
p3067
(dp3068
g59
Nsg60
Nsg61
Nsg62
Nsg63
Nsg64
Nsg65
NssVtx A-tx B
p3069
(dp3070
g59
F1.5012181192198175
sg60
F-1.5012181192198175
sg61
F0.0
sg62
F4.487151628279847
sg63
F1.0
sg64
F0.22285852648651205
sg65
Nsssg84
(dp3071
Vtx B-tx A
p3072
(dp3073
g59
Nsg60
Nsg61
Nsg62
Nsg63
Nsg64
Nsg65
NssVtx A-tx B
p3074
(dp3075
g59
Nsg60
Nsg61
Nsg62
Nsg63
Nsg64
Nsg65
Nsssg90
(dp3076
Vtx B-tx A
p3077
(dp3078
g59
Nsg60
Nsg61
Nsg62
Nsg63
Nsg64
Nsg65
NssVtx A-tx B
p3079
(dp3080
g59
Nsg60
Nsg61
Nsg62
Nsg63
Nsg64
Nsg65
Nsssg96
(dp3081
Vtx B-tx A
p3082
(dp3083
g59
Nsg60
Nsg61
Nsg62
Nsg63
Nsg64
Nsg65
NssVtx A-tx B
p3084
(dp3085
g59
Nsg60
Nsg61
Nsg62
Nsg63
Nsg64
Nsg65
Nsssg102
(dp3086
Vtx B-tx A
p3087
(dp3088
g59
Nsg60
Nsg61
Nsg62
Nsg63
Nsg64
Nsg65
NssVtx A-tx B
p3089
(dp3090
g59
Nsg60
Nsg61
Nsg62
Nsg63
Nsg64
Nsg65
Nsssg108
(dp3091
g70
(dp3092
g59
Nsg60
Nsg61
Nsg62
Nsg63
Nsg64
Nsg65
Nssg72
(dp3093
g59
Nsg60
Nsg61
Nsg62
Nsg63
Nsg64
Nsg65
Nsssg112
(dp3094
g70
(dp3095
g59
Nsg60
Nsg61
Nsg62
Nsg63
Nsg64
Nsg65
Nssg72
(dp3096
g59
Nsg60
Nsg61
Nsg62
Nsg63
Nsg64
Nsg65
Nsssg116
(dp3097
g70
(dp3098
g59
Nsg60
Nsg61
Nsg62
Nsg63
Nsg64
Nsg65
Nssg72
(dp3099
g59
Nsg60
Nsg61
Nsg62
Nsg63
Nsg64
Nsg65
Nsssg120
(dp3100
Vtx B-tx A
p3101
(dp3102
g59
F1.4323284367170934
sg60
F-2.332162178075089
sg61
F-0.449916870678998
sg62
F4.188440365002866
sg63
F0.63768115942029
sg64
F0.09708560362404184
sg65
NssVtx A-tx B
p3103
(dp3104
g59
F1.7059296809316107
sg60
F-1.7059296809316107
sg61
F0.0
sg62
F5.50650257874273
sg63
F1.0
sg64
F0.181603474383249
sg65
Nssssg126
(dp3105
g70
(ima_dataset
TreatmentGroup
p3106
(dp3107
g130
(lp3108
F3.0
aF25.0
asg132
I0
sg36
g133
sbsg72
(ima_dataset
TreatmentGroup
p3109
(dp3110
g130
(lp3111
F3.0
aF25.0
asg132
I1
sg36
g137
sbssg138
g46
sg29
I00
sg139
I2
sbssg18
(dp3112
N(ima_dataset
MetaAnalyticUnit
p3113
(dp3114
g29
I00
sg126
(dp3115
g144
(ima_dataset
TreatmentGroup
p3116
(dp3117
g130
(lp3118
g26
ag26
asg132
I0
sg36
g144
sbsg148
(ima_dataset
TreatmentGroup
p3119
(dp3120
g130
(lp3121
g26
ag26
asg132
I1
sg36
g148
sbssg138
g42
sg53
(dp3122
g153
(dp3123
S'tx B-tx A'
p3124
(dp3125
g157
Nsg158
Nsg159
Nsg160
Nsg161
Nsg162
Nsg163
NssS'tx A-tx B'
p3126
(dp3127
g157
Nsg158
Nsg159
Nsg160
Nsg161
Nsg162
Nsg163
Nsssg166
(dp3128
g144
(dp3129
g157
Nsg158
Nsg159
Nsg160
Nsg161
Nsg162
Nsg163
Nssg148
(dp3130
g157
Nsg158
Nsg159
Nsg160
Nsg161
Nsg162
Nsg163
Nsssg170
(dp3131
g144
(dp3132
g157
Nsg158
Nsg159
Nsg160
Nsg161
Nsg162
Nsg163
Nssg148
(dp3133
g157
Nsg158
Nsg159
Nsg160
Nsg161
Nsg162
Nsg163
Nsssg174
(dp3134
S'tx B-tx A'
p3135
(dp3136
g157
Nsg158
Nsg159
Nsg160
Nsg161
Nsg162
Nsg163
NssS'tx A-tx B'
p3137
(dp3138
g157
Nsg158
Nsg159
Nsg160
Nsg161
Nsg162
Nsg163
Nsssg180
(dp3139
S'tx B-tx A'
p3140
(dp3141
g157
Nsg158
Nsg159
Nsg160
Nsg161
Nsg162
Nsg163
NssS'tx A-tx B'
p3142
(dp3143
g157
Nsg158
Nsg159
Nsg160
Nsg161
Nsg162
Nsg163
Nsssg186
(dp3144
S'tx B-tx A'
p3145
(dp3146
g157
Nsg158
Nsg159
Nsg160
Nsg161
Nsg162
Nsg163
NssS'tx A-tx B'
p3147
(dp3148
g157
Nsg158
Nsg159
Nsg160
Nsg161
Nsg162
Nsg163
Nsssg192
(dp3149
S'tx B-tx A'
p3150
(dp3151
g157
Nsg158
Nsg159
Nsg160
Nsg161
Nsg162
Nsg163
NssS'tx A-tx B'
p3152
(dp3153
g157
Nsg158
Nsg159
Nsg160
Nsg161
Nsg162
Nsg163
Nsssg198
(dp3154
g144
(dp3155
g157
Nsg158
Nsg159
Nsg160
Nsg161
Nsg162
Nsg163
Nssg148
(dp3156
g157
Nsg158
Nsg159
Nsg160
Nsg161
Nsg162
Nsg163
Nsssg202
(dp3157
g144
(dp3158
g157
Nsg158
Nsg159
Nsg160
Nsg161
Nsg162
Nsg163
Nssg148
(dp3159
g157
Nsg158
Nsg159
Nsg160
Nsg161
Nsg162
Nsg163
Nsssg206
(dp3160
g144
(dp3161
g157
Nsg158
Nsg159
Nsg160
Nsg161
Nsg162
Nsg163
Nssg148
(dp3162
g157
Nsg158
Nsg159
Nsg160
Nsg161
Nsg162
Nsg163
Nsssg210
(dp3163
S'tx B-tx A'
p3164
(dp3165
g157
Nsg158
Nsg159
Nsg160
Nsg161
Nsg162
Nsg163
NssS'tx A-tx B'
p3166
(dp3167
g157
Nsg158
Nsg159
Nsg160
Nsg161
Nsg162
Nsg163
Nssssg139
I2
sbsg20
(ima_dataset
MetaAnalyticUnit
p3168
(dp3169
g53
(dp3170
g219
(dp3171
Vtx B-tx A
p3172
(dp3173
g223
Nsg224
Nsg225
Nsg226
Nsg227
Nsg228
Nsg229
NssVtx A-tx B
p3174
(dp3175
g223
Nsg224
Nsg225
Nsg226
Nsg227
Nsg228
Nsg229
Nsssg232
(dp3176
g70
(dp3177
g223
Nsg224
Nsg225
Nsg226
Nsg227
Nsg228
Nsg229
Nssg72
(dp3178
g223
Nsg224
Nsg225
Nsg226
Nsg227
Nsg228
Nsg229
Nsssg236
(dp3179
g70
(dp3180
g223
Nsg224
Nsg225
Nsg226
Nsg227
Nsg228
Nsg229
Nssg72
(dp3181
g223
Nsg224
Nsg225
Nsg226
Nsg227
Nsg228
Nsg229
Nsssg240
(dp3182
Vtx B-tx A
p3183
(dp3184
g223
F-0.149329464607324
sg224
F-2.4492365036531973
sg225
F-1.2992829841302607
sg226
F0.8612853051240409
sg227
F0.27272727272727276
sg228
F0.08635949649523408
sg229
NssVtx A-tx B
p3185
(dp3186
g223
F2.4492365036531973
sg224
F0.149329464607324
sg225
F1.2992829841302607
sg226
F11.579502435556545
sg227
F3.666666666666666
sg228
F1.161055452880369
sg229
Nsssg246
(dp3187
Vtx B-tx A
p3188
(dp3189
g223
Nsg224
Nsg225
Nsg226
Nsg227
Nsg228
Nsg229
NssVtx A-tx B
p3190
(dp3191
g223
Nsg224
Nsg225
Nsg226
Nsg227
Nsg228
Nsg229
Nsssg252
(dp3192
Vtx B-tx A
p3193
(dp3194
g223
Nsg224
Nsg225
Nsg226
Nsg227
Nsg228
Nsg229
NssVtx A-tx B
p3195
(dp3196
g223
Nsg224
Nsg225
Nsg226
Nsg227
Nsg228
Nsg229
Nsssg258
(dp3197
Vtx B-tx A
p3198
(dp3199
g223
Nsg224
Nsg225
Nsg226
Nsg227
Nsg228
Nsg229
NssVtx A-tx B
p3200
(dp3201
g223
Nsg224
Nsg225
Nsg226
Nsg227
Nsg228
Nsg229
Nsssg264
(dp3202
Vtx B-tx A
p3203
(dp3204
g223
Nsg224
Nsg225
Nsg226
Nsg227
Nsg228
Nsg229
NssVtx A-tx B
p3205
(dp3206
g223
Nsg224
Nsg225
Nsg226
Nsg227
Nsg228
Nsg229
Nsssg270
(dp3207
g70
(dp3208
g223
Nsg224
Nsg225
Nsg226
Nsg227
Nsg228
Nsg229
Nssg72
(dp3209
g223
Nsg224
Nsg225
Nsg226
Nsg227
Nsg228
Nsg229
Nsssg274
(dp3210
g70
(dp3211
g223
Nsg224
Nsg225
Nsg226
Nsg227
Nsg228
Nsg229
Nssg72
(dp3212
g223
Nsg224
Nsg225
Nsg226
Nsg227
Nsg228
Nsg229
Nsssg278
(dp3213
g70
(dp3214
g223
Nsg224
Nsg225
Nsg226
Nsg227
Nsg228
Nsg229
Nssg72
(dp3215
g223
Nsg224
Nsg225
Nsg226
Nsg227
Nsg228
Nsg229
Nsssg282
(dp3216
Vtx B-tx A
p3217
(dp3218
g223
F-0.30949437976630656
sg224
F-3.1930418359803294
sg225
F-1.751268107873318
sg226
F0.7338178956150252
sg227
F0.17355371900826447
sg228
F0.04104682314452796
sg229
NssVtx A-tx B
p3219
(dp3220
g223
F3.19304183598033
sg224
F0.30949437976630634
sg225
F1.751268107873318
sg226
F24.36242133718727
sg227
F5.761904761904762
sg228
F1.3627359130590333
sg229
F0.7356123579206246
ssssg126
(dp3221
g70
(ima_dataset
TreatmentGroup
p3222
(dp3223
g130
(lp3224
F11.0
aF25.0
asg132
I0
sg36
g133
sbsg72
(ima_dataset
TreatmentGroup
p3225
(dp3226
g130
(lp3227
F3.0
aF25.0
asg132
I1
sg36
g137
sbssg138
g42
sg29
I00
sg139
I2
sbsssg297
I00
sg298
I1977
sg299
Nsg132
I16
sba(ima_dataset
Study
p3228
(dp3229
g35
I01
sg36
VVanhaeverbeek
p3230
sg38
(dp3231
sg25
g26
sg40
(lp3232
g42
ag46
asg48
(dp3233
g7
(dp3234
g12
(ima_dataset
MetaAnalyticUnit
p3235
(dp3236
g53
(dp3237
g55
(dp3238
Vtx B-tx A
p3239
(dp3240
g59
Nsg60
Nsg61
Nsg62
Nsg63
Nsg64
Nsg65
NssVtx A-tx B
p3241
(dp3242
g59
Nsg60
Nsg61
Nsg62
Nsg63
Nsg64
Nsg65
Nsssg68
(dp3243
g70
(dp3244
g59
Nsg60
Nsg61
Nsg62
Nsg63
Nsg64
Nsg65
Nssg72
(dp3245
g59
Nsg60
Nsg61
Nsg62
Nsg63
Nsg64
Nsg65
Nsssg74
(dp3246
g70
(dp3247
g59
Nsg60
Nsg61
Nsg62
Nsg63
Nsg64
Nsg65
Nssg72
(dp3248
g59
Nsg60
Nsg61
Nsg62
Nsg63
Nsg64
Nsg65
Nsssg78
(dp3249
Vtx B-tx A
p3250
(dp3251
g59
Nsg60
Nsg61
Nsg62
Nsg63
Nsg64
Nsg65
NssVtx A-tx B
p3252
(dp3253
g59
F2.09165692794998
sg60
F-4.191301176947334
sg61
F-1.0498221244986774
sg62
F8.098322390550601
sg63
F0.3500000000000001
sg64
F0.015126589692568587
sg65
Nsssg84
(dp3254
Vtx B-tx A
p3255
(dp3256
g59
Nsg60
Nsg61
Nsg62
Nsg63
Nsg64
Nsg65
NssVtx A-tx B
p3257
(dp3258
g59
Nsg60
Nsg61
Nsg62
Nsg63
Nsg64
Nsg65
Nsssg90
(dp3259
Vtx B-tx A
p3260
(dp3261
g59
Nsg60
Nsg61
Nsg62
Nsg63
Nsg64
Nsg65
NssVtx A-tx B
p3262
(dp3263
g59
Nsg60
Nsg61
Nsg62
Nsg63
Nsg64
Nsg65
Nsssg96
(dp3264
Vtx B-tx A
p3265
(dp3266
g59
Nsg60
Nsg61
Nsg62
Nsg63
Nsg64
Nsg65
NssVtx A-tx B
p3267
(dp3268
g59
Nsg60
Nsg61
Nsg62
Nsg63
Nsg64
Nsg65
Nsssg102
(dp3269
Vtx B-tx A
p3270
(dp3271
g59
Nsg60
Nsg61
Nsg62
Nsg63
Nsg64
Nsg65
NssVtx A-tx B
p3272
(dp3273
g59
Nsg60
Nsg61
Nsg62
Nsg63
Nsg64
Nsg65
Nsssg108
(dp3274
g70
(dp3275
g59
Nsg60
Nsg61
Nsg62
Nsg63
Nsg64
Nsg65
Nssg72
(dp3276
g59
Nsg60
Nsg61
Nsg62
Nsg63
Nsg64
Nsg65
Nsssg112
(dp3277
g70
(dp3278
g59
Nsg60
Nsg61
Nsg62
Nsg63
Nsg64
Nsg65
Nssg72
(dp3279
g59
Nsg60
Nsg61
Nsg62
Nsg63
Nsg64
Nsg65
Nsssg116
(dp3280
g70
(dp3281
g59
Nsg60
Nsg61
Nsg62
Nsg63
Nsg64
Nsg65
Nssg72
(dp3282
g59
Nsg60
Nsg61
Nsg62
Nsg63
Nsg64
Nsg65
Nsssg120
(dp3283
Vtx B-tx A
p3284
(dp3285
g59
F4.360189509124359
sg60
F-2.1629649317881396
sg61
F1.0986122886681096
sg62
F78.27196626944432
sg63
F2.9999999999999996
sg64
F0.11498369632134056
sg65
NssVtx A-tx B
p3286
(dp3287
g59
F2.162964931788139
sg60
F-4.360189509124359
sg61
F-1.0986122886681096
sg62
F8.696885141049368
sg63
F0.33333333333333337
sg64
F0.012775966257926734
sg65
Nssssg126
(dp3288
g70
(ima_dataset
TreatmentGroup
p3289
(dp3290
g130
(lp3291
F0.0
aF19.0
asg132
I0
sg36
g133
sbsg72
(ima_dataset
TreatmentGroup
p3292
(dp3293
g130
(lp3294
F1.0
aF20.0
asg132
I1
sg36
g137
sbssg138
g46
sg29
I00
sg139
I2
sbssg18
(dp3295
N(ima_dataset
MetaAnalyticUnit
p3296
(dp3297
g29
I00
sg126
(dp3298
g144
(ima_dataset
TreatmentGroup
p3299
(dp3300
g130
(lp3301
g26
ag26
asg132
I0
sg36
g144
sbsg148
(ima_dataset
TreatmentGroup
p3302
(dp3303
g130
(lp3304
g26
ag26
asg132
I1
sg36
g148
sbssg138
g42
sg53
(dp3305
g153
(dp3306
S'tx B-tx A'
p3307
(dp3308
g157
Nsg158
Nsg159
Nsg160
Nsg161
Nsg162
Nsg163
NssS'tx A-tx B'
p3309
(dp3310
g157
Nsg158
Nsg159
Nsg160
Nsg161
Nsg162
Nsg163
Nsssg166
(dp3311
g144
(dp3312
g157
Nsg158
Nsg159
Nsg160
Nsg161
Nsg162
Nsg163
Nssg148
(dp3313
g157
Nsg158
Nsg159
Nsg160
Nsg161
Nsg162
Nsg163
Nsssg170
(dp3314
g144
(dp3315
g157
Nsg158
Nsg159
Nsg160
Nsg161
Nsg162
Nsg163
Nssg148
(dp3316
g157
Nsg158
Nsg159
Nsg160
Nsg161
Nsg162
Nsg163
Nsssg174
(dp3317
S'tx B-tx A'
p3318
(dp3319
g157
Nsg158
Nsg159
Nsg160
Nsg161
Nsg162
Nsg163
NssS'tx A-tx B'
p3320
(dp3321
g157
Nsg158
Nsg159
Nsg160
Nsg161
Nsg162
Nsg163
Nsssg180
(dp3322
S'tx B-tx A'
p3323
(dp3324
g157
Nsg158
Nsg159
Nsg160
Nsg161
Nsg162
Nsg163
NssS'tx A-tx B'
p3325
(dp3326
g157
Nsg158
Nsg159
Nsg160
Nsg161
Nsg162
Nsg163
Nsssg186
(dp3327
S'tx B-tx A'
p3328
(dp3329
g157
Nsg158
Nsg159
Nsg160
Nsg161
Nsg162
Nsg163
NssS'tx A-tx B'
p3330
(dp3331
g157
Nsg158
Nsg159
Nsg160
Nsg161
Nsg162
Nsg163
Nsssg192
(dp3332
S'tx B-tx A'
p3333
(dp3334
g157
Nsg158
Nsg159
Nsg160
Nsg161
Nsg162
Nsg163
NssS'tx A-tx B'
p3335
(dp3336
g157
Nsg158
Nsg159
Nsg160
Nsg161
Nsg162
Nsg163
Nsssg198
(dp3337
g144
(dp3338
g157
Nsg158
Nsg159
Nsg160
Nsg161
Nsg162
Nsg163
Nssg148
(dp3339
g157
Nsg158
Nsg159
Nsg160
Nsg161
Nsg162
Nsg163
Nsssg202
(dp3340
g144
(dp3341
g157
Nsg158
Nsg159
Nsg160
Nsg161
Nsg162
Nsg163
Nssg148
(dp3342
g157
Nsg158
Nsg159
Nsg160
Nsg161
Nsg162
Nsg163
Nsssg206
(dp3343
g144
(dp3344
g157
Nsg158
Nsg159
Nsg160
Nsg161
Nsg162
Nsg163
Nssg148
(dp3345
g157
Nsg158
Nsg159
Nsg160
Nsg161
Nsg162
Nsg163
Nsssg210
(dp3346
S'tx B-tx A'
p3347
(dp3348
g157
Nsg158
Nsg159
Nsg160
Nsg161
Nsg162
Nsg163
NssS'tx A-tx B'
p3349
(dp3350
g157
Nsg158
Nsg159
Nsg160
Nsg161
Nsg162
Nsg163
Nssssg139
I2
sbsg20
(ima_dataset
MetaAnalyticUnit
p3351
(dp3352
g53
(dp3353
g219
(dp3354
Vtx B-tx A
p3355
(dp3356
g223
Nsg224
Nsg225
Nsg226
Nsg227
Nsg228
Nsg229
NssVtx A-tx B
p3357
(dp3358
g223
Nsg224
Nsg225
Nsg226
Nsg227
Nsg228
Nsg229
Nsssg232
(dp3359
g70
(dp3360
g223
Nsg224
Nsg225
Nsg226
Nsg227
Nsg228
Nsg229
Nssg72
(dp3361
g223
Nsg224
Nsg225
Nsg226
Nsg227
Nsg228
Nsg229
Nsssg236
(dp3362
g70
(dp3363
g223
Nsg224
Nsg225
Nsg226
Nsg227
Nsg228
Nsg229
Nssg72
(dp3364
g223
Nsg224
Nsg225
Nsg226
Nsg227
Nsg228
Nsg229
Nsssg240
(dp3365
Vtx B-tx A
p3366
(dp3367
g223
F3.8230098992677988
sg224
F-3.920590227606663
sg225
F-0.04879016416943216
sg226
F45.74167917701218
sg227
F0.9523809523809522
sg228
F0.01982938743783337
sg229
NssVtx A-tx B
p3368
(dp3369
g223
F3.920590227606663
sg224
F-3.8230098992677988
sg225
F0.04879016416943216
sg226
F50.430201292655944
sg227
F1.0500000000000003
sg228
F0.0218618996502113
sg229
Nsssg246
(dp3370
Vtx B-tx A
p3371
(dp3372
g223
Nsg224
Nsg225
Nsg226
Nsg227
Nsg228
Nsg229
NssVtx A-tx B
p3373
(dp3374
g223
Nsg224
Nsg225
Nsg226
Nsg227
Nsg228
Nsg229
Nsssg252
(dp3375
Vtx B-tx A
p3376
(dp3377
g223
Nsg224
Nsg225
Nsg226
Nsg227
Nsg228
Nsg229
NssVtx A-tx B
p3378
(dp3379
g223
Nsg224
Nsg225
Nsg226
Nsg227
Nsg228
Nsg229
Nsssg258
(dp3380
Vtx B-tx A
p3381
(dp3382
g223
Nsg224
Nsg225
Nsg226
Nsg227
Nsg228
Nsg229
NssVtx A-tx B
p3383
(dp3384
g223
Nsg224
Nsg225
Nsg226
Nsg227
Nsg228
Nsg229
Nsssg264
(dp3385
Vtx B-tx A
p3386
(dp3387
g223
Nsg224
Nsg225
Nsg226
Nsg227
Nsg228
Nsg229
NssVtx A-tx B
p3388
(dp3389
g223
Nsg224
Nsg225
Nsg226
Nsg227
Nsg228
Nsg229
Nsssg270
(dp3390
g70
(dp3391
g223
Nsg224
Nsg225
Nsg226
Nsg227
Nsg228
Nsg229
Nssg72
(dp3392
g223
Nsg224
Nsg225
Nsg226
Nsg227
Nsg228
Nsg229
Nsssg274
(dp3393
g70
(dp3394
g223
Nsg224
Nsg225
Nsg226
Nsg227
Nsg228
Nsg229
Nssg72
(dp3395
g223
Nsg224
Nsg225
Nsg226
Nsg227
Nsg228
Nsg229
Nsssg278
(dp3396
g70
(dp3397
g223
Nsg224
Nsg225
Nsg226
Nsg227
Nsg228
Nsg229
Nssg72
(dp3398
g223
Nsg224
Nsg225
Nsg226
Nsg227
Nsg228
Nsg229
Nsssg282
(dp3399
Vtx B-tx A
p3400
(dp3401
g223
F3.918644440480029
sg224
F-4.018665281629352
sg225
F-0.05001042057466165
sg226
F50.33217026087645
sg227
F0.9512195121951217
sg228
F0.01797694309009455
sg229
NssVtx A-tx B
p3402
(dp3403
g223
F4.018665281629353
sg224
F-3.9186444404800294
sg225
F0.05001042057466165
sg226
F55.62681013052823
sg227
F1.0512820512820515
sg228
F0.01986800876689608
sg229
F2.0248611159995464
ssssg126
(dp3404
g70
(ima_dataset
TreatmentGroup
p3405
(dp3406
g130
(lp3407
F0.0
aF19.0
asg132
I0
sg36
g133
sbsg72
(ima_dataset
TreatmentGroup
p3408
(dp3409
g130
(lp3410
F0.0
aF20.0
asg132
I1
sg36
g137
sbssg138
g42
sg29
I00
sg139
I2
sbsssg297
I00
sg298
I1993
sg299
Nsg132
I17
sba(ima_dataset
Study
p3411
(dp3412
g35
I01
sg36
VHollender
p3413
sg38
(dp3414
sg25
g26
sg40
(lp3415
g42
ag46
asg48
(dp3416
g7
(dp3417
g12
(ima_dataset
MetaAnalyticUnit
p3418
(dp3419
g53
(dp3420
g55
(dp3421
Vtx B-tx A
p3422
(dp3423
g59
Nsg60
Nsg61
Nsg62
Nsg63
Nsg64
Nsg65
NssVtx A-tx B
p3424
(dp3425
g59
Nsg60
Nsg61
Nsg62
Nsg63
Nsg64
Nsg65
Nsssg68
(dp3426
g70
(dp3427
g59
Nsg60
Nsg61
Nsg62
Nsg63
Nsg64
Nsg65
Nssg72
(dp3428
g59
Nsg60
Nsg61
Nsg62
Nsg63
Nsg64
Nsg65
Nsssg74
(dp3429
g70
(dp3430
g59
Nsg60
Nsg61
Nsg62
Nsg63
Nsg64
Nsg65
Nssg72
(dp3431
g59
Nsg60
Nsg61
Nsg62
Nsg63
Nsg64
Nsg65
Nsssg78
(dp3432
Vtx B-tx A
p3433
(dp3434
g59
Nsg60
Nsg61
Nsg62
Nsg63
Nsg64
Nsg65
NssVtx A-tx B
p3435
(dp3436
g59
F0.9603474274824348
sg60
F-4.921140077735401
sg61
F-1.980396325126483
sg62
F2.6126040061955473
sg63
F0.1380145278450363
sg64
F0.00729081401204228
sg65
Nsssg84
(dp3437
Vtx B-tx A
p3438
(dp3439
g59
Nsg60
Nsg61
Nsg62
Nsg63
Nsg64
Nsg65
NssVtx A-tx B
p3440
(dp3441
g59
Nsg60
Nsg61
Nsg62
Nsg63
Nsg64
Nsg65
Nsssg90
(dp3442
Vtx B-tx A
p3443
(dp3444
g59
Nsg60
Nsg61
Nsg62
Nsg63
Nsg64
Nsg65
NssVtx A-tx B
p3445
(dp3446
g59
Nsg60
Nsg61
Nsg62
Nsg63
Nsg64
Nsg65
Nsssg96
(dp3447
Vtx B-tx A
p3448
(dp3449
g59
Nsg60
Nsg61
Nsg62
Nsg63
Nsg64
Nsg65
NssVtx A-tx B
p3450
(dp3451
g59
Nsg60
Nsg61
Nsg62
Nsg63
Nsg64
Nsg65
Nsssg102
(dp3452
Vtx B-tx A
p3453
(dp3454
g59
Nsg60
Nsg61
Nsg62
Nsg63
Nsg64
Nsg65
NssVtx A-tx B
p3455
(dp3456
g59
Nsg60
Nsg61
Nsg62
Nsg63
Nsg64
Nsg65
Nsssg108
(dp3457
g70
(dp3458
g59
Nsg60
Nsg61
Nsg62
Nsg63
Nsg64
Nsg65
Nssg72
(dp3459
g59
Nsg60
Nsg61
Nsg62
Nsg63
Nsg64
Nsg65
Nsssg112
(dp3460
g70
(dp3461
g59
Nsg60
Nsg61
Nsg62
Nsg63
Nsg64
Nsg65
Nssg72
(dp3462
g59
Nsg60
Nsg61
Nsg62
Nsg63
Nsg64
Nsg65
Nsssg116
(dp3463
g70
(dp3464
g59
Nsg60
Nsg61
Nsg62
Nsg63
Nsg64
Nsg65
Nssg72
(dp3465
g59
Nsg60
Nsg61
Nsg62
Nsg63
Nsg64
Nsg65
Nsssg120
(dp3466
Vtx B-tx A
p3467
(dp3468
g59
F5.021548308654056
sg60
F-0.9510378098717287
sg61
F2.0352552493911635
sg62
F151.64591680584826
sg63
F7.654205607476638
sg64
F0.38633986800010833
sg65
NssVtx A-tx B
p3469
(dp3470
g59
F0.9510378098717287
sg60
F-5.021548308654056
sg61
F-2.0352552493911635
sg62
F2.588394527275967
sg63
F0.1306471306471306
sg64
F0.006594308775753563
sg65
Nssssg126
(dp3471
g70
(ima_dataset
TreatmentGroup
p3472
(dp3473
g130
(lp3474
F0.0
aF58.0
asg132
I0
sg36
g133
sbsg72
(ima_dataset
TreatmentGroup
p3475
(dp3476
g130
(lp3477
F3.0
aF56.0
asg132
I1
sg36
g137
sbssg138
g46
sg29
I00
sg139
I2
sbssg18
(dp3478
N(ima_dataset
MetaAnalyticUnit
p3479
(dp3480
g29
I00
sg126
(dp3481
g144
(ima_dataset
TreatmentGroup
p3482
(dp3483
g130
(lp3484
g26
ag26
asg132
I0
sg36
g144
sbsg148
(ima_dataset
TreatmentGroup
p3485
(dp3486
g130
(lp3487
g26
ag26
asg132
I1
sg36
g148
sbssg138
g42
sg53
(dp3488
g153
(dp3489
S'tx B-tx A'
p3490
(dp3491
g157
Nsg158
Nsg159
Nsg160
Nsg161
Nsg162
Nsg163
NssS'tx A-tx B'
p3492
(dp3493
g157
Nsg158
Nsg159
Nsg160
Nsg161
Nsg162
Nsg163
Nsssg166
(dp3494
g144
(dp3495
g157
Nsg158
Nsg159
Nsg160
Nsg161
Nsg162
Nsg163
Nssg148
(dp3496
g157
Nsg158
Nsg159
Nsg160
Nsg161
Nsg162
Nsg163
Nsssg170
(dp3497
g144
(dp3498
g157
Nsg158
Nsg159
Nsg160
Nsg161
Nsg162
Nsg163
Nssg148
(dp3499
g157
Nsg158
Nsg159
Nsg160
Nsg161
Nsg162
Nsg163
Nsssg174
(dp3500
S'tx B-tx A'
p3501
(dp3502
g157
Nsg158
Nsg159
Nsg160
Nsg161
Nsg162
Nsg163
NssS'tx A-tx B'
p3503
(dp3504
g157
Nsg158
Nsg159
Nsg160
Nsg161
Nsg162
Nsg163
Nsssg180
(dp3505
S'tx B-tx A'
p3506
(dp3507
g157
Nsg158
Nsg159
Nsg160
Nsg161
Nsg162
Nsg163
NssS'tx A-tx B'
p3508
(dp3509
g157
Nsg158
Nsg159
Nsg160
Nsg161
Nsg162
Nsg163
Nsssg186
(dp3510
S'tx B-tx A'
p3511
(dp3512
g157
Nsg158
Nsg159
Nsg160
Nsg161
Nsg162
Nsg163
NssS'tx A-tx B'
p3513
(dp3514
g157
Nsg158
Nsg159
Nsg160
Nsg161
Nsg162
Nsg163
Nsssg192
(dp3515
S'tx B-tx A'
p3516
(dp3517
g157
Nsg158
Nsg159
Nsg160
Nsg161
Nsg162
Nsg163
NssS'tx A-tx B'
p3518
(dp3519
g157
Nsg158
Nsg159
Nsg160
Nsg161
Nsg162
Nsg163
Nsssg198
(dp3520
g144
(dp3521
g157
Nsg158
Nsg159
Nsg160
Nsg161
Nsg162
Nsg163
Nssg148
(dp3522
g157
Nsg158
Nsg159
Nsg160
Nsg161
Nsg162
Nsg163
Nsssg202
(dp3523
g144
(dp3524
g157
Nsg158
Nsg159
Nsg160
Nsg161
Nsg162
Nsg163
Nssg148
(dp3525
g157
Nsg158
Nsg159
Nsg160
Nsg161
Nsg162
Nsg163
Nsssg206
(dp3526
g144
(dp3527
g157
Nsg158
Nsg159
Nsg160
Nsg161
Nsg162
Nsg163
Nssg148
(dp3528
g157
Nsg158
Nsg159
Nsg160
Nsg161
Nsg162
Nsg163
Nsssg210
(dp3529
S'tx B-tx A'
p3530
(dp3531
g157
Nsg158
Nsg159
Nsg160
Nsg161
Nsg162
Nsg163
NssS'tx A-tx B'
p3532
(dp3533
g157
Nsg158
Nsg159
Nsg160
Nsg161
Nsg162
Nsg163
Nssssg139
I2
sbsg20
(ima_dataset
MetaAnalyticUnit
p3534
(dp3535
g53
(dp3536
g219
(dp3537
Vtx B-tx A
p3538
(dp3539
g223
Nsg224
Nsg225
Nsg226
Nsg227
Nsg228
Nsg229
NssVtx A-tx B
p3540
(dp3541
g223
Nsg224
Nsg225
Nsg226
Nsg227
Nsg228
Nsg229
Nsssg232
(dp3542
g70
(dp3543
g223
Nsg224
Nsg225
Nsg226
Nsg227
Nsg228
Nsg229
Nssg72
(dp3544
g223
Nsg224
Nsg225
Nsg226
Nsg227
Nsg228
Nsg229
Nsssg236
(dp3545
g70
(dp3546
g223
Nsg224
Nsg225
Nsg226
Nsg227
Nsg228
Nsg229
Nssg72
(dp3547
g223
Nsg224
Nsg225
Nsg226
Nsg227
Nsg228
Nsg229
Nsssg240
(dp3548
Vtx B-tx A
p3549
(dp3550
g223
F4.312939137254544
sg224
F-2.0467422077759854
sg225
F1.1330984647392794
sg226
F74.65960159798978
sg227
F3.105263157894738
sg228
F0.12915497904341922
sg229
NssVtx A-tx B
p3551
(dp3552
g223
F2.0467422077759854
sg224
F-4.312939137254544
sg225
F-1.1330984647392794
sg226
F7.742636074942344
sg227
F0.3220338983050846
sg228
F0.013394124514413765
sg229
Nsssg246
(dp3553
Vtx B-tx A
p3554
(dp3555
g223
Nsg224
Nsg225
Nsg226
Nsg227
Nsg228
Nsg229
NssVtx A-tx B
p3556
(dp3557
g223
Nsg224
Nsg225
Nsg226
Nsg227
Nsg228
Nsg229
Nsssg252
(dp3558
Vtx B-tx A
p3559
(dp3560
g223
Nsg224
Nsg225
Nsg226
Nsg227
Nsg228
Nsg229
NssVtx A-tx B
p3561
(dp3562
g223
Nsg224
Nsg225
Nsg226
Nsg227
Nsg228
Nsg229
Nsssg258
(dp3563
Vtx B-tx A
p3564
(dp3565
g223
Nsg224
Nsg225
Nsg226
Nsg227
Nsg228
Nsg229
NssVtx A-tx B
p3566
(dp3567
g223
Nsg224
Nsg225
Nsg226
Nsg227
Nsg228
Nsg229
Nsssg264
(dp3568
Vtx B-tx A
p3569
(dp3570
g223
Nsg224
Nsg225
Nsg226
Nsg227
Nsg228
Nsg229
NssVtx A-tx B
p3571
(dp3572
g223
Nsg224
Nsg225
Nsg226
Nsg227
Nsg228
Nsg229
Nsssg270
(dp3573
g70
(dp3574
g223
Nsg224
Nsg225
Nsg226
Nsg227
Nsg228
Nsg229
Nssg72
(dp3575
g223
Nsg224
Nsg225
Nsg226
Nsg227
Nsg228
Nsg229
Nsssg274
(dp3576
g70
(dp3577
g223
Nsg224
Nsg225
Nsg226
Nsg227
Nsg228
Nsg229
Nssg72
(dp3578
g223
Nsg224
Nsg225
Nsg226
Nsg227
Nsg228
Nsg229
Nsssg278
(dp3579
g70
(dp3580
g223
Nsg224
Nsg225
Nsg226
Nsg227
Nsg228
Nsg229
Nssg72
(dp3581
g223
Nsg224
Nsg225
Nsg226
Nsg227
Nsg228
Nsg229
Nsssg282
(dp3582
Vtx B-tx A
p3583
(dp3584
g223
F4.372866120460171
sg224
F-2.070354076153107
sg225
F1.151256022153532
sg226
F79.27050523776249
sg227
F3.162162162162163
sg228
F0.12614111023789315
sg229
NssVtx A-tx B
p3585
(dp3586
g223
F2.0703540761531074
sg224
F-4.372866120460172
sg225
F-1.151256022153532
sg226
F7.927629605558978
sg227
F0.31623931623931617
sg228
F0.012615032501693001
sg229
F1.6437088251204048
ssssg126
(dp3587
g70
(ima_dataset
TreatmentGroup
p3588
(dp3589
g130
(lp3590
F0.0
aF58.0
asg132
I0
sg36
g133
sbsg72
(ima_dataset
TreatmentGroup
p3591
(dp3592
g130
(lp3593
F1.0
aF56.0
asg132
I1
sg36
g137
sbssg138
g42
sg29
I00
sg139
I2
sbsssg297
I00
sg298
I1989
sg299
Nsg132
I18
sba(ima_dataset
Study
p3594
(dp3595
g35
I00
sg36
g26
sg38
(dp3596
sg25
g26
sg40
(lp3597
g42
ag46
asg48
(dp3598
g7
(dp3599
g12
(ima_dataset
MetaAnalyticUnit
p3600
(dp3601
g53
(dp3602
g55
(dp3603
Vtx B-tx A
p3604
(dp3605
g59
Nsg60
Nsg61
Nsg62
Nsg63
Nsg64
Nsg65
NssVtx A-tx B
p3606
(dp3607
g59
Nsg60
Nsg61
Nsg62
Nsg63
Nsg64
Nsg65
Nsssg68
(dp3608
g70
(dp3609
g59
Nsg60
Nsg61
Nsg62
Nsg63
Nsg64
Nsg65
Nssg72
(dp3610
g59
Nsg60
Nsg61
Nsg62
Nsg63
Nsg64
Nsg65
Nsssg74
(dp3611
g70
(dp3612
g59
Nsg60
Nsg61
Nsg62
Nsg63
Nsg64
Nsg65
Nssg72
(dp3613
g59
Nsg60
Nsg61
Nsg62
Nsg63
Nsg64
Nsg65
Nsssg78
(dp3614
Vtx B-tx A
p3615
(dp3616
g59
Nsg60
Nsg61
Nsg62
Nsg63
Nsg64
Nsg65
NssVtx A-tx B
p3617
(dp3618
g59
Nsg60
Nsg61
Nsg62
Nsg63
Nsg64
Nsg65
Nsssg84
(dp3619
Vtx B-tx A
p3620
(dp3621
g59
Nsg60
Nsg61
Nsg62
Nsg63
Nsg64
Nsg65
NssVtx A-tx B
p3622
(dp3623
g59
Nsg60
Nsg61
Nsg62
Nsg63
Nsg64
Nsg65
Nsssg90
(dp3624
Vtx B-tx A
p3625
(dp3626
g59
Nsg60
Nsg61
Nsg62
Nsg63
Nsg64
Nsg65
NssVtx A-tx B
p3627
(dp3628
g59
Nsg60
Nsg61
Nsg62
Nsg63
Nsg64
Nsg65
Nsssg96
(dp3629
Vtx B-tx A
p3630
(dp3631
g59
Nsg60
Nsg61
Nsg62
Nsg63
Nsg64
Nsg65
NssVtx A-tx B
p3632
(dp3633
g59
Nsg60
Nsg61
Nsg62
Nsg63
Nsg64
Nsg65
Nsssg102
(dp3634
Vtx B-tx A
p3635
(dp3636
g59
Nsg60
Nsg61
Nsg62
Nsg63
Nsg64
Nsg65
NssVtx A-tx B
p3637
(dp3638
g59
Nsg60
Nsg61
Nsg62
Nsg63
Nsg64
Nsg65
Nsssg108
(dp3639
g70
(dp3640
g59
Nsg60
Nsg61
Nsg62
Nsg63
Nsg64
Nsg65
Nssg72
(dp3641
g59
Nsg60
Nsg61
Nsg62
Nsg63
Nsg64
Nsg65
Nsssg112
(dp3642
g70
(dp3643
g59
Nsg60
Nsg61
Nsg62
Nsg63
Nsg64
Nsg65
Nssg72
(dp3644
g59
Nsg60
Nsg61
Nsg62
Nsg63
Nsg64
Nsg65
Nsssg116
(dp3645
g70
(dp3646
g59
Nsg60
Nsg61
Nsg62
Nsg63
Nsg64
Nsg65
Nssg72
(dp3647
g59
Nsg60
Nsg61
Nsg62
Nsg63
Nsg64
Nsg65
Nsssg120
(dp3648
Vtx B-tx A
p3649
(dp3650
g59
Nsg60
Nsg61
Nsg62
Nsg63
Nsg64
Nsg65
NssVtx A-tx B
p3651
(dp3652
g59
Nsg60
Nsg61
Nsg62
Nsg63
Nsg64
Nsg65
Nssssg126
(dp3653
g70
(ima_dataset
TreatmentGroup
p3654
(dp3655
g130
(lp3656
g26
ag26
asg132
I0
sg36
g133
sbsg72
(ima_dataset
TreatmentGroup
p3657
(dp3658
g130
(lp3659
g26
ag26
asg132
I1
sg36
g137
sbssg138
g46
sg29
I00
sg139
I2
sbssg18
(dp3660
N(ima_dataset
MetaAnalyticUnit
p3661
(dp3662
g29
I00
sg126
(dp3663
g144
(ima_dataset
TreatmentGroup
p3664
(dp3665
g130
(lp3666
g26
ag26
asg132
I0
sg36
g144
sbsg148
(ima_dataset
TreatmentGroup
p3667
(dp3668
g130
(lp3669
g26
ag26
asg132
I1
sg36
g148
sbssg138
g42
sg53
(dp3670
g153
(dp3671
S'tx B-tx A'
p3672
(dp3673
g157
Nsg158
Nsg159
Nsg160
Nsg161
Nsg162
Nsg163
NssS'tx A-tx B'
p3674
(dp3675
g157
Nsg158
Nsg159
Nsg160
Nsg161
Nsg162
Nsg163
Nsssg166
(dp3676
g144
(dp3677
g157
Nsg158
Nsg159
Nsg160
Nsg161
Nsg162
Nsg163
Nssg148
(dp3678
g157
Nsg158
Nsg159
Nsg160
Nsg161
Nsg162
Nsg163
Nsssg170
(dp3679
g144
(dp3680
g157
Nsg158
Nsg159
Nsg160
Nsg161
Nsg162
Nsg163
Nssg148
(dp3681
g157
Nsg158
Nsg159
Nsg160
Nsg161
Nsg162
Nsg163
Nsssg174
(dp3682
S'tx B-tx A'
p3683
(dp3684
g157
Nsg158
Nsg159
Nsg160
Nsg161
Nsg162
Nsg163
NssS'tx A-tx B'
p3685
(dp3686
g157
Nsg158
Nsg159
Nsg160
Nsg161
Nsg162
Nsg163
Nsssg180
(dp3687
S'tx B-tx A'
p3688
(dp3689
g157
Nsg158
Nsg159
Nsg160
Nsg161
Nsg162
Nsg163
NssS'tx A-tx B'
p3690
(dp3691
g157
Nsg158
Nsg159
Nsg160
Nsg161
Nsg162
Nsg163
Nsssg186
(dp3692
S'tx B-tx A'
p3693
(dp3694
g157
Nsg158
Nsg159
Nsg160
Nsg161
Nsg162
Nsg163
NssS'tx A-tx B'
p3695
(dp3696
g157
Nsg158
Nsg159
Nsg160
Nsg161
Nsg162
Nsg163
Nsssg192
(dp3697
S'tx B-tx A'
p3698
(dp3699
g157
Nsg158
Nsg159
Nsg160
Nsg161
Nsg162
Nsg163
NssS'tx A-tx B'
p3700
(dp3701
g157
Nsg158
Nsg159
Nsg160
Nsg161
Nsg162
Nsg163
Nsssg198
(dp3702
g144
(dp3703
g157
Nsg158
Nsg159
Nsg160
Nsg161
Nsg162
Nsg163
Nssg148
(dp3704
g157
Nsg158
Nsg159
Nsg160
Nsg161
Nsg162
Nsg163
Nsssg202
(dp3705
g144
(dp3706
g157
Nsg158
Nsg159
Nsg160
Nsg161
Nsg162
Nsg163
Nssg148
(dp3707
g157
Nsg158
Nsg159
Nsg160
Nsg161
Nsg162
Nsg163
Nsssg206
(dp3708
g144
(dp3709
g157
Nsg158
Nsg159
Nsg160
Nsg161
Nsg162
Nsg163
Nssg148
(dp3710
g157
Nsg158
Nsg159
Nsg160
Nsg161
Nsg162
Nsg163
Nsssg210
(dp3711
S'tx B-tx A'
p3712
(dp3713
g157
Nsg158
Nsg159
Nsg160
Nsg161
Nsg162
Nsg163
NssS'tx A-tx B'
p3714
(dp3715
g157
Nsg158
Nsg159
Nsg160
Nsg161
Nsg162
Nsg163
Nssssg139
I2
sbsg20
(ima_dataset
MetaAnalyticUnit
p3716
(dp3717
g53
(dp3718
g219
(dp3719
Vtx B-tx A
p3720
(dp3721
g223
Nsg224
Nsg225
Nsg226
Nsg227
Nsg228
Nsg229
NssVtx A-tx B
p3722
(dp3723
g223
Nsg224
Nsg225
Nsg226
Nsg227
Nsg228
Nsg229
Nsssg232
(dp3724
g70
(dp3725
g223
Nsg224
Nsg225
Nsg226
Nsg227
Nsg228
Nsg229
Nssg72
(dp3726
g223
Nsg224
Nsg225
Nsg226
Nsg227
Nsg228
Nsg229
Nsssg236
(dp3727
g70
(dp3728
g223
Nsg224
Nsg225
Nsg226
Nsg227
Nsg228
Nsg229
Nssg72
(dp3729
g223
Nsg224
Nsg225
Nsg226
Nsg227
Nsg228
Nsg229
Nsssg240
(dp3730
Vtx B-tx A
p3731
(dp3732
g223
Nsg224
Nsg225
Nsg226
Nsg227
Nsg228
Nsg229
NssVtx A-tx B
p3733
(dp3734
g223
Nsg224
Nsg225
Nsg226
Nsg227
Nsg228
Nsg229
Nsssg246
(dp3735
Vtx B-tx A
p3736
(dp3737
g223
Nsg224
Nsg225
Nsg226
Nsg227
Nsg228
Nsg229
NssVtx A-tx B
p3738
(dp3739
g223
Nsg224
Nsg225
Nsg226
Nsg227
Nsg228
Nsg229
Nsssg252
(dp3740
Vtx B-tx A
p3741
(dp3742
g223
Nsg224
Nsg225
Nsg226
Nsg227
Nsg228
Nsg229
NssVtx A-tx B
p3743
(dp3744
g223
Nsg224
Nsg225
Nsg226
Nsg227
Nsg228
Nsg229
Nsssg258
(dp3745
Vtx B-tx A
p3746
(dp3747
g223
Nsg224
Nsg225
Nsg226
Nsg227
Nsg228
Nsg229
NssVtx A-tx B
p3748
(dp3749
g223
Nsg224
Nsg225
Nsg226
Nsg227
Nsg228
Nsg229
Nsssg264
(dp3750
Vtx B-tx A
p3751
(dp3752
g223
Nsg224
Nsg225
Nsg226
Nsg227
Nsg228
Nsg229
NssVtx A-tx B
p3753
(dp3754
g223
Nsg224
Nsg225
Nsg226
Nsg227
Nsg228
Nsg229
Nsssg270
(dp3755
g70
(dp3756
g223
Nsg224
Nsg225
Nsg226
Nsg227
Nsg228
Nsg229
Nssg72
(dp3757
g223
Nsg224
Nsg225
Nsg226
Nsg227
Nsg228
Nsg229
Nsssg274
(dp3758
g70
(dp3759
g223
Nsg224
Nsg225
Nsg226
Nsg227
Nsg228
Nsg229
Nssg72
(dp3760
g223
Nsg224
Nsg225
Nsg226
Nsg227
Nsg228
Nsg229
Nsssg278
(dp3761
g70
(dp3762
g223
Nsg224
Nsg225
Nsg226
Nsg227
Nsg228
Nsg229
Nssg72
(dp3763
g223
Nsg224
Nsg225
Nsg226
Nsg227
Nsg228
Nsg229
Nsssg282
(dp3764
Vtx B-tx A
p3765
(dp3766
g223
Nsg224
Nsg225
Nsg226
Nsg227
Nsg228
Nsg229
NssVtx A-tx B
p3767
(dp3768
g223
Nsg224
Nsg225
Nsg226
Nsg227
Nsg228
Nsg229
Nssssg126
(dp3769
g70
(ima_dataset
TreatmentGroup
p3770
(dp3771
g130
(lp3772
g26
ag26
asg132
I0
sg36
g133
sbsg72
(ima_dataset
TreatmentGroup
p3773
(dp3774
g130
(lp3775
g26
ag26
asg132
I1
sg36
g137
sbssg138
g42
sg29
I00
sg139
I2
sbsssg297
I00
sg298
Nsg299
Nsg132
I19
sbasS'covariates'
p3776
(lp3777
sb.