(dp0
S'NAME'
p1
I1
sS'current_outcome'
p2
VLAG positive
p3
sS'current_time_point'
p4
I0
sS'RAW_DATA'
p5
(lp6
I3
aI4
aI5
aI6
asS'OUTCOMES'
p7
(lp8
I7
aI8
aI9
aI10
aI11
aI12
asS'study_auto_added'
p9
I00
sS'HEADERS'
p10
(lp11
S'include'
p12
aS'study name'
p13
aS'year'
p14
asS'YEAR'
p15
I2
sS'current_txs'
p16
(lp17
S'test 1'
p18
asS'current_effect'
p19
Ns.