(ima_dataset
Dataset
p0
(dp1
S'num_outcomes'
p2
I0
sS'title'
p3
VLymph
p4
sS'outcome_names_to_follow_ups'
p5
(dp6
VLAG positive
p7
ccopy_reg
_reconstructor
p8
(ctwo_way_dict
TwoWayDict
p9
c__builtin__
dict
p10
(dp11
I0
S'first'
p12
stp13
Rp14
(dp15
S'_reverse_map'
p16
(dp17
g12
I0
ssbssS'notes'
p18
S''
p19
sS'num_follow_ups'
p20
I0
sS'num_treatments'
p21
I0
sS'is_diag'
p22
I01
sS'study_auto_added'
p23
I17
sS'summary'
p24
NsS'studies'
p25
(lp26
(ima_dataset
Study
p27
(dp28
S'include'
p29
I01
sS'name'
p30
VKinderman
p31
sS'covariate_dict'
p32
(dp33
sg18
g19
sS'outcomes'
p34
(lp35
(ima_dataset
Outcome
p36
(dp37
S'links'
p38
Nsg30
g7
sS'data_type'
p39
I2
sbasS'outcomes_to_follow_ups'
p40
(dp41
g7
(dp42
N(ima_dataset
MetaAnalyticUnit
p43
(dp44
S'effects_dict'
p45
(dp46
S'DOR'
p47
(dp48
S'test 1'
p49
(dp50
S'upper'
p51
NsS'lower'
p52
NsS'est'
p53
NsS'display_upper'
p54
NsS'display_est'
p55
NsS'display_lower'
p56
NsS'SE'
p57
NsssS'Sens'
p58
(dp59
g49
(dp60
g51
Nsg52
Nsg53
Nsg54
Nsg55
Nsg56
Nsg57
NsssS'NLR'
p61
(dp62
g49
(dp63
g51
Nsg52
Nsg53
Nsg54
Nsg55
Nsg56
Nsg57
NsssS'Spec'
p64
(dp65
g49
(dp66
g51
Nsg52
Nsg53
Nsg54
Nsg55
Nsg56
Nsg57
NsssS'PLR'
p67
(dp68
g49
(dp69
g51
Nsg52
Nsg53
Nsg54
Nsg55
Nsg56
Nsg57
NssssS'tx_groups'
p70
(dp71
g49
(ima_dataset
TreatmentGroup
p72
(dp73
S'raw_data'
p74
(lp75
g19
ag19
ag19
ag19
asS'id'
p76
I0
sg30
g49
sbssS'outcome'
p77
g36
sg22
I01
sS'raw_data_length'
p78
I4
sbsg12
(ima_dataset
MetaAnalyticUnit
p79
(dp80
g45
(dp81
S'DOR'
p82
(dp83
S'test 1'
p84
(dp85
S'upper'
p86
F7.151772767287969
sS'lower'
p87
F2.9208333144016976
sS'est'
p88
F5.0363030408448335
sS'display_upper'
p89
F1276.3666517872255
sS'display_est'
p90
F153.89999999925612
sS'display_lower'
p91
F18.55674462102468
sS'SE'
p92
F1.0793411221480045
sssS'Sens'
p93
(dp94
g84
(dp95
g86
F1.4075744130383265
sg87
F-0.12386664069353703
sg88
F0.6418538861723947
sg89
F0.8033830829872486
sg90
F0.6551724137930143
sg91
F0.46907287248568974
sg92
F0.3906809170504345
sssS'NLR'
p96
(dp97
g84
(dp98
g86
F0.913349198851783
sg87
F-3.0182304876530113
sg88
F-1.052440644400614
sg89
F2.492656972618075
sg90
F0.34908471690102316
sg91
F0.04888764916823662
sg92
F1.0029724315131792
sssS'Spec'
p99
(dp100
g84
(dp101
g86
F6.366474569882282
sg87
F2.4224237394625945
sg88
F4.394449154672438
sg89
F0.998284741192229
sg90
F0.9878048780487511
sg91
F0.918521321066374
sg92
F1.0061539042374905
sssS'PLR'
p102
(dp103
g84
(dp104
g86
F5.949652239696617
sg87
F2.018072553191822
sg88
F3.9838623964442195
sg89
F383.61990808713637
sg90
F53.7241379308078
sg91
F7.523809206955249
sg92
F1.0029724315131794
ssssg70
(dp105
g84
(ima_dataset
TreatmentGroup
p106
(dp107
g74
(lp108
F19.0
aF10.0
aF1.0
aF81.0
asg76
I0
sg30
g84
sbssg77
g36
sg22
I01
sg78
I4
sbsssS'manually_excluded'
p109
I00
sS'year'
p110
I1970
sS'N'
p111
Nsg76
I0
sba(ima_dataset
Study
p112
(dp113
g29
I01
sg30
VLecart Lenfant
p114
sg32
(dp115
sg18
g19
sg34
(lp116
g36
asg40
(dp117
g7
(dp118
N(ima_dataset
MetaAnalyticUnit
p119
(dp120
g45
(dp121
g47
(dp122
g49
(dp123
g51
Nsg52
Nsg53
Nsg54
Nsg55
Nsg56
Nsg57
Nsssg58
(dp124
g49
(dp125
g51
Nsg52
Nsg53
Nsg54
Nsg55
Nsg56
Nsg57
Nsssg61
(dp126
g49
(dp127
g51
Nsg52
Nsg53
Nsg54
Nsg55
Nsg56
Nsg57
Nsssg64
(dp128
g49
(dp129
g51
Nsg52
Nsg53
Nsg54
Nsg55
Nsg56
Nsg57
Nsssg67
(dp130
g49
(dp131
g51
Nsg52
Nsg53
Nsg54
Nsg55
Nsg56
Nsg57
Nssssg70
(dp132
g49
(ima_dataset
TreatmentGroup
p133
(dp134
g74
(lp135
g19
ag19
ag19
ag19
asg76
I0
sg30
g49
sbssg77
g36
sg22
I01
sg78
I4
sbsg12
(ima_dataset
MetaAnalyticUnit
p136
(dp137
g45
(dp138
g82
(dp139
g84
(dp140
g86
F3.521287472073839
sg87
F-0.013249189583423249
sg88
F1.754019141245208
sg89
F33.82795298418769
sg90
F5.777777777805465
sg91
F0.9868381945800717
sg92
F0.901684084385539
sssg93
(dp141
g84
(dp142
g86
F2.9357819418812943
sg87
F-0.1631932196415129
sg88
F1.3862943611198908
sg89
F0.9495871851178453
sg90
F0.8000000000000175
sg91
F0.45929199972718215
sg92
F0.7905694150420947
sssg96
(dp143
g84
(dp144
g86
F-0.4932147768043399
sg87
F-1.6734748562703023
sg88
F-1.0833448165373212
sg89
F0.610660099355813
sg90
F0.3384615384606318
sg91
F0.18759406933361253
sg92
F0.3010922876072478
sssg99
(dp145
g84
(dp146
g86
F1.217622179942489
sg87
F-0.482172619691854
sg88
F0.3677247801253175
sg89
F0.7716448265819318
sg90
F0.5909090909090141
sg91
F0.38173922414100353
sg92
F0.4336290903919938
sssg102
(dp147
g84
(dp148
g86
F1.260804364440868
sg87
F0.0805442849749054
sg88
F0.6706743247078867
sg89
F3.528258351829324
sg90
F1.955555555555777
sg91
F1.0838768450383163
sg92
F0.3010922876072478
ssssg70
(dp149
g84
(ima_dataset
TreatmentGroup
p150
(dp151
g74
(lp152
F8.0
aF2.0
aF9.0
aF13.0
asg76
I0
sg30
g84
sbssg77
g36
sg22
I01
sg78
I4
sbsssg109
I00
sg110
I1971
sg111
Nsg76
I1
sba(ima_dataset
Study
p153
(dp154
g29
I01
sg30
VPiver
p155
sg32
(dp156
sg18
g19
sg34
(lp157
g36
asg40
(dp158
g7
(dp159
N(ima_dataset
MetaAnalyticUnit
p160
(dp161
g45
(dp162
g47
(dp163
g49
(dp164
g51
Nsg52
Nsg53
Nsg54
Nsg55
Nsg56
Nsg57
Nsssg58
(dp165
g49
(dp166
g51
Nsg52
Nsg53
Nsg54
Nsg55
Nsg56
Nsg57
Nsssg61
(dp167
g49
(dp168
g51
Nsg52
Nsg53
Nsg54
Nsg55
Nsg56
Nsg57
Nsssg64
(dp169
g49
(dp170
g51
Nsg52
Nsg53
Nsg54
Nsg55
Nsg56
Nsg57
Nsssg67
(dp171
g49
(dp172
g51
Nsg52
Nsg53
Nsg54
Nsg55
Nsg56
Nsg57
Nssssg70
(dp173
g49
(ima_dataset
TreatmentGroup
p174
(dp175
g74
(lp176
g19
ag19
ag19
ag19
asg76
I0
sg30
g49
sbssg77
g36
sg22
I01
sg78
I4
sbsg12
(ima_dataset
MetaAnalyticUnit
p177
(dp178
g45
(dp179
g82
(dp180
g84
(dp181
g86
F7.2022329680461095
sg87
F3.0387384620077587
sg88
F5.120485715026934
sg89
F1342.4250122822846
sg90
F167.41666666717995
sg91
F20.878887104686818
sg92
F1.062135462406316
sssg93
(dp182
g84
(dp183
g86
F1.8719504905571336
sg87
F0.5853803432754822
sg88
F1.2286654169163078
sg89
F0.8666838042018613
sg90
F0.7735849056610241
sg91
F0.6423044813386231
sg92
F0.3282127012103163
sssg96
(dp184
g84
(dp185
g86
F0.48054183481509716
sg87
F-3.4109069477083014
sg88
F-1.4651825564466021
sg89
F1.6169502848380586
sg90
F0.23103581054985028
sg91
F0.03301124731985133
sg92
F0.9927347678882497
sssg99
(dp186
g84
(dp187
g86
F5.871682904324451
sg87
F1.9119576918968004
sg88
F3.8918202981106256
sg89
F0.9971897928164368
sg90
F0.9799999999999878
sg91
F0.8712389246398023
sg92
F1.0101525445522108
sssg102
(dp188
g84
(dp189
g86
F5.601027549842032
sg87
F1.7095787673186327
sg88
F3.655303158580332
sg89
F270.70442685278147
sg90
F38.67924528300603
sg91
F5.526632988815389
sg92
F0.9927347678882499
ssssg70
(dp190
g84
(ima_dataset
TreatmentGroup
p191
(dp192
g74
(lp193
F41.0
aF12.0
aF1.0
aF49.0
asg76
I0
sg30
g84
sbssg77
g36
sg22
I01
sg78
I4
sbsssg109
I00
sg110
I1971
sg111
Nsg76
I2
sba(ima_dataset
Study
p194
(dp195
g29
I01
sg30
VPiver Barlow
p196
sg32
(dp197
sg18
g19
sg34
(lp198
g36
asg40
(dp199
g7
(dp200
N(ima_dataset
MetaAnalyticUnit
p201
(dp202
g45
(dp203
g47
(dp204
g49
(dp205
g51
Nsg52
Nsg53
Nsg54
Nsg55
Nsg56
Nsg57
Nsssg58
(dp206
g49
(dp207
g51
Nsg52
Nsg53
Nsg54
Nsg55
Nsg56
Nsg57
Nsssg61
(dp208
g49
(dp209
g51
Nsg52
Nsg53
Nsg54
Nsg55
Nsg56
Nsg57
Nsssg64
(dp210
g49
(dp211
g51
Nsg52
Nsg53
Nsg54
Nsg55
Nsg56
Nsg57
Nsssg67
(dp212
g49
(dp213
g51
Nsg52
Nsg53
Nsg54
Nsg55
Nsg56
Nsg57
Nssssg70
(dp214
g49
(ima_dataset
TreatmentGroup
p215
(dp216
g74
(lp217
g19
ag19
ag19
ag19
asg76
I0
sg30
g49
sbssg77
g36
sg22
I01
sg78
I4
sbsg12
(ima_dataset
MetaAnalyticUnit
p218
(dp219
g45
(dp220
g82
(dp221
g84
(dp222
g86
F6.403563407038336
sg87
F1.2097615725023037
sg88
F3.8066624897703196
sg89
F603.9934823346975
sg90
F44.999999999985604
sg91
F3.352685184898352
sg92
F1.3249737942901194
sssg93
(dp223
g84
(dp224
g86
F2.556114251185269
sg87
F-0.7235327874369586
sg88
F0.9162907318741551
sg89
F0.9279832031508749
sg90
F0.7142857142856827
sg91
F0.32661551394994703
sg92
F0.8366600265340756
sssg96
(dp225
g84
(dp226
g86
F0.7656842338658343
sg87
F-3.163075728316019
sg88
F-1.1986957472250923
sg89
F2.1504652925527354
sg90
F0.3015873015858215
sg91
F0.04229545149756585
sg92
F1.002253100865988
sssg99
(dp227
g84
(dp228
g86
F4.90404332983176
sg87
F0.8767001859605674
sg88
F2.8903717578961636
sg89
F0.9926380651785011
sg90
F0.9473684210528228
sg91
F0.7061379521765759
sg92
F1.0274023338281626
sssg102
(dp229
g84
(dp230
g86
F4.572346723636154
sg87
F0.6435867614543007
sg88
F2.6079667425452273
sg89
F96.77093816522923
sg90
F13.57142857149334
sg91
F1.9032953173974676
sg92
F1.0022531008659883
ssssg70
(dp231
g84
(ima_dataset
TreatmentGroup
p232
(dp233
g74
(lp234
F5.0
aF2.0
aF1.0
aF18.0
asg76
I0
sg30
g84
sbssg77
g36
sg22
I01
sg78
I4
sbsssg109
I00
sg110
I1973
sg111
Nsg76
I3
sba(ima_dataset
Study
p235
(dp236
g29
I01
sg30
VKolbenstvedt
p237
sg32
(dp238
sg18
g19
sg34
(lp239
g36
asg40
(dp240
g7
(dp241
N(ima_dataset
MetaAnalyticUnit
p242
(dp243
g45
(dp244
g47
(dp245
g49
(dp246
g51
Nsg52
Nsg53
Nsg54
Nsg55
Nsg56
Nsg57
Nsssg58
(dp247
g49
(dp248
g51
Nsg52
Nsg53
Nsg54
Nsg55
Nsg56
Nsg57
Nsssg61
(dp249
g49
(dp250
g51
Nsg52
Nsg53
Nsg54
Nsg55
Nsg56
Nsg57
Nsssg64
(dp251
g49
(dp252
g51
Nsg52
Nsg53
Nsg54
Nsg55
Nsg56
Nsg57
Nsssg67
(dp253
g49
(dp254
g51
Nsg52
Nsg53
Nsg54
Nsg55
Nsg56
Nsg57
Nssssg70
(dp255
g49
(ima_dataset
TreatmentGroup
p256
(dp257
g74
(lp258
g19
ag19
ag19
ag19
asg76
I0
sg30
g49
sbssg77
g36
sg22
I01
sg78
I4
sbsg12
(ima_dataset
MetaAnalyticUnit
p259
(dp260
g45
(dp261
g82
(dp262
g84
(dp263
g86
F1.9294989877735114
sg87
F0.8433591128759976
sg88
F1.3864290503247545
sg89
F6.886059377226357
sg90
F4.000538793084428
sg91
F2.32416099808826
sg92
F0.2770815901375859
sssg93
(dp264
g84
(dp265
g86
F0.7941498649668495
sg87
F-0.11229669102566336
sg88
F0.340926586970593
sg89
F0.6887216917705774
sg90
F0.5844155844156832
sg91
F0.47195529264239927
sg92
F0.23124061542519347
sssg96
(dp266
g84
(dp267
g86
F-0.2861845696850004
sg87
F-0.8675018733038381
sg88
F-0.5768432214944192
sg89
F0.7511239684379656
sg90
F0.5616686343961426
sg91
F0.41999945164866165
sg92
F0.14829795552474292
sssg99
(dp268
g84
(dp269
g86
F1.3446907272331523
sg87
F0.7463141994751705
sg88
F1.0455024633541614
sg89
F0.7932602715192303
sg90
F0.7399103139005445
sg91
F0.6783750518604914
sg92
F0.15264987838498553
sssg102
(dp270
g84
(dp271
g86
F1.1002444806397542
sg87
F0.5189271770209166
sg88
F0.8095858288303355
sg89
F3.004900574166629
sg90
F2.246977160769511
sg91
F1.6802240994030595
sg92
F0.14829795552474287
ssssg70
(dp272
g84
(ima_dataset
TreatmentGroup
p273
(dp274
g74
(lp275
F45.0
aF32.0
aF58.0
aF165.0
asg76
I0
sg30
g84
sbssg77
g36
sg22
I01
sg78
I4
sbsssg109
I00
sg110
I1975
sg111
Nsg76
I4
sba(ima_dataset
Study
p276
(dp277
g29
I01
sg30
VLehman
p278
sg32
(dp279
sg18
g19
sg34
(lp280
g36
asg40
(dp281
g7
(dp282
N(ima_dataset
MetaAnalyticUnit
p283
(dp284
g45
(dp285
g47
(dp286
g49
(dp287
g51
Nsg52
Nsg53
Nsg54
Nsg55
Nsg56
Nsg57
Nsssg58
(dp288
g49
(dp289
g51
Nsg52
Nsg53
Nsg54
Nsg55
Nsg56
Nsg57
Nsssg61
(dp290
g49
(dp291
g51
Nsg52
Nsg53
Nsg54
Nsg55
Nsg56
Nsg57
Nsssg64
(dp292
g49
(dp293
g51
Nsg52
Nsg53
Nsg54
Nsg55
Nsg56
Nsg57
Nsssg67
(dp294
g49
(dp295
g51
Nsg52
Nsg53
Nsg54
Nsg55
Nsg56
Nsg57
Nssssg70
(dp296
g49
(ima_dataset
TreatmentGroup
p297
(dp298
g74
(lp299
g19
ag19
ag19
ag19
asg76
I0
sg30
g49
sbssg77
g36
sg22
I01
sg78
I4
sbsg12
(ima_dataset
MetaAnalyticUnit
p300
(dp301
g45
(dp302
g82
(dp303
g84
(dp304
g86
F4.838247309683498
sg87
F1.2822942796996253
sg88
F3.060270794691562
sg89
F126.24788426020032
sg90
F21.333333333300008
sg91
F3.6049008961741706
sg92
F0.9071475440448848
sssg93
(dp305
g84
(dp306
g86
F2.9357819418812943
sg87
F-0.1631932196415129
sg88
F1.3862943611198908
sg89
F0.9495871851178453
sg90
F0.8000000000000175
sg91
F0.45929199972718215
sg92
F0.7905694150420947
sssg96
(dp307
g84
(dp308
g86
F-0.6406004625723896
sg87
F-2.2345748484424925
sg88
F-1.4375876555074412
sg89
F0.5269758997179271
sg90
F0.23749999999939228
sg91
F0.10703762739501939
sg92
F0.40663359083206885
sssg99
(dp309
g84
(dp310
g86
F2.5459218016590563
sg87
F0.8020310654842862
sg88
F1.6739764335716711
sg89
F0.9272990594508728
sg90
F0.8421052631576725
sg91
F0.690408778005894
sg92
F0.4448782605013047
sssg102
(dp311
g84
(dp312
g86
F2.4196703321191726
sg87
F0.8256959462490694
sg88
F1.622683139184121
sg89
F11.2421525273207
sg90
F5.066666666645787
sg91
F2.2834693844212293
sg92
F0.40663359083206885
ssssg70
(dp313
g84
(ima_dataset
TreatmentGroup
p314
(dp315
g74
(lp316
F8.0
aF2.0
aF6.0
aF32.0
asg76
I0
sg30
g84
sbssg77
g36
sg22
I01
sg78
I4
sbsssg109
I00
sg110
I1975
sg111
Nsg76
I5
sba(ima_dataset
Study
p317
(dp318
g29
I01
sg30
VBrown
p319
sg32
(dp320
sg18
g19
sg34
(lp321
g36
asg40
(dp322
g7
(dp323
N(ima_dataset
MetaAnalyticUnit
p324
(dp325
g45
(dp326
g47
(dp327
g49
(dp328
g51
Nsg52
Nsg53
Nsg54
Nsg55
Nsg56
Nsg57
Nsssg58
(dp329
g49
(dp330
g51
Nsg52
Nsg53
Nsg54
Nsg55
Nsg56
Nsg57
Nsssg61
(dp331
g49
(dp332
g51
Nsg52
Nsg53
Nsg54
Nsg55
Nsg56
Nsg57
Nsssg64
(dp333
g49
(dp334
g51
Nsg52
Nsg53
Nsg54
Nsg55
Nsg56
Nsg57
Nsssg67
(dp335
g49
(dp336
g51
Nsg52
Nsg53
Nsg54
Nsg55
Nsg56
Nsg57
Nssssg70
(dp337
g49
(ima_dataset
TreatmentGroup
p338
(dp339
g74
(lp340
g19
ag19
ag19
ag19
asg76
I0
sg30
g49
sbssg77
g36
sg22
I01
sg78
I4
sbsg12
(ima_dataset
MetaAnalyticUnit
p341
(dp342
g45
(dp343
g82
(dp344
g84
(dp345
g86
F3.850503910726077
sg87
F-0.8986908711069215
sg88
F1.4759065198095778
sg89
F47.016749507760395
sg90
F4.375000000001847
sg91
F0.4071022603745568
sg92
F1.2115515436237712
sssg93
(dp346
g84
(dp347
g86
F3.7564708848946884
sg87
F-0.5375950600264872
sg88
F1.6094379124341007
sg89
F0.9771674501106418
sg90
F0.8333333333327638
sg91
F0.368747209728138
sg92
F1.095445115010332
sssg96
(dp348
g84
(dp349
g86
F-0.4362108520000557
sg87
F-1.6230279823622604
sg88
F-1.0296194171811581
sg89
F0.6464813996675289
sg90
F0.3571428571432708
sg91
F0.19730037163336084
sg92
F0.30276503540974914
sssg99
(dp350
g84
(dp351
g86
F0.8808463398373535
sg87
F-1.1479091250863989
sg88
F-0.13353139262452263
sg89
F0.706997572797041
sg90
F0.4666666666665479
sg91
F0.24087119709002805
sg92
F0.5175491695067657
sssg102
(dp352
g84
(dp353
g86
F1.039695667809522
sg87
F-0.14712146255268288
sg88
F0.44628710262841953
sg89
F2.8283561235466332
sg90
F1.5624999999993445
sg91
F0.8631891258937286
sg92
F0.30276503540974914
ssssg70
(dp354
g84
(ima_dataset
TreatmentGroup
p355
(dp356
g74
(lp357
F5.0
aF1.0
aF8.0
aF7.0
asg76
I0
sg30
g84
sbssg77
g36
sg22
I01
sg78
I4
sbsssg109
I00
sg110
I1979
sg111
Nsg76
I6
sba(ima_dataset
Study
p358
(dp359
g29
I01
sg30
VLagasse
p360
sg32
(dp361
sg18
g19
sg34
(lp362
g36
asg40
(dp363
g7
(dp364
N(ima_dataset
MetaAnalyticUnit
p365
(dp366
g45
(dp367
g47
(dp368
g49
(dp369
g51
Nsg52
Nsg53
Nsg54
Nsg55
Nsg56
Nsg57
Nsssg58
(dp370
g49
(dp371
g51
Nsg52
Nsg53
Nsg54
Nsg55
Nsg56
Nsg57
Nsssg61
(dp372
g49
(dp373
g51
Nsg52
Nsg53
Nsg54
Nsg55
Nsg56
Nsg57
Nsssg64
(dp374
g49
(dp375
g51
Nsg52
Nsg53
Nsg54
Nsg55
Nsg56
Nsg57
Nsssg67
(dp376
g49
(dp377
g51
Nsg52
Nsg53
Nsg54
Nsg55
Nsg56
Nsg57
Nssssg70
(dp378
g49
(ima_dataset
TreatmentGroup
p379
(dp380
g74
(lp381
g19
ag19
ag19
ag19
asg76
I0
sg30
g49
sbssg77
g36
sg22
I01
sg78
I4
sbsg12
(ima_dataset
MetaAnalyticUnit
p382
(dp383
g45
(dp384
g82
(dp385
g84
(dp386
g86
F2.3795859323644786
sg87
F0.47678467329362306
sg88
F1.4281853028290508
sg89
F10.800429829435288
sg90
F4.171122994656366
sg91
F1.6108865398143495
sg92
F0.4854174041155627
sssg93
(dp387
g84
(dp388
g86
F1.0881785679620137
sg87
F-0.46786871135433516
sg88
F0.3101549283038393
sg89
F0.7480385789310624
sg90
F0.5769230769231161
sg91
F0.3851208149393167
sg92
F0.3969581307590985
sssg96
(dp389
g84
(dp390
g86
F-0.049471366939771166
sg87
F-1.105205591474788
sg88
F-0.5773384792072795
sg89
F0.9517324087576803
sg90
F0.5613905325445356
sg91
F0.33114279510912753
sg92
F0.2693249041468399
sssg99
(dp391
g84
(dp392
g86
F1.6656090209436554
sg87
F0.5704517281067674
sg88
F1.1180303745252114
sg89
F0.840989511227303
sg90
F0.7536231884066862
sg91
F0.6388674025169836
sg92
F0.27938199412727716
sssg102
(dp393
g84
(dp394
g86
F1.3787139358892797
sg87
F0.32297971135426295
sg88
F0.8508468236217713
sg89
F3.9697929349280576
sg90
F2.341628959276554
sg91
F1.381237327186176
sg92
F0.2693249041468399
ssssg70
(dp395
g84
(ima_dataset
TreatmentGroup
p396
(dp397
g74
(lp398
F15.0
aF11.0
aF17.0
aF52.0
asg76
I0
sg30
g84
sbssg77
g36
sg22
I01
sg78
I4
sbsssg109
I00
sg110
I1979
sg111
Nsg76
I7
sba(ima_dataset
Study
p399
(dp400
g29
I01
sg30
VKjorstad
p401
sg32
(dp402
sg18
g19
sg34
(lp403
g36
asg40
(dp404
g7
(dp405
N(ima_dataset
MetaAnalyticUnit
p406
(dp407
g45
(dp408
g47
(dp409
g49
(dp410
g51
Nsg52
Nsg53
Nsg54
Nsg55
Nsg56
Nsg57
Nsssg58
(dp411
g49
(dp412
g51
Nsg52
Nsg53
Nsg54
Nsg55
Nsg56
Nsg57
Nsssg61
(dp413
g49
(dp414
g51
Nsg52
Nsg53
Nsg54
Nsg55
Nsg56
Nsg57
Nsssg64
(dp415
g49
(dp416
g51
Nsg52
Nsg53
Nsg54
Nsg55
Nsg56
Nsg57
Nsssg67
(dp417
g49
(dp418
g51
Nsg52
Nsg53
Nsg54
Nsg55
Nsg56
Nsg57
Nssssg70
(dp419
g49
(ima_dataset
TreatmentGroup
p420
(dp421
g74
(lp422
g19
ag19
ag19
ag19
asg76
I0
sg30
g49
sbssg77
g36
sg22
I01
sg78
I4
sbsg12
(ima_dataset
MetaAnalyticUnit
p423
(dp424
g45
(dp425
g82
(dp426
g84
(dp427
g86
F2.5821600307150674
sg87
F0.3644514455039731
sg88
F1.4733057381095203
sg89
F13.225675192837953
sg90
F4.363636363638457
sg91
F1.439724024407872
sg92
F0.5657523818560181
sssg93
(dp428
g84
(dp429
g86
F1.5418364811170737
sg87
F-0.15554211999718337
sg88
F0.6931471805599452
sg89
F0.8237315369599193
sg90
F0.6666666666666788
sg91
F0.46119267840051376
sg92
F0.43301270189221924
sssg96
(dp430
g84
(dp431
g86
F-0.15607655609007953
sg87
F-1.2865595589632037
sg88
F-0.7213180575266417
sg89
F0.8554936946117218
sg90
F0.4861111111109369
sg91
F0.276219466998766
sg92
F0.28839382044523015
sssg99
(dp432
g84
(dp433
g86
F1.4938001436063293
sg87
F0.06651697149282099
sg88
F0.7801585575495752
sg89
F0.8166479683612735
sg90
F0.6857142857143773
sg91
F0.5166231142339939
sg92
F0.36410954062720946
sssg102
(dp434
g84
(dp435
g86
F1.3172291820194408
sg87
F0.18674617914631653
sg88
F0.7519876805828787
sg89
F3.733063394671121
sg90
F2.1212121212123787
sg91
F1.2053213105358267
sg92
F0.28839382044523015
ssssg70
(dp436
g84
(ima_dataset
TreatmentGroup
p437
(dp438
g74
(lp439
F16.0
aF8.0
aF11.0
aF24.0
asg76
I0
sg30
g84
sbssg77
g36
sg22
I01
sg78
I4
sbsssg109
I00
sg110
I1980
sg111
Nsg76
I8
sba(ima_dataset
Study
p440
(dp441
g29
I01
sg30
VAshraf
p442
sg32
(dp443
sg18
g19
sg34
(lp444
g36
asg40
(dp445
g7
(dp446
N(ima_dataset
MetaAnalyticUnit
p447
(dp448
g45
(dp449
g47
(dp450
g49
(dp451
g51
Nsg52
Nsg53
Nsg54
Nsg55
Nsg56
Nsg57
Nsssg58
(dp452
g49
(dp453
g51
Nsg52
Nsg53
Nsg54
Nsg55
Nsg56
Nsg57
Nsssg61
(dp454
g49
(dp455
g51
Nsg52
Nsg53
Nsg54
Nsg55
Nsg56
Nsg57
Nsssg64
(dp456
g49
(dp457
g51
Nsg52
Nsg53
Nsg54
Nsg55
Nsg56
Nsg57
Nsssg67
(dp458
g49
(dp459
g51
Nsg52
Nsg53
Nsg54
Nsg55
Nsg56
Nsg57
Nssssg70
(dp460
g49
(ima_dataset
TreatmentGroup
p461
(dp462
g74
(lp463
g19
ag19
ag19
ag19
asg76
I0
sg30
g49
sbssg77
g36
sg22
I01
sg78
I4
sbsg12
(ima_dataset
MetaAnalyticUnit
p464
(dp465
g45
(dp466
g82
(dp467
g84
(dp468
g86
F3.7073974069638362
sg87
F-0.042234479467216035
sg88
F1.8325814637483102
sg89
F40.7476189359467
sg90
F6.250000000010561
sg91
F0.9586449716547893
sg92
F0.9565563234854494
sssg93
(dp469
g84
(dp470
g86
F2.390525781674202
sg87
F-1.004231420554312
sg88
F0.6931471805599452
sg89
F0.9161019880691735
sg90
F0.6666666666666788
sg91
F0.268110287440062
sg92
F0.8660254037844384
sssg96
(dp471
g84
(dp472
g86
F0.005999543172253152
sg87
F-1.6479606473119137
sg88
F-0.8209805520698302
sg89
F1.006017576477214
sg90
F0.4399999999999253
sg91
F0.19244196575401967
sg92
F0.421936373201343
sssg99
(dp473
g84
(dp474
g86
F1.9355754172937005
sg87
F0.343293149083029
sg88
F1.1394342831883648
sg89
F0.8738652510658523
sg90
F0.7575757575760579
sg91
F0.5849902457726085
sg92
F0.4062019202317979
sssg102
(dp475
g84
(dp476
g86
F1.8385810069205633
sg87
F0.1846208164363965
sg88
F1.0116009116784799
sg89
F6.287609852979065
sg90
F2.75000000000418
sg91
F1.2027622859598444
sg92
F0.421936373201343
ssssg70
(dp477
g84
(ima_dataset
TreatmentGroup
p478
(dp479
g74
(lp480
F4.0
aF2.0
aF8.0
aF25.0
asg76
I0
sg30
g84
sbssg77
g36
sg22
I01
sg78
I4
sbsssg109
I00
sg110
I1982
sg111
Nsg76
I9
sba(ima_dataset
Study
p481
(dp482
g29
I01
sg30
VDe Muylder
p483
sg32
(dp484
sg18
g19
sg34
(lp485
g36
asg40
(dp486
g7
(dp487
N(ima_dataset
MetaAnalyticUnit
p488
(dp489
g45
(dp490
g47
(dp491
g49
(dp492
g51
Nsg52
Nsg53
Nsg54
Nsg55
Nsg56
Nsg57
Nsssg58
(dp493
g49
(dp494
g51
Nsg52
Nsg53
Nsg54
Nsg55
Nsg56
Nsg57
Nsssg61
(dp495
g49
(dp496
g51
Nsg52
Nsg53
Nsg54
Nsg55
Nsg56
Nsg57
Nsssg64
(dp497
g49
(dp498
g51
Nsg52
Nsg53
Nsg54
Nsg55
Nsg56
Nsg57
Nsssg67
(dp499
g49
(dp500
g51
Nsg52
Nsg53
Nsg54
Nsg55
Nsg56
Nsg57
Nssssg70
(dp501
g49
(ima_dataset
TreatmentGroup
p502
(dp503
g74
(lp504
g19
ag19
ag19
ag19
asg76
I0
sg30
g49
sbssg77
g36
sg22
I01
sg78
I4
sbsg12
(ima_dataset
MetaAnalyticUnit
p505
(dp506
g45
(dp507
g82
(dp508
g84
(dp509
g86
F2.653696039689179
sg87
F0.4271940422051188
sg88
F1.540445040947149
sg89
F14.206449330304826
sg90
F4.666666666679971
sg91
F1.5329500898818733
sg92
F0.5679956404929948
sssg93
(dp510
g84
(dp511
g86
F0.7065489971426323
sg87
F-1.152836099771052
sg88
F-0.22314355131420985
sg89
F0.6696381664050252
sg90
F0.44444444444449627
sg91
F0.2399714391775788
sg92
F0.47434164902525683
sssg96
(dp512
g84
(dp513
g86
F0.30531316877737935
sg87
F-1.164438488151829
sg88
F-0.42956265968722485
sg89
F1.3570499221314918
sg90
F0.6507936507937971
sg91
F0.31209785948678165
sg92
F0.3749435368512948
sssg99
(dp514
g84
(dp515
g86
F2.3759606617942124
sg87
F1.1512165227285047
sg88
F1.7635885922613586
sg89
F0.9149757196223406
sg90
F0.8536585365851961
sg91
F0.7597330496391136
sg92
F0.312440470520462
sssg102
(dp516
g84
(dp517
g86
F1.8457582097245282
sg87
F0.3760065527953198
sg88
F1.110882381259924
sg89
F6.332899636587354
sg90
F3.0370370370372677
sg91
F1.4564566776018513
sg92
F0.3749435368512948
ssssg70
(dp518
g84
(ima_dataset
TreatmentGroup
p519
(dp520
g74
(lp521
F8.0
aF10.0
aF12.0
aF70.0
asg76
I0
sg30
g84
sbssg77
g36
sg22
I01
sg78
I4
sbsssg109
I00
sg110
I1984
sg111
Nsg76
I10
sba(ima_dataset
Study
p522
(dp523
g29
I01
sg30
VSmales
p524
sg32
(dp525
sg18
g19
sg34
(lp526
g36
asg40
(dp527
g7
(dp528
N(ima_dataset
MetaAnalyticUnit
p529
(dp530
g45
(dp531
g47
(dp532
g49
(dp533
g51
Nsg52
Nsg53
Nsg54
Nsg55
Nsg56
Nsg57
Nsssg58
(dp534
g49
(dp535
g51
Nsg52
Nsg53
Nsg54
Nsg55
Nsg56
Nsg57
Nsssg61
(dp536
g49
(dp537
g51
Nsg52
Nsg53
Nsg54
Nsg55
Nsg56
Nsg57
Nsssg64
(dp538
g49
(dp539
g51
Nsg52
Nsg53
Nsg54
Nsg55
Nsg56
Nsg57
Nsssg67
(dp540
g49
(dp541
g51
Nsg52
Nsg53
Nsg54
Nsg55
Nsg56
Nsg57
Nssssg70
(dp542
g49
(ima_dataset
TreatmentGroup
p543
(dp544
g74
(lp545
g19
ag19
ag19
ag19
asg76
I0
sg30
g49
sbssg77
g36
sg22
I01
sg78
I4
sbsg12
(ima_dataset
MetaAnalyticUnit
p546
(dp547
g45
(dp548
g82
(dp549
g84
(dp550
g86
F5.078342209486789
sg87
F1.9963169024866818
sg88
F3.5373295559867355
sg89
F160.5077470276097
sg90
F34.37500000011222
sg91
F7.361891540378143
sg92
F0.7862453931068963
sssg93
(dp551
g84
(dp552
g86
F2.0758210623282327
sg87
F-0.24323959857992272
sg88
F0.9162907318741551
sg89
F0.888530806906029
sg90
F0.7142857142856827
sg91
F0.4394881576960952
sg92
F0.5916079783099614
sssg96
(dp553
g84
(dp554
g86
F-0.18005624102621232
sg87
F-2.1850611786180267
sg88
F-1.1825587098221195
sg89
F0.8352232362785722
sg90
F0.3064935064941561
sg91
F0.11247085263225176
sg92
F0.5114902501798599
sssg99
(dp555
g84
(dp556
g86
F3.636031144775319
sg87
F1.6060465034498401
sg88
F2.6210388241125795
sg89
F0.9743200958740948
sg90
F0.9322033898303455
sg91
F0.8328617716735922
sg92
F0.5178627406773132
sssg102
(dp557
g84
(dp558
g86
F3.357273314960523
sg87
F1.3522683773687088
sg88
F2.354770846164616
sg89
F28.71079874705481
sg90
F10.535714285665655
sg91
F3.8661855592462753
sg92
F0.5114902501798599
ssssg70
(dp559
g84
(ima_dataset
TreatmentGroup
p560
(dp561
g74
(lp562
F10.0
aF4.0
aF4.0
aF55.0
asg76
I0
sg30
g84
sbssg77
g36
sg22
I01
sg78
I4
sbsssg109
I00
sg110
I1986
sg111
Nsg76
I11
sba(ima_dataset
Study
p563
(dp564
g29
I01
sg30
VFeigen
p565
sg32
(dp566
sg18
g19
sg34
(lp567
g36
asg40
(dp568
g7
(dp569
N(ima_dataset
MetaAnalyticUnit
p570
(dp571
g45
(dp572
g47
(dp573
g49
(dp574
g51
Nsg52
Nsg53
Nsg54
Nsg55
Nsg56
Nsg57
Nsssg58
(dp575
g49
(dp576
g51
Nsg52
Nsg53
Nsg54
Nsg55
Nsg56
Nsg57
Nsssg61
(dp577
g49
(dp578
g51
Nsg52
Nsg53
Nsg54
Nsg55
Nsg56
Nsg57
Nsssg64
(dp579
g49
(dp580
g51
Nsg52
Nsg53
Nsg54
Nsg55
Nsg56
Nsg57
Nsssg67
(dp581
g49
(dp582
g51
Nsg52
Nsg53
Nsg54
Nsg55
Nsg56
Nsg57
Nssssg70
(dp583
g49
(ima_dataset
TreatmentGroup
p584
(dp585
g74
(lp586
g19
ag19
ag19
ag19
asg76
I0
sg30
g49
sbssg77
g36
sg22
I01
sg78
I4
sbsg12
(ima_dataset
MetaAnalyticUnit
p587
(dp588
g45
(dp589
g82
(dp590
g84
(dp591
g86
F2.2972793712137185
sg87
F-1.442391341559839
sg88
F0.42744401482693967
sg89
F9.94708328697481
sg90
F1.533333333333426
sg91
F0.23636186038380205
sg92
F0.9540151610620409
sssg93
(dp592
g84
(dp593
g86
F0.5016916034503265
sg87
F-2.6989161807865463
sg88
F-1.0986122886681098
sg89
F0.6228567818644525
sg90
F0.24999999999964553
sg91
F0.06303734004958318
sg92
F0.8164965809277259
sssg96
(dp594
g84
(dp595
g86
F1.3483488476512044
sg87
F-1.5302924040626578
sg88
F-0.09097177820572676
sg89
F3.851061588831634
sg90
F0.9130434782608939
sg91
F0.21647236066376122
sg92
F0.7343607521414214
sssg99
(dp596
g84
(dp597
g86
F2.4931714532392024
sg87
F0.5589411537508956
sg88
F1.526056303495049
sg89
F0.9236617248516142
sg90
F0.8214285714292976
sg91
F0.6362075083108997
sg92
F0.49343516379516894
sssg102
(dp598
g84
(dp599
g86
F1.775792862478144
sg87
F-1.1028483892357182
sg88
F0.3364722366212129
sg89
F5.9049611028932425
sg90
F1.399999999999702
sg91
F0.331924286348797
sg92
F0.7343607521414214
ssssg70
(dp600
g84
(ima_dataset
TreatmentGroup
p601
(dp602
g74
(lp603
F2.0
aF6.0
aF5.0
aF23.0
asg76
I0
sg30
g84
sbssg77
g36
sg22
I01
sg78
I4
sbsssg109
I00
sg110
I1987
sg111
Nsg76
I12
sba(ima_dataset
Study
p604
(dp605
g29
I01
sg30
VSwart
p606
sg32
(dp607
sg18
g19
sg34
(lp608
g36
asg40
(dp609
g7
(dp610
N(ima_dataset
MetaAnalyticUnit
p611
(dp612
g45
(dp613
g47
(dp614
g49
(dp615
g51
Nsg52
Nsg53
Nsg54
Nsg55
Nsg56
Nsg57
Nsssg58
(dp616
g49
(dp617
g51
Nsg52
Nsg53
Nsg54
Nsg55
Nsg56
Nsg57
Nsssg61
(dp618
g49
(dp619
g51
Nsg52
Nsg53
Nsg54
Nsg55
Nsg56
Nsg57
Nsssg64
(dp620
g49
(dp621
g51
Nsg52
Nsg53
Nsg54
Nsg55
Nsg56
Nsg57
Nsssg67
(dp622
g49
(dp623
g51
Nsg52
Nsg53
Nsg54
Nsg55
Nsg56
Nsg57
Nssssg70
(dp624
g49
(ima_dataset
TreatmentGroup
p625
(dp626
g74
(lp627
g19
ag19
ag19
ag19
asg76
I0
sg30
g49
sbssg77
g36
sg22
I01
sg78
I4
sbsg12
(ima_dataset
MetaAnalyticUnit
p628
(dp629
g45
(dp630
g82
(dp631
g84
(dp632
g86
F2.36737316940228
sg87
F-0.17014859206606037
sg88
F1.0986122886681098
sg89
F10.669328921705489
sg90
F3.000000000005671
sg91
F0.8435394640117045
sg92
F0.6473388749701496
sssg93
(dp633
g84
(dp634
g86
F1.047644817223597
sg87
F-1.047644817223597
sg88
F0.0
sg89
F0.7403223830448611
sg90
F0.5
sg91
F0.25967761695513886
sg92
F0.5345224838248488
sssg96
(dp635
g84
(dp636
g86
F0.3445344434356517
sg87
F-1.1554646596519806
sg88
F-0.40546510810816444
sg89
F1.4113327114879173
sg90
F0.6666666666667762
sg91
F0.3149111763851329
sg92
F0.38265986388511064
sssg99
(dp637
g84
(dp638
g86
F1.8142899461549724
sg87
F0.38293463118124715
sg88
F1.0986122886681098
sg89
F0.8598795541818695
sg90
F0.7500000000003544
sg91
F0.5945807048514069
sg92
F0.36514837167011066
sssg102
(dp639
g84
(dp640
g86
F1.4431467321037614
sg87
F-0.05685237098387086
sg88
F0.6931471805599453
sg89
F4.2339981344463515
sg90
F2.0000000000001092
sg91
F0.9447335291535001
sg92
F0.38265986388511064
ssssg70
(dp641
g84
(ima_dataset
TreatmentGroup
p642
(dp643
g74
(lp644
F7.0
aF7.0
aF10.0
aF30.0
asg76
I0
sg30
g84
sbssg77
g36
sg22
I01
sg78
I4
sbsssg109
I00
sg110
I1989
sg111
Nsg76
I13
sba(ima_dataset
Study
p645
(dp646
g29
I01
sg30
VHeller
p647
sg32
(dp648
sg18
g19
sg34
(lp649
g36
asg40
(dp650
g7
(dp651
N(ima_dataset
MetaAnalyticUnit
p652
(dp653
g45
(dp654
g47
(dp655
g49
(dp656
g51
Nsg52
Nsg53
Nsg54
Nsg55
Nsg56
Nsg57
Nsssg58
(dp657
g49
(dp658
g51
Nsg52
Nsg53
Nsg54
Nsg55
Nsg56
Nsg57
Nsssg61
(dp659
g49
(dp660
g51
Nsg52
Nsg53
Nsg54
Nsg55
Nsg56
Nsg57
Nsssg64
(dp661
g49
(dp662
g51
Nsg52
Nsg53
Nsg54
Nsg55
Nsg56
Nsg57
Nsssg67
(dp663
g49
(dp664
g51
Nsg52
Nsg53
Nsg54
Nsg55
Nsg56
Nsg57
Nssssg70
(dp665
g49
(ima_dataset
TreatmentGroup
p666
(dp667
g74
(lp668
g19
ag19
ag19
ag19
asg76
I0
sg30
g49
sbssg77
g36
sg22
I01
sg78
I4
sbsg12
(ima_dataset
MetaAnalyticUnit
p669
(dp670
g45
(dp671
g82
(dp672
g84
(dp673
g86
F3.0085737767597425
sg87
F1.5764957375213462
sg88
F2.2925347571405443
sg89
F20.25848618761181
sg90
F9.899999999994611
sg91
F4.837972546034908
sg92
F0.3653327434928512
sssg93
(dp674
g84
(dp675
g86
F1.9375834233277283
sg87
F0.6609825449327935
sg88
F1.2992829841302609
sg89
F0.8740864169690986
sg90
F0.7857142857142417
sg91
F0.659481068991427
sg92
F0.32566947363946475
sssg96
(dp676
g84
(dp677
g86
F-0.9519175873325112
sg87
F-1.498810401281996
sg88
F-1.2253639943072536
sg89
F0.3860001243631622
sg90
F0.29365079364998714
sg91
F0.22339575344473736
sg92
F0.13951603658620915
sssg99
(dp678
g84
(dp679
g86
F1.3177273914125642
sg87
F0.6687761546080024
sg88
F0.9932517730102833
sg89
F0.7888033551872066
sg90
F0.7297297297296739
sg91
F0.6612290656035488
sg92
F0.1655518269527926
sssg102
(dp680
g84
(dp681
g86
F1.3406171698080331
sg87
F0.7937243558585483
sg88
F1.0671707628332907
sg89
F3.8214012312046903
sg90
F2.9071428571332905
sg91
F2.2116179590994847
sg92
F0.13951603658620915
ssssg70
(dp682
g84
(ima_dataset
TreatmentGroup
p683
(dp684
g74
(lp685
F44.0
aF12.0
aF50.0
aF135.0
asg76
I0
sg30
g84
sbssg77
g36
sg22
I01
sg78
I4
sbsssg109
I00
sg110
I1990
sg111
Nsg76
I14
sba(ima_dataset
Study
p686
(dp687
g29
I01
sg30
VLa Fianza
p688
sg32
(dp689
sg18
g19
sg34
(lp690
g36
asg40
(dp691
g7
(dp692
N(ima_dataset
MetaAnalyticUnit
p693
(dp694
g45
(dp695
g47
(dp696
g49
(dp697
g51
Nsg52
Nsg53
Nsg54
Nsg55
Nsg56
Nsg57
Nsssg58
(dp698
g49
(dp699
g51
Nsg52
Nsg53
Nsg54
Nsg55
Nsg56
Nsg57
Nsssg61
(dp700
g49
(dp701
g51
Nsg52
Nsg53
Nsg54
Nsg55
Nsg56
Nsg57
Nsssg64
(dp702
g49
(dp703
g51
Nsg52
Nsg53
Nsg54
Nsg55
Nsg56
Nsg57
Nsssg67
(dp704
g49
(dp705
g51
Nsg52
Nsg53
Nsg54
Nsg55
Nsg56
Nsg57
Nssssg70
(dp706
g49
(ima_dataset
TreatmentGroup
p707
(dp708
g74
(lp709
g19
ag19
ag19
ag19
asg76
I0
sg30
g49
sbssg77
g36
sg22
I01
sg78
I4
sbsg12
(ima_dataset
MetaAnalyticUnit
p710
(dp711
g45
(dp712
g82
(dp713
g84
(dp714
g86
F6.980460346055747
sg87
F2.203033985256155
sg88
F4.591747165655951
sg89
F1075.4133153458608
sg90
F98.66666666706622
sg91
F9.052436837328043
sg92
F1.2187536093732645
sssg93
(dp715
g84
(dp716
g86
F4.158297278204351
sg87
F0.0005858051553193633
sg88
F2.0794415416798353
sg89
F0.9846065083607938
sg90
F0.888888888888905
sg91
F0.5001464512846416
sg92
F1.060660171779821
sssg96
(dp717
g84
(dp718
g86
F-1.0066969039987355
sg87
F-3.23182916773428
sg88
F-2.1192630358665077
sg89
F0.3654240189107548
sg90
F0.12012012011970061
sg91
F0.03948520762462375
sg92
F0.5676462121975465
sssg99
(dp719
g84
(dp720
g86
F3.688872445255221
sg87
F1.3357388026970094
sg88
F2.5123056239761152
sg89
F0.975609589318803
sg90
F0.9250000000002695
sg91
F0.7917883156885649
sg92
F0.6003002251876641
sssg102
(dp721
g84
(dp722
g86
F3.5850502616572157
sg87
F1.3599179979216711
sg88
F2.4724841297894433
sg89
F36.05516986600715
sg90
F11.851851851858454
sg91
F3.8958738189396938
sg92
F0.5676462121975466
ssssg70
(dp723
g84
(ima_dataset
TreatmentGroup
p724
(dp725
g74
(lp726
F8.0
aF1.0
aF3.0
aF37.0
asg76
I0
sg30
g84
sbssg77
g36
sg22
I01
sg78
I4
sbsssg109
I00
sg110
I1990
sg111
Nsg76
I15
sba(ima_dataset
Study
p727
(dp728
g29
I01
sg30
VStellato
p729
sg32
(dp730
sg18
g19
sg34
(lp731
g36
asg40
(dp732
g7
(dp733
N(ima_dataset
MetaAnalyticUnit
p734
(dp735
g45
(dp736
g47
(dp737
g49
(dp738
g51
Nsg52
Nsg53
Nsg54
Nsg55
Nsg56
Nsg57
Nsssg58
(dp739
g49
(dp740
g51
Nsg52
Nsg53
Nsg54
Nsg55
Nsg56
Nsg57
Nsssg61
(dp741
g49
(dp742
g51
Nsg52
Nsg53
Nsg54
Nsg55
Nsg56
Nsg57
Nsssg64
(dp743
g49
(dp744
g51
Nsg52
Nsg53
Nsg54
Nsg55
Nsg56
Nsg57
Nsssg67
(dp745
g49
(dp746
g51
Nsg52
Nsg53
Nsg54
Nsg55
Nsg56
Nsg57
Nssssg70
(dp747
g49
(ima_dataset
TreatmentGroup
p748
(dp749
g74
(lp750
g19
ag19
ag19
ag19
asg76
I0
sg30
g49
sbssg77
g36
sg22
I01
sg78
I4
sbsg12
(ima_dataset
MetaAnalyticUnit
p751
(dp752
g45
(dp753
g82
(dp754
g84
(dp755
g86
F6.764887902513696
sg87
F0.4723326140210644
sg88
F3.6186102582673803
sg89
F866.8690285009011
sg90
F37.28571428581197
sg91
F1.6037307183472014
sg92
F1.6052731933156694
sssg93
(dp756
g84
(dp757
g86
F5.118966379258158
sg87
F-0.7245172245857181
sg88
F2.1972245773362196
sg89
F0.9940533709129203
sg90
F0.9000000000003403
sg91
F0.3263990359567452
sg92
F1.4907119849998598
sssg96
(dp758
g84
(dp759
g86
F-1.1017244696495228
sg87
F-3.0709994993992966
sg88
F-2.0863619845244097
sg89
F0.33229755227777386
sg90
F0.12413793103503018
sg91
F0.04637478012062545
sg92
F0.5023753102820165
sssg99
(dp760
g84
(dp761
g86
F2.5886422326737897
sg87
F0.2541291291885319
sg88
F1.421385680931161
sg89
F0.9301270263363095
sg90
F0.8055555555553737
sg91
F0.5631925580103876
sg92
F0.5955500003825579
sssg102
(dp762
g84
(dp763
g86
F2.5168857886178575
sg87
F0.5476107588680836
sg88
F1.5322482737429706
sg89
F12.38995159210374
sg90
F4.62857142855768
sg91
F1.7291168016415353
sg92
F0.5023753102820165
ssssg70
(dp764
g84
(ima_dataset
TreatmentGroup
p765
(dp766
g74
(lp767
F4.0
aF0.0
aF3.0
aF14.0
asg76
I0
sg30
g84
sbssg77
g36
sg22
I01
sg78
I4
sbsssg109
I00
sg110
I1992
sg111
Nsg76
I16
sba(ima_dataset
Study
p768
(dp769
g29
I00
sg30
g19
sg32
(dp770
sg18
g19
sg34
(lp771
g36
asg40
(dp772
g7
(dp773
g12
(ima_dataset
MetaAnalyticUnit
p774
(dp775
g45
(dp776
g82
(dp777
g84
(dp778
g86
Nsg87
Nsg88
Nsg89
Nsg90
Nsg91
Nsg92
Nsssg93
(dp779
g84
(dp780
g86
Nsg87
Nsg88
Nsg89
Nsg90
Nsg91
Nsg92
Nsssg96
(dp781
g84
(dp782
g86
Nsg87
Nsg88
Nsg89
Nsg90
Nsg91
Nsg92
Nsssg99
(dp783
g84
(dp784
g86
Nsg87
Nsg88
Nsg89
Nsg90
Nsg91
Nsg92
Nsssg102
(dp785
g84
(dp786
g86
Nsg87
Nsg88
Nsg89
Nsg90
Nsg91
Nsg92
Nssssg70
(dp787
g84
(ima_dataset
TreatmentGroup
p788
(dp789
g74
(lp790
g19
ag19
ag19
ag19
asg76
I0
sg30
g84
sbssg77
g36
sg22
I01
sg78
I4
sbsssg109
I00
sg110
Nsg111
Nsg76
I17
sbasS'covariates'
p791
(lp792
sb.