(ima_dataset
Dataset
p0
(dp1
S'num_outcomes'
p2
I0
sS'title'
p3
Vmeantime
p4
sS'outcome_names_to_follow_ups'
p5
(dp6
Vdeath
p7
ccopy_reg
_reconstructor
p8
(ctwo_way_dict
TwoWayDict
p9
c__builtin__
dict
p10
(dp11
I0
S'first'
p12
stp13
Rp14
(dp15
S'_reverse_map'
p16
(dp17
g12
I0
ssbssS'notes'
p18
S''
p19
sS'num_follow_ups'
p20
I0
sS'num_treatments'
p21
I0
sS'is_diag'
p22
I00
sS'study_auto_added'
p23
I65
sS'summary'
p24
NsS'studies'
p25
(lp26
(ima_dataset
Study
p27
(dp28
S'include'
p29
I01
sS'name'
p30
VGISSI
p31
sS'covariate_dict'
p32
(dp33
Vtime to treatment
p34
F0.69999999999999996
ssg18
g19
sS'N'
p35
NsS'outcomes_to_follow_ups'
p36
(dp37
g7
(dp38
g12
(ima_dataset
MetaAnalyticUnit
p39
(dp40
g22
I00
sS'tx_groups'
p41
(dp42
S'tx A'
p43
(ima_dataset
TreatmentGroup
p44
(dp45
S'raw_data'
p46
(lp47
F52.0
aF635.0
asS'id'
p48
I0
sg30
g43
sbsS'tx B'
p49
(ima_dataset
TreatmentGroup
p50
(dp51
g46
(lp52
F99.0
aF642.0
asg48
I1
sg30
g49
sbssS'outcome'
p53
(ima_dataset
Outcome
p54
(dp55
S'links'
p56
Nsg30
g7
sS'data_type'
p57
I0
sbsS'effects_dict'
p58
(dp59
S'YUY'
p60
(dp61
S'tx B-tx A'
p62
(dp63
S'upper'
p64
NsS'lower'
p65
NsS'est'
p66
NsS'display_upper'
p67
NsS'display_est'
p68
NsS'display_lower'
p69
NsS'SE'
p70
NssS'tx A-tx B'
p71
(dp72
g64
Nsg65
Nsg66
Nsg67
Nsg68
Nsg69
Nsg70
NsssS'PR'
p73
(dp74
g43
(dp75
g64
Nsg65
Nsg66
Nsg67
Nsg68
Nsg69
Nsg70
Nssg49
(dp76
g64
Nsg65
Nsg66
Nsg67
Nsg68
Nsg69
Nsg70
NsssS'PAS'
p77
(dp78
g43
(dp79
g64
Nsg65
Nsg66
Nsg67
Nsg68
Nsg69
Nsg70
Nssg49
(dp80
g64
Nsg65
Nsg66
Nsg67
Nsg68
Nsg69
Nsg70
NsssS'RR'
p81
(dp82
S'tx B-tx A'
p83
(dp84
g64
Nsg65
Nsg66
Nsg67
Nsg68
Nsg69
Nsg70
NssS'tx A-tx B'
p85
(dp86
g64
Nsg65
Nsg66
Nsg67
Nsg68
Nsg69
Nsg70
NsssS'YUQ'
p87
(dp88
S'tx B-tx A'
p89
(dp90
g64
Nsg65
Nsg66
Nsg67
Nsg68
Nsg69
Nsg70
NssS'tx A-tx B'
p91
(dp92
g64
Nsg65
Nsg66
Nsg67
Nsg68
Nsg69
Nsg70
NsssS'PETO'
p93
(dp94
S'tx B-tx A'
p95
(dp96
g64
Nsg65
Nsg66
Nsg67
Nsg68
Nsg69
Nsg70
NssS'tx A-tx B'
p97
(dp98
g64
Nsg65
Nsg66
Nsg67
Nsg68
Nsg69
Nsg70
NsssS'RD'
p99
(dp100
S'tx B-tx A'
p101
(dp102
g64
Nsg65
Nsg66
Nsg67
Nsg68
Nsg69
Nsg70
NssS'tx A-tx B'
p103
(dp104
g64
Nsg65
Nsg66
Nsg67
Nsg68
Nsg69
Nsg70
NsssS'AS'
p105
(dp106
S'tx B-tx A'
p107
(dp108
g64
Nsg65
Nsg66
Nsg67
Nsg68
Nsg69
Nsg70
NssS'tx A-tx B'
p109
(dp110
g64
Nsg65
Nsg66
Nsg67
Nsg68
Nsg69
Nsg70
NsssS'PFT'
p111
(dp112
g43
(dp113
g64
Nsg65
Nsg66
Nsg67
Nsg68
Nsg69
Nsg70
Nssg49
(dp114
g64
Nsg65
Nsg66
Nsg67
Nsg68
Nsg69
Nsg70
NsssS'PLO'
p115
(dp116
g43
(dp117
g64
Nsg65
Nsg66
Nsg67
Nsg68
Nsg69
Nsg70
Nssg49
(dp118
g64
Nsg65
Nsg66
Nsg67
Nsg68
Nsg69
Nsg70
NsssS'PLN'
p119
(dp120
g43
(dp121
g64
Nsg65
Nsg66
Nsg67
Nsg68
Nsg69
Nsg70
Nssg49
(dp122
g64
Nsg65
Nsg66
Nsg67
Nsg68
Nsg69
Nsg70
NsssS'OR'
p123
(dp124
S'tx B-tx A'
p125
(dp126
g64
Nsg65
Nsg66
Nsg67
Nsg68
Nsg69
Nsg70
NssS'tx A-tx B'
p127
(dp128
g64
F-0.3595099722342987
sg65
F-1.0703980237051403
sg66
F-0.71495399796971948
sg67
F0.69801829062149767
sg68
F0.48921461614429024
sg69
F0.34287201906430143
sg70
NssssS'raw_data_length'
p129
I2
sbsssS'manually_excluded'
p130
I00
sS'year'
p131
I1986
sS'outcomes'
p132
(lp133
g54
asg48
I0
sba(ima_dataset
Study
p134
(dp135
g29
I01
sg30
VISIS-2
p136
sg32
(dp137
g34
F0.69999999999999996
ssg18
g19
sg35
Nsg36
(dp138
g7
(dp139
g12
(ima_dataset
MetaAnalyticUnit
p140
(dp141
g22
I00
sg41
(dp142
g43
(ima_dataset
TreatmentGroup
p143
(dp144
g46
(lp145
F29.0
aF357.0
asg48
I0
sg30
g43
sbsg49
(ima_dataset
TreatmentGroup
p146
(dp147
g46
(lp148
F48.0
aF357.0
asg48
I1
sg30
g49
sbssg53
g54
sg58
(dp149
g60
(dp150
S'tx B-tx A'
p151
(dp152
g64
Nsg65
Nsg66
Nsg67
Nsg68
Nsg69
Nsg70
NssS'tx A-tx B'
p153
(dp154
g64
Nsg65
Nsg66
Nsg67
Nsg68
Nsg69
Nsg70
Nsssg73
(dp155
g43
(dp156
g64
Nsg65
Nsg66
Nsg67
Nsg68
Nsg69
Nsg70
Nssg49
(dp157
g64
Nsg65
Nsg66
Nsg67
Nsg68
Nsg69
Nsg70
Nsssg77
(dp158
g43
(dp159
g64
Nsg65
Nsg66
Nsg67
Nsg68
Nsg69
Nsg70
Nssg49
(dp160
g64
Nsg65
Nsg66
Nsg67
Nsg68
Nsg69
Nsg70
Nsssg81
(dp161
S'tx B-tx A'
p162
(dp163
g64
Nsg65
Nsg66
Nsg67
Nsg68
Nsg69
Nsg70
NssS'tx A-tx B'
p164
(dp165
g64
Nsg65
Nsg66
Nsg67
Nsg68
Nsg69
Nsg70
Nsssg87
(dp166
S'tx B-tx A'
p167
(dp168
g64
Nsg65
Nsg66
Nsg67
Nsg68
Nsg69
Nsg70
NssS'tx A-tx B'
p169
(dp170
g64
Nsg65
Nsg66
Nsg67
Nsg68
Nsg69
Nsg70
Nsssg93
(dp171
S'tx B-tx A'
p172
(dp173
g64
Nsg65
Nsg66
Nsg67
Nsg68
Nsg69
Nsg70
NssS'tx A-tx B'
p174
(dp175
g64
Nsg65
Nsg66
Nsg67
Nsg68
Nsg69
Nsg70
Nsssg99
(dp176
S'tx B-tx A'
p177
(dp178
g64
Nsg65
Nsg66
Nsg67
Nsg68
Nsg69
Nsg70
NssS'tx A-tx B'
p179
(dp180
g64
Nsg65
Nsg66
Nsg67
Nsg68
Nsg69
Nsg70
Nsssg105
(dp181
S'tx B-tx A'
p182
(dp183
g64
Nsg65
Nsg66
Nsg67
Nsg68
Nsg69
Nsg70
NssS'tx A-tx B'
p184
(dp185
g64
Nsg65
Nsg66
Nsg67
Nsg68
Nsg69
Nsg70
Nsssg111
(dp186
g43
(dp187
g64
Nsg65
Nsg66
Nsg67
Nsg68
Nsg69
Nsg70
Nssg49
(dp188
g64
Nsg65
Nsg66
Nsg67
Nsg68
Nsg69
Nsg70
Nsssg115
(dp189
g43
(dp190
g64
Nsg65
Nsg66
Nsg67
Nsg68
Nsg69
Nsg70
Nssg49
(dp191
g64
Nsg65
Nsg66
Nsg67
Nsg68
Nsg69
Nsg70
Nsssg119
(dp192
g43
(dp193
g64
Nsg65
Nsg66
Nsg67
Nsg68
Nsg69
Nsg70
Nssg49
(dp194
g64
Nsg65
Nsg66
Nsg67
Nsg68
Nsg69
Nsg70
Nsssg123
(dp195
S'tx B-tx A'
p196
(dp197
g64
Nsg65
Nsg66
Nsg67
Nsg68
Nsg69
Nsg70
NssS'tx A-tx B'
p198
(dp199
g64
F-0.077122828363209883
sg65
F-1.0500321964524197
sg66
F-0.56357751240781484
sg67
F0.92577613505533896
sg68
F0.56916920731707332
sg69
F0.34992648253843905
sg70
Nssssg129
I2
sbsssg130
I00
sg131
I1988
sg132
(lp200
g54
asg48
I1
sba(ima_dataset
Study
p201
(dp202
g29
I01
sg30
VISIS-2
p203
sg32
(dp204
g34
F1.5
ssg18
g19
sg35
Nsg36
(dp205
g7
(dp206
g12
(ima_dataset
MetaAnalyticUnit
p207
(dp208
g22
I00
sg41
(dp209
g43
(ima_dataset
TreatmentGroup
p210
(dp211
g46
(lp212
F72.0
aF951.0
asg48
I0
sg30
g43
sbsg49
(ima_dataset
TreatmentGroup
p213
(dp214
g46
(lp215
F111.0
aF957.0
asg48
I1
sg30
g49
sbssg53
g54
sg58
(dp216
g60
(dp217
S'tx B-tx A'
p218
(dp219
g64
Nsg65
Nsg66
Nsg67
Nsg68
Nsg69
Nsg70
NssS'tx A-tx B'
p220
(dp221
g64
Nsg65
Nsg66
Nsg67
Nsg68
Nsg69
Nsg70
Nsssg73
(dp222
g43
(dp223
g64
Nsg65
Nsg66
Nsg67
Nsg68
Nsg69
Nsg70
Nssg49
(dp224
g64
Nsg65
Nsg66
Nsg67
Nsg68
Nsg69
Nsg70
Nsssg77
(dp225
g43
(dp226
g64
Nsg65
Nsg66
Nsg67
Nsg68
Nsg69
Nsg70
Nssg49
(dp227
g64
Nsg65
Nsg66
Nsg67
Nsg68
Nsg69
Nsg70
Nsssg81
(dp228
S'tx B-tx A'
p229
(dp230
g64
Nsg65
Nsg66
Nsg67
Nsg68
Nsg69
Nsg70
NssS'tx A-tx B'
p231
(dp232
g64
Nsg65
Nsg66
Nsg67
Nsg68
Nsg69
Nsg70
Nsssg87
(dp233
S'tx B-tx A'
p234
(dp235
g64
Nsg65
Nsg66
Nsg67
Nsg68
Nsg69
Nsg70
NssS'tx A-tx B'
p236
(dp237
g64
Nsg65
Nsg66
Nsg67
Nsg68
Nsg69
Nsg70
Nsssg93
(dp238
S'tx B-tx A'
p239
(dp240
g64
Nsg65
Nsg66
Nsg67
Nsg68
Nsg69
Nsg70
NssS'tx A-tx B'
p241
(dp242
g64
Nsg65
Nsg66
Nsg67
Nsg68
Nsg69
Nsg70
Nsssg99
(dp243
S'tx B-tx A'
p244
(dp245
g64
Nsg65
Nsg66
Nsg67
Nsg68
Nsg69
Nsg70
NssS'tx A-tx B'
p246
(dp247
g64
Nsg65
Nsg66
Nsg67
Nsg68
Nsg69
Nsg70
Nsssg105
(dp248
S'tx B-tx A'
p249
(dp250
g64
Nsg65
Nsg66
Nsg67
Nsg68
Nsg69
Nsg70
NssS'tx A-tx B'
p251
(dp252
g64
Nsg65
Nsg66
Nsg67
Nsg68
Nsg69
Nsg70
Nsssg111
(dp253
g43
(dp254
g64
Nsg65
Nsg66
Nsg67
Nsg68
Nsg69
Nsg70
Nssg49
(dp255
g64
Nsg65
Nsg66
Nsg67
Nsg68
Nsg69
Nsg70
Nsssg115
(dp256
g43
(dp257
g64
Nsg65
Nsg66
Nsg67
Nsg68
Nsg69
Nsg70
Nssg49
(dp258
g64
Nsg65
Nsg66
Nsg67
Nsg68
Nsg69
Nsg70
Nsssg119
(dp259
g43
(dp260
g64
Nsg65
Nsg66
Nsg67
Nsg68
Nsg69
Nsg70
Nssg49
(dp261
g64
Nsg65
Nsg66
Nsg67
Nsg68
Nsg69
Nsg70
Nsssg123
(dp262
S'tx B-tx A'
p263
(dp264
g64
Nsg65
Nsg66
Nsg67
Nsg68
Nsg69
Nsg70
NssS'tx A-tx B'
p265
(dp266
g64
F-0.15988642986159562
sg65
F-0.78237281088887012
sg66
F-0.47112962037523287
sg67
F0.85224057255002317
sg68
F0.62429665160040571
sg69
F0.45731958997598854
sg70
Nssssg129
I2
sbsssg130
I00
sg131
I1988
sg132
(lp267
g54
asg48
I2
sba(ima_dataset
Study
p268
(dp269
g29
I01
sg30
VTICO
p270
sg32
(dp271
g34
F1.8999999999999999
ssg18
g19
sg35
Nsg36
(dp272
g7
(dp273
g12
(ima_dataset
MetaAnalyticUnit
p274
(dp275
g22
I00
sg41
(dp276
g43
(ima_dataset
TreatmentGroup
p277
(dp278
g46
(lp279
F4.0
aF74.0
asg48
I0
sg30
g43
sbsg49
(ima_dataset
TreatmentGroup
p280
(dp281
g46
(lp282
F4.0
aF71.0
asg48
I1
sg30
g49
sbssg53
g54
sg58
(dp283
g60
(dp284
S'tx B-tx A'
p285
(dp286
g64
Nsg65
Nsg66
Nsg67
Nsg68
Nsg69
Nsg70
NssS'tx A-tx B'
p287
(dp288
g64
Nsg65
Nsg66
Nsg67
Nsg68
Nsg69
Nsg70
Nsssg73
(dp289
g43
(dp290
g64
Nsg65
Nsg66
Nsg67
Nsg68
Nsg69
Nsg70
Nssg49
(dp291
g64
Nsg65
Nsg66
Nsg67
Nsg68
Nsg69
Nsg70
Nsssg77
(dp292
g43
(dp293
g64
Nsg65
Nsg66
Nsg67
Nsg68
Nsg69
Nsg70
Nssg49
(dp294
g64
Nsg65
Nsg66
Nsg67
Nsg68
Nsg69
Nsg70
Nsssg81
(dp295
S'tx B-tx A'
p296
(dp297
g64
Nsg65
Nsg66
Nsg67
Nsg68
Nsg69
Nsg70
NssS'tx A-tx B'
p298
(dp299
g64
Nsg65
Nsg66
Nsg67
Nsg68
Nsg69
Nsg70
Nsssg87
(dp300
S'tx B-tx A'
p301
(dp302
g64
Nsg65
Nsg66
Nsg67
Nsg68
Nsg69
Nsg70
NssS'tx A-tx B'
p303
(dp304
g64
Nsg65
Nsg66
Nsg67
Nsg68
Nsg69
Nsg70
Nsssg93
(dp305
S'tx B-tx A'
p306
(dp307
g64
Nsg65
Nsg66
Nsg67
Nsg68
Nsg69
Nsg70
NssS'tx A-tx B'
p308
(dp309
g64
Nsg65
Nsg66
Nsg67
Nsg68
Nsg69
Nsg70
Nsssg99
(dp310
S'tx B-tx A'
p311
(dp312
g64
Nsg65
Nsg66
Nsg67
Nsg68
Nsg69
Nsg70
NssS'tx A-tx B'
p313
(dp314
g64
Nsg65
Nsg66
Nsg67
Nsg68
Nsg69
Nsg70
Nsssg105
(dp315
S'tx B-tx A'
p316
(dp317
g64
Nsg65
Nsg66
Nsg67
Nsg68
Nsg69
Nsg70
NssS'tx A-tx B'
p318
(dp319
g64
Nsg65
Nsg66
Nsg67
Nsg68
Nsg69
Nsg70
Nsssg111
(dp320
g43
(dp321
g64
Nsg65
Nsg66
Nsg67
Nsg68
Nsg69
Nsg70
Nssg49
(dp322
g64
Nsg65
Nsg66
Nsg67
Nsg68
Nsg69
Nsg70
Nsssg115
(dp323
g43
(dp324
g64
Nsg65
Nsg66
Nsg67
Nsg68
Nsg69
Nsg70
Nssg49
(dp325
g64
Nsg65
Nsg66
Nsg67
Nsg68
Nsg69
Nsg70
Nsssg119
(dp326
g43
(dp327
g64
Nsg65
Nsg66
Nsg67
Nsg68
Nsg69
Nsg70
Nssg49
(dp328
g64
Nsg65
Nsg66
Nsg67
Nsg68
Nsg69
Nsg70
Nsssg123
(dp329
S'tx B-tx A'
p330
(dp331
g64
Nsg65
Nsg66
Nsg67
Nsg68
Nsg69
Nsg70
NssS'tx A-tx B'
p332
(dp333
g64
F1.3820103383497655
sg65
F-1.469615583666551
sg66
F-0.043802622658392742
sg67
F3.9829005622617579
sg68
F0.9571428571428573
sg69
F0.2300138892896077
sg70
Nssssg129
I2
sbsssg130
I00
sg131
I1988
sg132
(lp334
g54
asg48
I3
sba(ima_dataset
Study
p335
(dp336
g29
I01
sg30
VEWP
p337
sg32
(dp338
g34
F2.0
ssg18
g19
sg35
Nsg36
(dp339
g7
(dp340
g12
(ima_dataset
MetaAnalyticUnit
p341
(dp342
g22
I00
sg41
(dp343
g43
(ima_dataset
TreatmentGroup
p344
(dp345
g46
(lp346
F12.0
aF108.0
asg48
I0
sg30
g43
sbsg49
(ima_dataset
TreatmentGroup
p347
(dp348
g46
(lp349
F10.0
aF82.0
asg48
I1
sg30
g49
sbssg53
g54
sg58
(dp350
g60
(dp351
S'tx B-tx A'
p352
(dp353
g64
Nsg65
Nsg66
Nsg67
Nsg68
Nsg69
Nsg70
NssS'tx A-tx B'
p354
(dp355
g64
Nsg65
Nsg66
Nsg67
Nsg68
Nsg69
Nsg70
Nsssg73
(dp356
g43
(dp357
g64
Nsg65
Nsg66
Nsg67
Nsg68
Nsg69
Nsg70
Nssg49
(dp358
g64
Nsg65
Nsg66
Nsg67
Nsg68
Nsg69
Nsg70
Nsssg77
(dp359
g43
(dp360
g64
Nsg65
Nsg66
Nsg67
Nsg68
Nsg69
Nsg70
Nssg49
(dp361
g64
Nsg65
Nsg66
Nsg67
Nsg68
Nsg69
Nsg70
Nsssg81
(dp362
S'tx B-tx A'
p363
(dp364
g64
Nsg65
Nsg66
Nsg67
Nsg68
Nsg69
Nsg70
NssS'tx A-tx B'
p365
(dp366
g64
Nsg65
Nsg66
Nsg67
Nsg68
Nsg69
Nsg70
Nsssg87
(dp367
S'tx B-tx A'
p368
(dp369
g64
Nsg65
Nsg66
Nsg67
Nsg68
Nsg69
Nsg70
NssS'tx A-tx B'
p370
(dp371
g64
Nsg65
Nsg66
Nsg67
Nsg68
Nsg69
Nsg70
Nsssg93
(dp372
S'tx B-tx A'
p373
(dp374
g64
Nsg65
Nsg66
Nsg67
Nsg68
Nsg69
Nsg70
NssS'tx A-tx B'
p375
(dp376
g64
Nsg65
Nsg66
Nsg67
Nsg68
Nsg69
Nsg70
Nsssg99
(dp377
S'tx B-tx A'
p378
(dp379
g64
Nsg65
Nsg66
Nsg67
Nsg68
Nsg69
Nsg70
NssS'tx A-tx B'
p380
(dp381
g64
Nsg65
Nsg66
Nsg67
Nsg68
Nsg69
Nsg70
Nsssg105
(dp382
S'tx B-tx A'
p383
(dp384
g64
Nsg65
Nsg66
Nsg67
Nsg68
Nsg69
Nsg70
NssS'tx A-tx B'
p385
(dp386
g64
Nsg65
Nsg66
Nsg67
Nsg68
Nsg69
Nsg70
Nsssg111
(dp387
g43
(dp388
g64
Nsg65
Nsg66
Nsg67
Nsg68
Nsg69
Nsg70
Nssg49
(dp389
g64
Nsg65
Nsg66
Nsg67
Nsg68
Nsg69
Nsg70
Nsssg115
(dp390
g43
(dp391
g64
Nsg65
Nsg66
Nsg67
Nsg68
Nsg69
Nsg70
Nssg49
(dp392
g64
Nsg65
Nsg66
Nsg67
Nsg68
Nsg69
Nsg70
Nsssg119
(dp393
g43
(dp394
g64
Nsg65
Nsg66
Nsg67
Nsg68
Nsg69
Nsg70
Nssg49
(dp395
g64
Nsg65
Nsg66
Nsg67
Nsg68
Nsg69
Nsg70
Nsssg123
(dp396
S'tx B-tx A'
p397
(dp398
g64
Nsg65
Nsg66
Nsg67
Nsg68
Nsg69
Nsg70
NssS'tx A-tx B'
p399
(dp400
g64
F0.78774431650990395
sg65
F-0.99846534782555618
sg66
F-0.10536051565782611
sg67
F2.198431862662181
sg68
F0.90000000000000013
sg69
F0.36844444158443668
sg70
Nssssg129
I2
sbsssg130
I00
sg131
I1971
sg132
(lp401
g54
asg48
I4
sba(ima_dataset
Study
p402
(dp403
g29
I01
sg30
VGISSI
p404
sg32
(dp405
g34
F2.0
ssg18
g19
sg35
Nsg36
(dp406
g7
(dp407
g12
(ima_dataset
MetaAnalyticUnit
p408
(dp409
g22
I00
sg41
(dp410
g43
(ima_dataset
TreatmentGroup
p411
(dp412
g46
(lp413
F226.0
aF2381.0
asg48
I0
sg30
g43
sbsg49
(ima_dataset
TreatmentGroup
p414
(dp415
g46
(lp416
F270.0
aF2436.0
asg48
I1
sg30
g49
sbssg53
g54
sg58
(dp417
g60
(dp418
S'tx B-tx A'
p419
(dp420
g64
Nsg65
Nsg66
Nsg67
Nsg68
Nsg69
Nsg70
NssS'tx A-tx B'
p421
(dp422
g64
Nsg65
Nsg66
Nsg67
Nsg68
Nsg69
Nsg70
Nsssg73
(dp423
g43
(dp424
g64
Nsg65
Nsg66
Nsg67
Nsg68
Nsg69
Nsg70
Nssg49
(dp425
g64
Nsg65
Nsg66
Nsg67
Nsg68
Nsg69
Nsg70
Nsssg77
(dp426
g43
(dp427
g64
Nsg65
Nsg66
Nsg67
Nsg68
Nsg69
Nsg70
Nssg49
(dp428
g64
Nsg65
Nsg66
Nsg67
Nsg68
Nsg69
Nsg70
Nsssg81
(dp429
S'tx B-tx A'
p430
(dp431
g64
Nsg65
Nsg66
Nsg67
Nsg68
Nsg69
Nsg70
NssS'tx A-tx B'
p432
(dp433
g64
Nsg65
Nsg66
Nsg67
Nsg68
Nsg69
Nsg70
Nsssg87
(dp434
S'tx B-tx A'
p435
(dp436
g64
Nsg65
Nsg66
Nsg67
Nsg68
Nsg69
Nsg70
NssS'tx A-tx B'
p437
(dp438
g64
Nsg65
Nsg66
Nsg67
Nsg68
Nsg69
Nsg70
Nsssg93
(dp439
S'tx B-tx A'
p440
(dp441
g64
Nsg65
Nsg66
Nsg67
Nsg68
Nsg69
Nsg70
NssS'tx A-tx B'
p442
(dp443
g64
Nsg65
Nsg66
Nsg67
Nsg68
Nsg69
Nsg70
Nsssg99
(dp444
S'tx B-tx A'
p445
(dp446
g64
Nsg65
Nsg66
Nsg67
Nsg68
Nsg69
Nsg70
NssS'tx A-tx B'
p447
(dp448
g64
Nsg65
Nsg66
Nsg67
Nsg68
Nsg69
Nsg70
Nsssg105
(dp449
S'tx B-tx A'
p450
(dp451
g64
Nsg65
Nsg66
Nsg67
Nsg68
Nsg69
Nsg70
NssS'tx A-tx B'
p452
(dp453
g64
Nsg65
Nsg66
Nsg67
Nsg68
Nsg69
Nsg70
Nsssg111
(dp454
g43
(dp455
g64
Nsg65
Nsg66
Nsg67
Nsg68
Nsg69
Nsg70
Nssg49
(dp456
g64
Nsg65
Nsg66
Nsg67
Nsg68
Nsg69
Nsg70
Nsssg115
(dp457
g43
(dp458
g64
Nsg65
Nsg66
Nsg67
Nsg68
Nsg69
Nsg70
Nssg49
(dp459
g64
Nsg65
Nsg66
Nsg67
Nsg68
Nsg69
Nsg70
Nsssg119
(dp460
g43
(dp461
g64
Nsg65
Nsg66
Nsg67
Nsg68
Nsg69
Nsg70
Nssg49
(dp462
g64
Nsg65
Nsg66
Nsg67
Nsg68
Nsg69
Nsg70
Nsssg123
(dp463
S'tx B-tx A'
p464
(dp465
g64
Nsg65
Nsg66
Nsg67
Nsg68
Nsg69
Nsg70
NssS'tx A-tx B'
p466
(dp467
g64
F0.013702017176324105
sg65
F-0.35929308658232573
sg66
F-0.1727955347030008
sg67
F1.0137963200345501
sg68
F0.84130961588038178
sg69
F0.69816969719191113
sg70
Nssssg129
I2
sbsssg130
I00
sg131
I1986
sg132
(lp468
g54
asg48
I5
sba(ima_dataset
Study
p469
(dp470
g29
I01
sg30
VECSG-2
p471
sg32
(dp472
g34
F2.0
ssg18
g19
sg35
Nsg36
(dp473
g7
(dp474
g12
(ima_dataset
MetaAnalyticUnit
p475
(dp476
g22
I00
sg41
(dp477
g43
(ima_dataset
TreatmentGroup
p478
(dp479
g46
(lp480
F2.0
aF179.0
asg48
I0
sg30
g43
sbsg49
(ima_dataset
TreatmentGroup
p481
(dp482
g46
(lp483
F13.0
aF207.0
asg48
I1
sg30
g49
sbssg53
g54
sg58
(dp484
g60
(dp485
S'tx B-tx A'
p486
(dp487
g64
Nsg65
Nsg66
Nsg67
Nsg68
Nsg69
Nsg70
NssS'tx A-tx B'
p488
(dp489
g64
Nsg65
Nsg66
Nsg67
Nsg68
Nsg69
Nsg70
Nsssg73
(dp490
g43
(dp491
g64
Nsg65
Nsg66
Nsg67
Nsg68
Nsg69
Nsg70
Nssg49
(dp492
g64
Nsg65
Nsg66
Nsg67
Nsg68
Nsg69
Nsg70
Nsssg77
(dp493
g43
(dp494
g64
Nsg65
Nsg66
Nsg67
Nsg68
Nsg69
Nsg70
Nssg49
(dp495
g64
Nsg65
Nsg66
Nsg67
Nsg68
Nsg69
Nsg70
Nsssg81
(dp496
S'tx B-tx A'
p497
(dp498
g64
Nsg65
Nsg66
Nsg67
Nsg68
Nsg69
Nsg70
NssS'tx A-tx B'
p499
(dp500
g64
Nsg65
Nsg66
Nsg67
Nsg68
Nsg69
Nsg70
Nsssg87
(dp501
S'tx B-tx A'
p502
(dp503
g64
Nsg65
Nsg66
Nsg67
Nsg68
Nsg69
Nsg70
NssS'tx A-tx B'
p504
(dp505
g64
Nsg65
Nsg66
Nsg67
Nsg68
Nsg69
Nsg70
Nsssg93
(dp506
S'tx B-tx A'
p507
(dp508
g64
Nsg65
Nsg66
Nsg67
Nsg68
Nsg69
Nsg70
NssS'tx A-tx B'
p509
(dp510
g64
Nsg65
Nsg66
Nsg67
Nsg68
Nsg69
Nsg70
Nsssg99
(dp511
S'tx B-tx A'
p512
(dp513
g64
Nsg65
Nsg66
Nsg67
Nsg68
Nsg69
Nsg70
NssS'tx A-tx B'
p514
(dp515
g64
Nsg65
Nsg66
Nsg67
Nsg68
Nsg69
Nsg70
Nsssg105
(dp516
S'tx B-tx A'
p517
(dp518
g64
Nsg65
Nsg66
Nsg67
Nsg68
Nsg69
Nsg70
NssS'tx A-tx B'
p519
(dp520
g64
Nsg65
Nsg66
Nsg67
Nsg68
Nsg69
Nsg70
Nsssg111
(dp521
g43
(dp522
g64
Nsg65
Nsg66
Nsg67
Nsg68
Nsg69
Nsg70
Nssg49
(dp523
g64
Nsg65
Nsg66
Nsg67
Nsg68
Nsg69
Nsg70
Nsssg115
(dp524
g43
(dp525
g64
Nsg65
Nsg66
Nsg67
Nsg68
Nsg69
Nsg70
Nssg49
(dp526
g64
Nsg65
Nsg66
Nsg67
Nsg68
Nsg69
Nsg70
Nsssg119
(dp527
g43
(dp528
g64
Nsg65
Nsg66
Nsg67
Nsg68
Nsg69
Nsg70
Nssg49
(dp529
g64
Nsg65
Nsg66
Nsg67
Nsg68
Nsg69
Nsg70
Nsssg123
(dp530
S'tx B-tx A'
p531
(dp532
g64
Nsg65
Nsg66
Nsg67
Nsg68
Nsg69
Nsg70
NssS'tx A-tx B'
p533
(dp534
g64
F-0.27751904877010758
sg65
F-3.282668452054077
sg66
F-1.7800937504120924
sg67
F0.75766113195279072
sg68
F0.16862233811386354
sg69
F0.0375279814574912
sg70
Nssssg129
I2
sbsssg130
I00
sg131
I1988
sg132
(lp535
g54
asg48
I6
sba(ima_dataset
Study
p536
(dp537
g29
I01
sg30
VASSET
p538
sg32
(dp539
g34
F2.1000000000000001
ssg18
g19
sg35
Nsg36
(dp540
g7
(dp541
g12
(ima_dataset
MetaAnalyticUnit
p542
(dp543
g22
I00
sg41
(dp544
g43
(ima_dataset
TreatmentGroup
p545
(dp546
g46
(lp547
F81.0
aF992.0
asg48
I0
sg30
g43
sbsg49
(ima_dataset
TreatmentGroup
p548
(dp549
g46
(lp550
F107.0
aF979.0
asg48
I1
sg30
g49
sbssg53
g54
sg58
(dp551
g60
(dp552
S'tx B-tx A'
p553
(dp554
g64
Nsg65
Nsg66
Nsg67
Nsg68
Nsg69
Nsg70
NssS'tx A-tx B'
p555
(dp556
g64
Nsg65
Nsg66
Nsg67
Nsg68
Nsg69
Nsg70
Nsssg73
(dp557
g43
(dp558
g64
Nsg65
Nsg66
Nsg67
Nsg68
Nsg69
Nsg70
Nssg49
(dp559
g64
Nsg65
Nsg66
Nsg67
Nsg68
Nsg69
Nsg70
Nsssg77
(dp560
g43
(dp561
g64
Nsg65
Nsg66
Nsg67
Nsg68
Nsg69
Nsg70
Nssg49
(dp562
g64
Nsg65
Nsg66
Nsg67
Nsg68
Nsg69
Nsg70
Nsssg81
(dp563
S'tx B-tx A'
p564
(dp565
g64
Nsg65
Nsg66
Nsg67
Nsg68
Nsg69
Nsg70
NssS'tx A-tx B'
p566
(dp567
g64
Nsg65
Nsg66
Nsg67
Nsg68
Nsg69
Nsg70
Nsssg87
(dp568
S'tx B-tx A'
p569
(dp570
g64
Nsg65
Nsg66
Nsg67
Nsg68
Nsg69
Nsg70
NssS'tx A-tx B'
p571
(dp572
g64
Nsg65
Nsg66
Nsg67
Nsg68
Nsg69
Nsg70
Nsssg93
(dp573
S'tx B-tx A'
p574
(dp575
g64
Nsg65
Nsg66
Nsg67
Nsg68
Nsg69
Nsg70
NssS'tx A-tx B'
p576
(dp577
g64
Nsg65
Nsg66
Nsg67
Nsg68
Nsg69
Nsg70
Nsssg99
(dp578
S'tx B-tx A'
p579
(dp580
g64
Nsg65
Nsg66
Nsg67
Nsg68
Nsg69
Nsg70
NssS'tx A-tx B'
p581
(dp582
g64
Nsg65
Nsg66
Nsg67
Nsg68
Nsg69
Nsg70
Nsssg105
(dp583
S'tx B-tx A'
p584
(dp585
g64
Nsg65
Nsg66
Nsg67
Nsg68
Nsg69
Nsg70
NssS'tx A-tx B'
p586
(dp587
g64
Nsg65
Nsg66
Nsg67
Nsg68
Nsg69
Nsg70
Nsssg111
(dp588
g43
(dp589
g64
Nsg65
Nsg66
Nsg67
Nsg68
Nsg69
Nsg70
Nssg49
(dp590
g64
Nsg65
Nsg66
Nsg67
Nsg68
Nsg69
Nsg70
Nsssg115
(dp591
g43
(dp592
g64
Nsg65
Nsg66
Nsg67
Nsg68
Nsg69
Nsg70
Nssg49
(dp593
g64
Nsg65
Nsg66
Nsg67
Nsg68
Nsg69
Nsg70
Nsssg119
(dp594
g43
(dp595
g64
Nsg65
Nsg66
Nsg67
Nsg68
Nsg69
Nsg70
Nssg49
(dp596
g64
Nsg65
Nsg66
Nsg67
Nsg68
Nsg69
Nsg70
Nsssg123
(dp597
S'tx B-tx A'
p598
(dp599
g64
Nsg65
Nsg66
Nsg67
Nsg68
Nsg69
Nsg70
NssS'tx A-tx B'
p600
(dp601
g64
F-0.018902227840895569
sg65
F-0.62536407843999664
sg66
F-0.3221331531404461
sg67
F0.98127529895741461
sg68
F0.72460170091406173
sg69
F0.53506658684408348
sg70
Nssssg129
I2
sbsssg130
I00
sg131
I1988
sg132
(lp602
g54
asg48
I7
sba(ima_dataset
Study
p603
(dp604
g29
I01
sg30
VDurand
p605
sg32
(dp606
g34
F2.2999999999999998
ssg18
g19
sg35
Nsg36
(dp607
g7
(dp608
g12
(ima_dataset
MetaAnalyticUnit
p609
(dp610
g22
I00
sg41
(dp611
g43
(ima_dataset
TreatmentGroup
p612
(dp613
g46
(lp614
F3.0
aF35.0
asg48
I0
sg30
g43
sbsg49
(ima_dataset
TreatmentGroup
p615
(dp616
g46
(lp617
F4.0
aF29.0
asg48
I1
sg30
g49
sbssg53
g54
sg58
(dp618
g60
(dp619
S'tx B-tx A'
p620
(dp621
g64
Nsg65
Nsg66
Nsg67
Nsg68
Nsg69
Nsg70
NssS'tx A-tx B'
p622
(dp623
g64
Nsg65
Nsg66
Nsg67
Nsg68
Nsg69
Nsg70
Nsssg73
(dp624
g43
(dp625
g64
Nsg65
Nsg66
Nsg67
Nsg68
Nsg69
Nsg70
Nssg49
(dp626
g64
Nsg65
Nsg66
Nsg67
Nsg68
Nsg69
Nsg70
Nsssg77
(dp627
g43
(dp628
g64
Nsg65
Nsg66
Nsg67
Nsg68
Nsg69
Nsg70
Nssg49
(dp629
g64
Nsg65
Nsg66
Nsg67
Nsg68
Nsg69
Nsg70
Nsssg81
(dp630
S'tx B-tx A'
p631
(dp632
g64
Nsg65
Nsg66
Nsg67
Nsg68
Nsg69
Nsg70
NssS'tx A-tx B'
p633
(dp634
g64
Nsg65
Nsg66
Nsg67
Nsg68
Nsg69
Nsg70
Nsssg87
(dp635
S'tx B-tx A'
p636
(dp637
g64
Nsg65
Nsg66
Nsg67
Nsg68
Nsg69
Nsg70
NssS'tx A-tx B'
p638
(dp639
g64
Nsg65
Nsg66
Nsg67
Nsg68
Nsg69
Nsg70
Nsssg93
(dp640
S'tx B-tx A'
p641
(dp642
g64
Nsg65
Nsg66
Nsg67
Nsg68
Nsg69
Nsg70
NssS'tx A-tx B'
p643
(dp644
g64
Nsg65
Nsg66
Nsg67
Nsg68
Nsg69
Nsg70
Nsssg99
(dp645
S'tx B-tx A'
p646
(dp647
g64
Nsg65
Nsg66
Nsg67
Nsg68
Nsg69
Nsg70
NssS'tx A-tx B'
p648
(dp649
g64
Nsg65
Nsg66
Nsg67
Nsg68
Nsg69
Nsg70
Nsssg105
(dp650
S'tx B-tx A'
p651
(dp652
g64
Nsg65
Nsg66
Nsg67
Nsg68
Nsg69
Nsg70
NssS'tx A-tx B'
p653
(dp654
g64
Nsg65
Nsg66
Nsg67
Nsg68
Nsg69
Nsg70
Nsssg111
(dp655
g43
(dp656
g64
Nsg65
Nsg66
Nsg67
Nsg68
Nsg69
Nsg70
Nssg49
(dp657
g64
Nsg65
Nsg66
Nsg67
Nsg68
Nsg69
Nsg70
Nsssg115
(dp658
g43
(dp659
g64
Nsg65
Nsg66
Nsg67
Nsg68
Nsg69
Nsg70
Nssg49
(dp660
g64
Nsg65
Nsg66
Nsg67
Nsg68
Nsg69
Nsg70
Nsssg119
(dp661
g43
(dp662
g64
Nsg65
Nsg66
Nsg67
Nsg68
Nsg69
Nsg70
Nssg49
(dp663
g64
Nsg65
Nsg66
Nsg67
Nsg68
Nsg69
Nsg70
Nsssg123
(dp664
S'tx B-tx A'
p665
(dp666
g64
Nsg65
Nsg66
Nsg67
Nsg68
Nsg69
Nsg70
NssS'tx A-tx B'
p667
(dp668
g64
F1.0511926697277656
sg65
F-2.1202769704943791
sg66
F-0.53454215038330677
sg67
F2.8610613853011948
sg68
F0.5859375
sg69
F0.1199983878955142
sg70
Nssssg129
I2
sbsssg130
I00
sg131
I1987
sg132
(lp669
g54
asg48
I8
sba(ima_dataset
Study
p670
(dp671
g29
I01
sg30
VAIMS
p672
sg32
(dp673
g34
F2.2999999999999998
ssg18
g19
sg35
Nsg36
(dp674
g7
(dp675
g12
(ima_dataset
MetaAnalyticUnit
p676
(dp677
g22
I00
sg41
(dp678
g43
(ima_dataset
TreatmentGroup
p679
(dp680
g46
(lp681
F18.0
aF334.0
asg48
I0
sg30
g43
sbsg49
(ima_dataset
TreatmentGroup
p682
(dp683
g46
(lp684
F30.0
aF326.0
asg48
I1
sg30
g49
sbssg53
g54
sg58
(dp685
g60
(dp686
S'tx B-tx A'
p687
(dp688
g64
Nsg65
Nsg66
Nsg67
Nsg68
Nsg69
Nsg70
NssS'tx A-tx B'
p689
(dp690
g64
Nsg65
Nsg66
Nsg67
Nsg68
Nsg69
Nsg70
Nsssg73
(dp691
g43
(dp692
g64
Nsg65
Nsg66
Nsg67
Nsg68
Nsg69
Nsg70
Nssg49
(dp693
g64
Nsg65
Nsg66
Nsg67
Nsg68
Nsg69
Nsg70
Nsssg77
(dp694
g43
(dp695
g64
Nsg65
Nsg66
Nsg67
Nsg68
Nsg69
Nsg70
Nssg49
(dp696
g64
Nsg65
Nsg66
Nsg67
Nsg68
Nsg69
Nsg70
Nsssg81
(dp697
S'tx B-tx A'
p698
(dp699
g64
Nsg65
Nsg66
Nsg67
Nsg68
Nsg69
Nsg70
NssS'tx A-tx B'
p700
(dp701
g64
Nsg65
Nsg66
Nsg67
Nsg68
Nsg69
Nsg70
Nsssg87
(dp702
S'tx B-tx A'
p703
(dp704
g64
Nsg65
Nsg66
Nsg67
Nsg68
Nsg69
Nsg70
NssS'tx A-tx B'
p705
(dp706
g64
Nsg65
Nsg66
Nsg67
Nsg68
Nsg69
Nsg70
Nsssg93
(dp707
S'tx B-tx A'
p708
(dp709
g64
Nsg65
Nsg66
Nsg67
Nsg68
Nsg69
Nsg70
NssS'tx A-tx B'
p710
(dp711
g64
Nsg65
Nsg66
Nsg67
Nsg68
Nsg69
Nsg70
Nsssg99
(dp712
S'tx B-tx A'
p713
(dp714
g64
Nsg65
Nsg66
Nsg67
Nsg68
Nsg69
Nsg70
NssS'tx A-tx B'
p715
(dp716
g64
Nsg65
Nsg66
Nsg67
Nsg68
Nsg69
Nsg70
Nsssg105
(dp717
S'tx B-tx A'
p718
(dp719
g64
Nsg65
Nsg66
Nsg67
Nsg68
Nsg69
Nsg70
NssS'tx A-tx B'
p720
(dp721
g64
Nsg65
Nsg66
Nsg67
Nsg68
Nsg69
Nsg70
Nsssg111
(dp722
g43
(dp723
g64
Nsg65
Nsg66
Nsg67
Nsg68
Nsg69
Nsg70
Nssg49
(dp724
g64
Nsg65
Nsg66
Nsg67
Nsg68
Nsg69
Nsg70
Nsssg115
(dp725
g43
(dp726
g64
Nsg65
Nsg66
Nsg67
Nsg68
Nsg69
Nsg70
Nssg49
(dp727
g64
Nsg65
Nsg66
Nsg67
Nsg68
Nsg69
Nsg70
Nsssg119
(dp728
g43
(dp729
g64
Nsg65
Nsg66
Nsg67
Nsg68
Nsg69
Nsg70
Nssg49
(dp730
g64
Nsg65
Nsg66
Nsg67
Nsg68
Nsg69
Nsg70
Nsssg123
(dp731
S'tx B-tx A'
p732
(dp733
g64
Nsg65
Nsg66
Nsg67
Nsg68
Nsg69
Nsg70
NssS'tx A-tx B'
p734
(dp735
g64
F0.029264508982474124
sg65
F-1.1816812750401586
sg66
F-0.57620838302884225
sg67
F1.0296969225421715
sg68
F0.56202531645569631
sg69
F0.30676255257448237
sg70
Nssssg129
I2
sbsssg130
I00
sg131
I1988
sg132
(lp736
g54
asg48
I9
sba(ima_dataset
Study
p737
(dp738
g29
I01
sg30
VBossaert
p739
sg32
(dp740
g34
F2.5
ssg18
g19
sg35
Nsg36
(dp741
g7
(dp742
g12
(ima_dataset
MetaAnalyticUnit
p743
(dp744
g22
I00
sg41
(dp745
g43
(ima_dataset
TreatmentGroup
p746
(dp747
g46
(lp748
F4.0
aF48.0
asg48
I0
sg30
g43
sbsg49
(ima_dataset
TreatmentGroup
p749
(dp750
g46
(lp751
F2.0
aF39.0
asg48
I1
sg30
g49
sbssg53
g54
sg58
(dp752
g60
(dp753
S'tx B-tx A'
p754
(dp755
g64
Nsg65
Nsg66
Nsg67
Nsg68
Nsg69
Nsg70
NssS'tx A-tx B'
p756
(dp757
g64
Nsg65
Nsg66
Nsg67
Nsg68
Nsg69
Nsg70
Nsssg73
(dp758
g43
(dp759
g64
Nsg65
Nsg66
Nsg67
Nsg68
Nsg69
Nsg70
Nssg49
(dp760
g64
Nsg65
Nsg66
Nsg67
Nsg68
Nsg69
Nsg70
Nsssg77
(dp761
g43
(dp762
g64
Nsg65
Nsg66
Nsg67
Nsg68
Nsg69
Nsg70
Nssg49
(dp763
g64
Nsg65
Nsg66
Nsg67
Nsg68
Nsg69
Nsg70
Nsssg81
(dp764
S'tx B-tx A'
p765
(dp766
g64
Nsg65
Nsg66
Nsg67
Nsg68
Nsg69
Nsg70
NssS'tx A-tx B'
p767
(dp768
g64
Nsg65
Nsg66
Nsg67
Nsg68
Nsg69
Nsg70
Nsssg87
(dp769
S'tx B-tx A'
p770
(dp771
g64
Nsg65
Nsg66
Nsg67
Nsg68
Nsg69
Nsg70
NssS'tx A-tx B'
p772
(dp773
g64
Nsg65
Nsg66
Nsg67
Nsg68
Nsg69
Nsg70
Nsssg93
(dp774
S'tx B-tx A'
p775
(dp776
g64
Nsg65
Nsg66
Nsg67
Nsg68
Nsg69
Nsg70
NssS'tx A-tx B'
p777
(dp778
g64
Nsg65
Nsg66
Nsg67
Nsg68
Nsg69
Nsg70
Nsssg99
(dp779
S'tx B-tx A'
p780
(dp781
g64
Nsg65
Nsg66
Nsg67
Nsg68
Nsg69
Nsg70
NssS'tx A-tx B'
p782
(dp783
g64
Nsg65
Nsg66
Nsg67
Nsg68
Nsg69
Nsg70
Nsssg105
(dp784
S'tx B-tx A'
p785
(dp786
g64
Nsg65
Nsg66
Nsg67
Nsg68
Nsg69
Nsg70
NssS'tx A-tx B'
p787
(dp788
g64
Nsg65
Nsg66
Nsg67
Nsg68
Nsg69
Nsg70
Nsssg111
(dp789
g43
(dp790
g64
Nsg65
Nsg66
Nsg67
Nsg68
Nsg69
Nsg70
Nssg49
(dp791
g64
Nsg65
Nsg66
Nsg67
Nsg68
Nsg69
Nsg70
Nsssg115
(dp792
g43
(dp793
g64
Nsg65
Nsg66
Nsg67
Nsg68
Nsg69
Nsg70
Nssg49
(dp794
g64
Nsg65
Nsg66
Nsg67
Nsg68
Nsg69
Nsg70
Nsssg119
(dp795
g43
(dp796
g64
Nsg65
Nsg66
Nsg67
Nsg68
Nsg69
Nsg70
Nssg49
(dp797
g64
Nsg65
Nsg66
Nsg67
Nsg68
Nsg69
Nsg70
Nsssg123
(dp798
S'tx B-tx A'
p799
(dp800
g64
Nsg65
Nsg66
Nsg67
Nsg68
Nsg69
Nsg70
NssS'tx A-tx B'
p801
(dp802
g64
F2.2726513175117131
sg65
F-1.2329003989398966
sg66
F0.51987545928590828
sg67
F9.7050980296397196
sg68
F1.6818181818181812
sg69
F0.29144604083913778
sg70
Nssssg129
I2
sbsssg130
I00
sg131
I1987
sg132
(lp803
g54
asg48
I10
sba(ima_dataset
Study
p804
(dp805
g29
I01
sg30
VSainsous
p806
sg32
(dp807
g34
F2.5
ssg18
g19
sg35
Nsg36
(dp808
g7
(dp809
g12
(ima_dataset
MetaAnalyticUnit
p810
(dp811
g22
I00
sg41
(dp812
g43
(ima_dataset
TreatmentGroup
p813
(dp814
g46
(lp815
F3.0
aF50.0
asg48
I0
sg30
g43
sbsg49
(ima_dataset
TreatmentGroup
p816
(dp817
g46
(lp818
F6.0
aF51.0
asg48
I1
sg30
g49
sbssg53
g54
sg58
(dp819
g60
(dp820
S'tx B-tx A'
p821
(dp822
g64
Nsg65
Nsg66
Nsg67
Nsg68
Nsg69
Nsg70
NssS'tx A-tx B'
p823
(dp824
g64
Nsg65
Nsg66
Nsg67
Nsg68
Nsg69
Nsg70
Nsssg73
(dp825
g43
(dp826
g64
Nsg65
Nsg66
Nsg67
Nsg68
Nsg69
Nsg70
Nssg49
(dp827
g64
Nsg65
Nsg66
Nsg67
Nsg68
Nsg69
Nsg70
Nsssg77
(dp828
g43
(dp829
g64
Nsg65
Nsg66
Nsg67
Nsg68
Nsg69
Nsg70
Nssg49
(dp830
g64
Nsg65
Nsg66
Nsg67
Nsg68
Nsg69
Nsg70
Nsssg81
(dp831
S'tx B-tx A'
p832
(dp833
g64
Nsg65
Nsg66
Nsg67
Nsg68
Nsg69
Nsg70
NssS'tx A-tx B'
p834
(dp835
g64
Nsg65
Nsg66
Nsg67
Nsg68
Nsg69
Nsg70
Nsssg87
(dp836
S'tx B-tx A'
p837
(dp838
g64
Nsg65
Nsg66
Nsg67
Nsg68
Nsg69
Nsg70
NssS'tx A-tx B'
p839
(dp840
g64
Nsg65
Nsg66
Nsg67
Nsg68
Nsg69
Nsg70
Nsssg93
(dp841
S'tx B-tx A'
p842
(dp843
g64
Nsg65
Nsg66
Nsg67
Nsg68
Nsg69
Nsg70
NssS'tx A-tx B'
p844
(dp845
g64
Nsg65
Nsg66
Nsg67
Nsg68
Nsg69
Nsg70
Nsssg99
(dp846
S'tx B-tx A'
p847
(dp848
g64
Nsg65
Nsg66
Nsg67
Nsg68
Nsg69
Nsg70
NssS'tx A-tx B'
p849
(dp850
g64
Nsg65
Nsg66
Nsg67
Nsg68
Nsg69
Nsg70
Nsssg105
(dp851
S'tx B-tx A'
p852
(dp853
g64
Nsg65
Nsg66
Nsg67
Nsg68
Nsg69
Nsg70
NssS'tx A-tx B'
p854
(dp855
g64
Nsg65
Nsg66
Nsg67
Nsg68
Nsg69
Nsg70
Nsssg111
(dp856
g43
(dp857
g64
Nsg65
Nsg66
Nsg67
Nsg68
Nsg69
Nsg70
Nssg49
(dp858
g64
Nsg65
Nsg66
Nsg67
Nsg68
Nsg69
Nsg70
Nsssg115
(dp859
g43
(dp860
g64
Nsg65
Nsg66
Nsg67
Nsg68
Nsg69
Nsg70
Nssg49
(dp861
g64
Nsg65
Nsg66
Nsg67
Nsg68
Nsg69
Nsg70
Nsssg119
(dp862
g43
(dp863
g64
Nsg65
Nsg66
Nsg67
Nsg68
Nsg69
Nsg70
Nssg49
(dp864
g64
Nsg65
Nsg66
Nsg67
Nsg68
Nsg69
Nsg70
Nsssg123
(dp865
S'tx B-tx A'
p866
(dp867
g64
Nsg65
Nsg66
Nsg67
Nsg68
Nsg69
Nsg70
NssS'tx A-tx B'
p868
(dp869
g64
F0.7082996534118835
sg65
F-2.1815642384112519
sg66
F-0.7366322924996842
sg67
F2.0305357071999595
sg68
F0.47872340425531912
sg69
F0.1128648449614451
sg70
Nssssg129
I2
sbsssg130
I00
sg131
I1986
sg132
(lp870
g54
asg48
I11
sba(ima_dataset
Study
p871
(dp872
g29
I01
sg30
VISIS-2
p873
sg32
(dp874
g34
F2.5
ssg18
g19
sg35
Nsg36
(dp875
g7
(dp876
g12
(ima_dataset
MetaAnalyticUnit
p877
(dp878
g22
I00
sg41
(dp879
g43
(ima_dataset
TreatmentGroup
p880
(dp881
g46
(lp882
F106.0
aF1243.0
asg48
I0
sg30
g43
sbsg49
(ima_dataset
TreatmentGroup
p883
(dp884
g46
(lp885
F152.0
aF1243.0
asg48
I1
sg30
g49
sbssg53
g54
sg58
(dp886
g60
(dp887
S'tx B-tx A'
p888
(dp889
g64
Nsg65
Nsg66
Nsg67
Nsg68
Nsg69
Nsg70
NssS'tx A-tx B'
p890
(dp891
g64
Nsg65
Nsg66
Nsg67
Nsg68
Nsg69
Nsg70
Nsssg73
(dp892
g43
(dp893
g64
Nsg65
Nsg66
Nsg67
Nsg68
Nsg69
Nsg70
Nssg49
(dp894
g64
Nsg65
Nsg66
Nsg67
Nsg68
Nsg69
Nsg70
Nsssg77
(dp895
g43
(dp896
g64
Nsg65
Nsg66
Nsg67
Nsg68
Nsg69
Nsg70
Nssg49
(dp897
g64
Nsg65
Nsg66
Nsg67
Nsg68
Nsg69
Nsg70
Nsssg81
(dp898
S'tx B-tx A'
p899
(dp900
g64
Nsg65
Nsg66
Nsg67
Nsg68
Nsg69
Nsg70
NssS'tx A-tx B'
p901
(dp902
g64
Nsg65
Nsg66
Nsg67
Nsg68
Nsg69
Nsg70
Nsssg87
(dp903
S'tx B-tx A'
p904
(dp905
g64
Nsg65
Nsg66
Nsg67
Nsg68
Nsg69
Nsg70
NssS'tx A-tx B'
p906
(dp907
g64
Nsg65
Nsg66
Nsg67
Nsg68
Nsg69
Nsg70
Nsssg93
(dp908
S'tx B-tx A'
p909
(dp910
g64
Nsg65
Nsg66
Nsg67
Nsg68
Nsg69
Nsg70
NssS'tx A-tx B'
p911
(dp912
g64
Nsg65
Nsg66
Nsg67
Nsg68
Nsg69
Nsg70
Nsssg99
(dp913
S'tx B-tx A'
p914
(dp915
g64
Nsg65
Nsg66
Nsg67
Nsg68
Nsg69
Nsg70
NssS'tx A-tx B'
p916
(dp917
g64
Nsg65
Nsg66
Nsg67
Nsg68
Nsg69
Nsg70
Nsssg105
(dp918
S'tx B-tx A'
p919
(dp920
g64
Nsg65
Nsg66
Nsg67
Nsg68
Nsg69
Nsg70
NssS'tx A-tx B'
p921
(dp922
g64
Nsg65
Nsg66
Nsg67
Nsg68
Nsg69
Nsg70
Nsssg111
(dp923
g43
(dp924
g64
Nsg65
Nsg66
Nsg67
Nsg68
Nsg69
Nsg70
Nssg49
(dp925
g64
Nsg65
Nsg66
Nsg67
Nsg68
Nsg69
Nsg70
Nsssg115
(dp926
g43
(dp927
g64
Nsg65
Nsg66
Nsg67
Nsg68
Nsg69
Nsg70
Nssg49
(dp928
g64
Nsg65
Nsg66
Nsg67
Nsg68
Nsg69
Nsg70
Nsssg119
(dp929
g43
(dp930
g64
Nsg65
Nsg66
Nsg67
Nsg68
Nsg69
Nsg70
Nssg49
(dp931
g64
Nsg65
Nsg66
Nsg67
Nsg68
Nsg69
Nsg70
Nsssg123
(dp932
S'tx B-tx A'
p933
(dp934
g64
Nsg65
Nsg66
Nsg67
Nsg68
Nsg69
Nsg70
NssS'tx A-tx B'
p935
(dp936
g64
F-0.14018197064400822
sg65
F-0.66329789865934052
sg66
F-0.40173993465167435
sg67
F0.86920005211363005
sg68
F0.66915474702587607
sg69
F0.51514961875396637
sg70
Nssssg129
I2
sbsssg130
I00
sg131
I1988
sg132
(lp937
g54
asg48
I12
sba(ima_dataset
Study
p938
(dp939
g29
I01
sg30
VIkram
p940
sg32
(dp941
g34
F2.6000000000000001
ssg18
g19
sg35
Nsg36
(dp942
g7
(dp943
g12
(ima_dataset
MetaAnalyticUnit
p944
(dp945
g22
I00
sg41
(dp946
g43
(ima_dataset
TreatmentGroup
p947
(dp948
g46
(lp949
F7.0
aF60.0
asg48
I0
sg30
g43
sbsg49
(ima_dataset
TreatmentGroup
p950
(dp951
g46
(lp952
F12.0
aF67.0
asg48
I1
sg30
g49
sbssg53
g54
sg58
(dp953
g60
(dp954
S'tx B-tx A'
p955
(dp956
g64
Nsg65
Nsg66
Nsg67
Nsg68
Nsg69
Nsg70
NssS'tx A-tx B'
p957
(dp958
g64
Nsg65
Nsg66
Nsg67
Nsg68
Nsg69
Nsg70
Nsssg73
(dp959
g43
(dp960
g64
Nsg65
Nsg66
Nsg67
Nsg68
Nsg69
Nsg70
Nssg49
(dp961
g64
Nsg65
Nsg66
Nsg67
Nsg68
Nsg69
Nsg70
Nsssg77
(dp962
g43
(dp963
g64
Nsg65
Nsg66
Nsg67
Nsg68
Nsg69
Nsg70
Nssg49
(dp964
g64
Nsg65
Nsg66
Nsg67
Nsg68
Nsg69
Nsg70
Nsssg81
(dp965
S'tx B-tx A'
p966
(dp967
g64
Nsg65
Nsg66
Nsg67
Nsg68
Nsg69
Nsg70
NssS'tx A-tx B'
p968
(dp969
g64
Nsg65
Nsg66
Nsg67
Nsg68
Nsg69
Nsg70
Nsssg87
(dp970
S'tx B-tx A'
p971
(dp972
g64
Nsg65
Nsg66
Nsg67
Nsg68
Nsg69
Nsg70
NssS'tx A-tx B'
p973
(dp974
g64
Nsg65
Nsg66
Nsg67
Nsg68
Nsg69
Nsg70
Nsssg93
(dp975
S'tx B-tx A'
p976
(dp977
g64
Nsg65
Nsg66
Nsg67
Nsg68
Nsg69
Nsg70
NssS'tx A-tx B'
p978
(dp979
g64
Nsg65
Nsg66
Nsg67
Nsg68
Nsg69
Nsg70
Nsssg99
(dp980
S'tx B-tx A'
p981
(dp982
g64
Nsg65
Nsg66
Nsg67
Nsg68
Nsg69
Nsg70
NssS'tx A-tx B'
p983
(dp984
g64
Nsg65
Nsg66
Nsg67
Nsg68
Nsg69
Nsg70
Nsssg105
(dp985
S'tx B-tx A'
p986
(dp987
g64
Nsg65
Nsg66
Nsg67
Nsg68
Nsg69
Nsg70
NssS'tx A-tx B'
p988
(dp989
g64
Nsg65
Nsg66
Nsg67
Nsg68
Nsg69
Nsg70
Nsssg111
(dp990
g43
(dp991
g64
Nsg65
Nsg66
Nsg67
Nsg68
Nsg69
Nsg70
Nssg49
(dp992
g64
Nsg65
Nsg66
Nsg67
Nsg68
Nsg69
Nsg70
Nsssg115
(dp993
g43
(dp994
g64
Nsg65
Nsg66
Nsg67
Nsg68
Nsg69
Nsg70
Nssg49
(dp995
g64
Nsg65
Nsg66
Nsg67
Nsg68
Nsg69
Nsg70
Nsssg119
(dp996
g43
(dp997
g64
Nsg65
Nsg66
Nsg67
Nsg68
Nsg69
Nsg70
Nssg49
(dp998
g64
Nsg65
Nsg66
Nsg67
Nsg68
Nsg69
Nsg70
Nsssg123
(dp999
S'tx B-tx A'
p1000
(dp1001
g64
Nsg65
Nsg66
Nsg67
Nsg68
Nsg69
Nsg70
NssS'tx A-tx B'
p1002
(dp1003
g64
F0.50364233501449451
sg65
F-1.5075527931191703
sg66
F-0.50195522905233791
sg67
F1.6547374156701296
sg68
F0.60534591194968557
sg69
F0.22145125241263455
sg70
Nssssg129
I2
sbsssg130
I00
sg131
I1986
sg132
(lp1004
g54
asg48
I13
sba(ima_dataset
Study
p1005
(dp1006
g29
I01
sg30
VAnderson
p1007
sg32
(dp1008
g34
F2.7000000000000002
ssg18
g19
sg35
Nsg36
(dp1009
g7
(dp1010
g12
(ima_dataset
MetaAnalyticUnit
p1011
(dp1012
g22
I00
sg41
(dp1013
g43
(ima_dataset
TreatmentGroup
p1014
(dp1015
g46
(lp1016
F2.0
aF24.0
asg48
I0
sg30
g43
sbsg49
(ima_dataset
TreatmentGroup
p1017
(dp1018
g46
(lp1019
F5.0
aF26.0
asg48
I1
sg30
g49
sbssg53
g54
sg58
(dp1020
g60
(dp1021
S'tx B-tx A'
p1022
(dp1023
g64
Nsg65
Nsg66
Nsg67
Nsg68
Nsg69
Nsg70
NssS'tx A-tx B'
p1024
(dp1025
g64
Nsg65
Nsg66
Nsg67
Nsg68
Nsg69
Nsg70
Nsssg73
(dp1026
g43
(dp1027
g64
Nsg65
Nsg66
Nsg67
Nsg68
Nsg69
Nsg70
Nssg49
(dp1028
g64
Nsg65
Nsg66
Nsg67
Nsg68
Nsg69
Nsg70
Nsssg77
(dp1029
g43
(dp1030
g64
Nsg65
Nsg66
Nsg67
Nsg68
Nsg69
Nsg70
Nssg49
(dp1031
g64
Nsg65
Nsg66
Nsg67
Nsg68
Nsg69
Nsg70
Nsssg81
(dp1032
S'tx B-tx A'
p1033
(dp1034
g64
Nsg65
Nsg66
Nsg67
Nsg68
Nsg69
Nsg70
NssS'tx A-tx B'
p1035
(dp1036
g64
Nsg65
Nsg66
Nsg67
Nsg68
Nsg69
Nsg70
Nsssg87
(dp1037
S'tx B-tx A'
p1038
(dp1039
g64
Nsg65
Nsg66
Nsg67
Nsg68
Nsg69
Nsg70
NssS'tx A-tx B'
p1040
(dp1041
g64
Nsg65
Nsg66
Nsg67
Nsg68
Nsg69
Nsg70
Nsssg93
(dp1042
S'tx B-tx A'
p1043
(dp1044
g64
Nsg65
Nsg66
Nsg67
Nsg68
Nsg69
Nsg70
NssS'tx A-tx B'
p1045
(dp1046
g64
Nsg65
Nsg66
Nsg67
Nsg68
Nsg69
Nsg70
Nsssg99
(dp1047
S'tx B-tx A'
p1048
(dp1049
g64
Nsg65
Nsg66
Nsg67
Nsg68
Nsg69
Nsg70
NssS'tx A-tx B'
p1050
(dp1051
g64
Nsg65
Nsg66
Nsg67
Nsg68
Nsg69
Nsg70
Nsssg105
(dp1052
S'tx B-tx A'
p1053
(dp1054
g64
Nsg65
Nsg66
Nsg67
Nsg68
Nsg69
Nsg70
NssS'tx A-tx B'
p1055
(dp1056
g64
Nsg65
Nsg66
Nsg67
Nsg68
Nsg69
Nsg70
Nsssg111
(dp1057
g43
(dp1058
g64
Nsg65
Nsg66
Nsg67
Nsg68
Nsg69
Nsg70
Nssg49
(dp1059
g64
Nsg65
Nsg66
Nsg67
Nsg68
Nsg69
Nsg70
Nsssg115
(dp1060
g43
(dp1061
g64
Nsg65
Nsg66
Nsg67
Nsg68
Nsg69
Nsg70
Nssg49
(dp1062
g64
Nsg65
Nsg66
Nsg67
Nsg68
Nsg69
Nsg70
Nsssg119
(dp1063
g43
(dp1064
g64
Nsg65
Nsg66
Nsg67
Nsg68
Nsg69
Nsg70
Nssg49
(dp1065
g64
Nsg65
Nsg66
Nsg67
Nsg68
Nsg69
Nsg70
Nsssg123
(dp1066
S'tx B-tx A'
p1067
(dp1068
g64
Nsg65
Nsg66
Nsg67
Nsg68
Nsg69
Nsg70
NssS'tx A-tx B'
p1069
(dp1070
g64
F0.78262889612579722
sg65
F-2.7082503911438938
sg66
F-0.96281074750904816
sg67
F2.1872146742764045
sg68
F0.38181818181818172
sg69
F0.066653321999667045
sg70
Nssssg129
I2
sbsssg130
I00
sg131
I1983
sg132
(lp1071
g54
asg48
I14
sba(ima_dataset
Study
p1072
(dp1073
g29
I01
sg30
VCroydon
p1074
sg32
(dp1075
g34
F2.7000000000000002
ssg18
g19
sg35
Nsg36
(dp1076
g7
(dp1077
g12
(ima_dataset
MetaAnalyticUnit
p1078
(dp1079
g22
I00
sg41
(dp1080
g43
(ima_dataset
TreatmentGroup
p1081
(dp1082
g46
(lp1083
F3.0
aF35.0
asg48
I0
sg30
g43
sbsg49
(ima_dataset
TreatmentGroup
p1084
(dp1085
g46
(lp1086
F4.0
aF30.0
asg48
I1
sg30
g49
sbssg53
g54
sg58
(dp1087
g60
(dp1088
S'tx B-tx A'
p1089
(dp1090
g64
Nsg65
Nsg66
Nsg67
Nsg68
Nsg69
Nsg70
NssS'tx A-tx B'
p1091
(dp1092
g64
Nsg65
Nsg66
Nsg67
Nsg68
Nsg69
Nsg70
Nsssg73
(dp1093
g43
(dp1094
g64
Nsg65
Nsg66
Nsg67
Nsg68
Nsg69
Nsg70
Nssg49
(dp1095
g64
Nsg65
Nsg66
Nsg67
Nsg68
Nsg69
Nsg70
Nsssg77
(dp1096
g43
(dp1097
g64
Nsg65
Nsg66
Nsg67
Nsg68
Nsg69
Nsg70
Nssg49
(dp1098
g64
Nsg65
Nsg66
Nsg67
Nsg68
Nsg69
Nsg70
Nsssg81
(dp1099
S'tx B-tx A'
p1100
(dp1101
g64
Nsg65
Nsg66
Nsg67
Nsg68
Nsg69
Nsg70
NssS'tx A-tx B'
p1102
(dp1103
g64
Nsg65
Nsg66
Nsg67
Nsg68
Nsg69
Nsg70
Nsssg87
(dp1104
S'tx B-tx A'
p1105
(dp1106
g64
Nsg65
Nsg66
Nsg67
Nsg68
Nsg69
Nsg70
NssS'tx A-tx B'
p1107
(dp1108
g64
Nsg65
Nsg66
Nsg67
Nsg68
Nsg69
Nsg70
Nsssg93
(dp1109
S'tx B-tx A'
p1110
(dp1111
g64
Nsg65
Nsg66
Nsg67
Nsg68
Nsg69
Nsg70
NssS'tx A-tx B'
p1112
(dp1113
g64
Nsg65
Nsg66
Nsg67
Nsg68
Nsg69
Nsg70
Nsssg99
(dp1114
S'tx B-tx A'
p1115
(dp1116
g64
Nsg65
Nsg66
Nsg67
Nsg68
Nsg69
Nsg70
NssS'tx A-tx B'
p1117
(dp1118
g64
Nsg65
Nsg66
Nsg67
Nsg68
Nsg69
Nsg70
Nsssg105
(dp1119
S'tx B-tx A'
p1120
(dp1121
g64
Nsg65
Nsg66
Nsg67
Nsg68
Nsg69
Nsg70
NssS'tx A-tx B'
p1122
(dp1123
g64
Nsg65
Nsg66
Nsg67
Nsg68
Nsg69
Nsg70
Nsssg111
(dp1124
g43
(dp1125
g64
Nsg65
Nsg66
Nsg67
Nsg68
Nsg69
Nsg70
Nssg49
(dp1126
g64
Nsg65
Nsg66
Nsg67
Nsg68
Nsg69
Nsg70
Nsssg115
(dp1127
g43
(dp1128
g64
Nsg65
Nsg66
Nsg67
Nsg68
Nsg69
Nsg70
Nssg49
(dp1129
g64
Nsg65
Nsg66
Nsg67
Nsg68
Nsg69
Nsg70
Nsssg119
(dp1130
g43
(dp1131
g64
Nsg65
Nsg66
Nsg67
Nsg68
Nsg69
Nsg70
Nssg49
(dp1132
g64
Nsg65
Nsg66
Nsg67
Nsg68
Nsg69
Nsg70
Nsssg123
(dp1133
S'tx B-tx A'
p1134
(dp1135
g64
Nsg65
Nsg66
Nsg67
Nsg68
Nsg69
Nsg70
NssS'tx A-tx B'
p1136
(dp1137
g64
F1.088548817262265
sg65
F-2.0791916917223157
sg66
F-0.49532143723002542
sg67
F2.9699609876657656
sg68
F0.609375
sg69
F0.12503123514657757
sg70
Nssssg129
I2
sbsssg130
I00
sg131
I1987
sg132
(lp1138
g54
asg48
I15
sba(ima_dataset
Study
p1139
(dp1140
g29
I01
sg30
VMeinertz
p1141
sg32
(dp1142
g34
F2.7999999999999998
ssg18
g19
sg35
Nsg36
(dp1143
g7
(dp1144
g12
(ima_dataset
MetaAnalyticUnit
p1145
(dp1146
g22
I00
sg41
(dp1147
g43
(ima_dataset
TreatmentGroup
p1148
(dp1149
g46
(lp1150
F9.0
aF162.0
asg48
I0
sg30
g43
sbsg49
(ima_dataset
TreatmentGroup
p1151
(dp1152
g46
(lp1153
F19.0
aF151.0
asg48
I1
sg30
g49
sbssg53
g54
sg58
(dp1154
g60
(dp1155
S'tx B-tx A'
p1156
(dp1157
g64
Nsg65
Nsg66
Nsg67
Nsg68
Nsg69
Nsg70
NssS'tx A-tx B'
p1158
(dp1159
g64
Nsg65
Nsg66
Nsg67
Nsg68
Nsg69
Nsg70
Nsssg73
(dp1160
g43
(dp1161
g64
Nsg65
Nsg66
Nsg67
Nsg68
Nsg69
Nsg70
Nssg49
(dp1162
g64
Nsg65
Nsg66
Nsg67
Nsg68
Nsg69
Nsg70
Nsssg77
(dp1163
g43
(dp1164
g64
Nsg65
Nsg66
Nsg67
Nsg68
Nsg69
Nsg70
Nssg49
(dp1165
g64
Nsg65
Nsg66
Nsg67
Nsg68
Nsg69
Nsg70
Nsssg81
(dp1166
S'tx B-tx A'
p1167
(dp1168
g64
Nsg65
Nsg66
Nsg67
Nsg68
Nsg69
Nsg70
NssS'tx A-tx B'
p1169
(dp1170
g64
Nsg65
Nsg66
Nsg67
Nsg68
Nsg69
Nsg70
Nsssg87
(dp1171
S'tx B-tx A'
p1172
(dp1173
g64
Nsg65
Nsg66
Nsg67
Nsg68
Nsg69
Nsg70
NssS'tx A-tx B'
p1174
(dp1175
g64
Nsg65
Nsg66
Nsg67
Nsg68
Nsg69
Nsg70
Nsssg93
(dp1176
S'tx B-tx A'
p1177
(dp1178
g64
Nsg65
Nsg66
Nsg67
Nsg68
Nsg69
Nsg70
NssS'tx A-tx B'
p1179
(dp1180
g64
Nsg65
Nsg66
Nsg67
Nsg68
Nsg69
Nsg70
Nsssg99
(dp1181
S'tx B-tx A'
p1182
(dp1183
g64
Nsg65
Nsg66
Nsg67
Nsg68
Nsg69
Nsg70
NssS'tx A-tx B'
p1184
(dp1185
g64
Nsg65
Nsg66
Nsg67
Nsg68
Nsg69
Nsg70
Nsssg105
(dp1186
S'tx B-tx A'
p1187
(dp1188
g64
Nsg65
Nsg66
Nsg67
Nsg68
Nsg69
Nsg70
NssS'tx A-tx B'
p1189
(dp1190
g64
Nsg65
Nsg66
Nsg67
Nsg68
Nsg69
Nsg70
Nsssg111
(dp1191
g43
(dp1192
g64
Nsg65
Nsg66
Nsg67
Nsg68
Nsg69
Nsg70
Nssg49
(dp1193
g64
Nsg65
Nsg66
Nsg67
Nsg68
Nsg69
Nsg70
Nsssg115
(dp1194
g43
(dp1195
g64
Nsg65
Nsg66
Nsg67
Nsg68
Nsg69
Nsg70
Nssg49
(dp1196
g64
Nsg65
Nsg66
Nsg67
Nsg68
Nsg69
Nsg70
Nsssg119
(dp1197
g43
(dp1198
g64
Nsg65
Nsg66
Nsg67
Nsg68
Nsg69
Nsg70
Nssg49
(dp1199
g64
Nsg65
Nsg66
Nsg67
Nsg68
Nsg69
Nsg70
Nsssg123
(dp1200
S'tx B-tx A'
p1201
(dp1202
g64
Nsg65
Nsg66
Nsg67
Nsg68
Nsg69
Nsg70
NssS'tx A-tx B'
p1203
(dp1204
g64
F-0.068278966455531442
sg65
F-1.7214218348170403
sg66
F-0.89485040063628585
sg67
F0.93399988259411804
sg68
F0.40866873065015474
sg69
F0.17881172634342307
sg70
Nssssg129
I2
sbsssg130
I00
sg131
I1988
sg132
(lp1205
g54
asg48
I16
sba(ima_dataset
Study
p1206
(dp1207
g29
I01
sg30
VBuchalter
p1208
sg32
(dp1209
g34
F2.8999999999999999
ssg18
g19
sg35
Nsg36
(dp1210
g7
(dp1211
g12
(ima_dataset
MetaAnalyticUnit
p1212
(dp1213
g22
I00
sg41
(dp1214
g43
(ima_dataset
TreatmentGroup
p1215
(dp1216
g46
(lp1217
F0.0
aF21.0
asg48
I0
sg30
g43
sbsg49
(ima_dataset
TreatmentGroup
p1218
(dp1219
g46
(lp1220
F5.0
aF22.0
asg48
I1
sg30
g49
sbssg53
g54
sg58
(dp1221
g60
(dp1222
S'tx B-tx A'
p1223
(dp1224
g64
Nsg65
Nsg66
Nsg67
Nsg68
Nsg69
Nsg70
NssS'tx A-tx B'
p1225
(dp1226
g64
Nsg65
Nsg66
Nsg67
Nsg68
Nsg69
Nsg70
Nsssg73
(dp1227
g43
(dp1228
g64
Nsg65
Nsg66
Nsg67
Nsg68
Nsg69
Nsg70
Nssg49
(dp1229
g64
Nsg65
Nsg66
Nsg67
Nsg68
Nsg69
Nsg70
Nsssg77
(dp1230
g43
(dp1231
g64
Nsg65
Nsg66
Nsg67
Nsg68
Nsg69
Nsg70
Nssg49
(dp1232
g64
Nsg65
Nsg66
Nsg67
Nsg68
Nsg69
Nsg70
Nsssg81
(dp1233
S'tx B-tx A'
p1234
(dp1235
g64
Nsg65
Nsg66
Nsg67
Nsg68
Nsg69
Nsg70
NssS'tx A-tx B'
p1236
(dp1237
g64
Nsg65
Nsg66
Nsg67
Nsg68
Nsg69
Nsg70
Nsssg87
(dp1238
S'tx B-tx A'
p1239
(dp1240
g64
Nsg65
Nsg66
Nsg67
Nsg68
Nsg69
Nsg70
NssS'tx A-tx B'
p1241
(dp1242
g64
Nsg65
Nsg66
Nsg67
Nsg68
Nsg69
Nsg70
Nsssg93
(dp1243
S'tx B-tx A'
p1244
(dp1245
g64
Nsg65
Nsg66
Nsg67
Nsg68
Nsg69
Nsg70
NssS'tx A-tx B'
p1246
(dp1247
g64
Nsg65
Nsg66
Nsg67
Nsg68
Nsg69
Nsg70
Nsssg99
(dp1248
S'tx B-tx A'
p1249
(dp1250
g64
Nsg65
Nsg66
Nsg67
Nsg68
Nsg69
Nsg70
NssS'tx A-tx B'
p1251
(dp1252
g64
Nsg65
Nsg66
Nsg67
Nsg68
Nsg69
Nsg70
Nsssg105
(dp1253
S'tx B-tx A'
p1254
(dp1255
g64
Nsg65
Nsg66
Nsg67
Nsg68
Nsg69
Nsg70
NssS'tx A-tx B'
p1256
(dp1257
g64
Nsg65
Nsg66
Nsg67
Nsg68
Nsg69
Nsg70
Nsssg111
(dp1258
g43
(dp1259
g64
Nsg65
Nsg66
Nsg67
Nsg68
Nsg69
Nsg70
Nssg49
(dp1260
g64
Nsg65
Nsg66
Nsg67
Nsg68
Nsg69
Nsg70
Nsssg115
(dp1261
g43
(dp1262
g64
Nsg65
Nsg66
Nsg67
Nsg68
Nsg69
Nsg70
Nssg49
(dp1263
g64
Nsg65
Nsg66
Nsg67
Nsg68
Nsg69
Nsg70
Nsssg119
(dp1264
g43
(dp1265
g64
Nsg65
Nsg66
Nsg67
Nsg68
Nsg69
Nsg70
Nssg49
(dp1266
g64
Nsg65
Nsg66
Nsg67
Nsg68
Nsg69
Nsg70
Nsssg123
(dp1267
S'tx B-tx A'
p1268
(dp1269
g64
Nsg65
Nsg66
Nsg67
Nsg68
Nsg69
Nsg70
NssS'tx A-tx B'
p1270
(dp1271
g64
F0.35928307034332274
sg65
F-5.5667777243483618
sg66
F-2.6037473270025195
sg67
F1.4323021864643957
sg68
F0.073995771670190252
sg69
F0.0038227786544002725
sg70
Nssssg129
I2
sbsssg130
I00
sg131
I1987
sg132
(lp1272
g54
asg48
I17
sba(ima_dataset
Study
p1273
(dp1274
g29
I01
sg30
VWhite
p1275
sg32
(dp1276
g34
F3.0
ssg18
g19
sg35
Nsg36
(dp1277
g7
(dp1278
g12
(ima_dataset
MetaAnalyticUnit
p1279
(dp1280
g22
I00
sg41
(dp1281
g43
(ima_dataset
TreatmentGroup
p1282
(dp1283
g46
(lp1284
F4.0
aF107.0
asg48
I0
sg30
g43
sbsg49
(ima_dataset
TreatmentGroup
p1285
(dp1286
g46
(lp1287
F14.0
aF112.0
asg48
I1
sg30
g49
sbssg53
g54
sg58
(dp1288
g60
(dp1289
S'tx B-tx A'
p1290
(dp1291
g64
Nsg65
Nsg66
Nsg67
Nsg68
Nsg69
Nsg70
NssS'tx A-tx B'
p1292
(dp1293
g64
Nsg65
Nsg66
Nsg67
Nsg68
Nsg69
Nsg70
Nsssg73
(dp1294
g43
(dp1295
g64
Nsg65
Nsg66
Nsg67
Nsg68
Nsg69
Nsg70
Nssg49
(dp1296
g64
Nsg65
Nsg66
Nsg67
Nsg68
Nsg69
Nsg70
Nsssg77
(dp1297
g43
(dp1298
g64
Nsg65
Nsg66
Nsg67
Nsg68
Nsg69
Nsg70
Nssg49
(dp1299
g64
Nsg65
Nsg66
Nsg67
Nsg68
Nsg69
Nsg70
Nsssg81
(dp1300
S'tx B-tx A'
p1301
(dp1302
g64
Nsg65
Nsg66
Nsg67
Nsg68
Nsg69
Nsg70
NssS'tx A-tx B'
p1303
(dp1304
g64
Nsg65
Nsg66
Nsg67
Nsg68
Nsg69
Nsg70
Nsssg87
(dp1305
S'tx B-tx A'
p1306
(dp1307
g64
Nsg65
Nsg66
Nsg67
Nsg68
Nsg69
Nsg70
NssS'tx A-tx B'
p1308
(dp1309
g64
Nsg65
Nsg66
Nsg67
Nsg68
Nsg69
Nsg70
Nsssg93
(dp1310
S'tx B-tx A'
p1311
(dp1312
g64
Nsg65
Nsg66
Nsg67
Nsg68
Nsg69
Nsg70
NssS'tx A-tx B'
p1313
(dp1314
g64
Nsg65
Nsg66
Nsg67
Nsg68
Nsg69
Nsg70
Nsssg99
(dp1315
S'tx B-tx A'
p1316
(dp1317
g64
Nsg65
Nsg66
Nsg67
Nsg68
Nsg69
Nsg70
NssS'tx A-tx B'
p1318
(dp1319
g64
Nsg65
Nsg66
Nsg67
Nsg68
Nsg69
Nsg70
Nsssg105
(dp1320
S'tx B-tx A'
p1321
(dp1322
g64
Nsg65
Nsg66
Nsg67
Nsg68
Nsg69
Nsg70
NssS'tx A-tx B'
p1323
(dp1324
g64
Nsg65
Nsg66
Nsg67
Nsg68
Nsg69
Nsg70
Nsssg111
(dp1325
g43
(dp1326
g64
Nsg65
Nsg66
Nsg67
Nsg68
Nsg69
Nsg70
Nssg49
(dp1327
g64
Nsg65
Nsg66
Nsg67
Nsg68
Nsg69
Nsg70
Nsssg115
(dp1328
g43
(dp1329
g64
Nsg65
Nsg66
Nsg67
Nsg68
Nsg69
Nsg70
Nssg49
(dp1330
g64
Nsg65
Nsg66
Nsg67
Nsg68
Nsg69
Nsg70
Nsssg119
(dp1331
g43
(dp1332
g64
Nsg65
Nsg66
Nsg67
Nsg68
Nsg69
Nsg70
Nssg49
(dp1333
g64
Nsg65
Nsg66
Nsg67
Nsg68
Nsg69
Nsg70
Nsssg123
(dp1334
S'tx B-tx A'
p1335
(dp1336
g64
Nsg65
Nsg66
Nsg67
Nsg68
Nsg69
Nsg70
NssS'tx A-tx B'
p1337
(dp1338
g64
F-0.1574267105961229
sg65
F-2.4476222455127403
sg66
F-1.3025244780544316
sg67
F0.85433942534125518
sg68
F0.2718446601941748
sg69
F0.086499015595081719
sg70
Nssssg129
I2
sbsssg130
I00
sg131
I1987
sg132
(lp1339
g54
asg48
I18
sba(ima_dataset
Study
p1340
(dp1341
g29
I01
sg30
VISAM
p1342
sg32
(dp1343
g34
F3.0
ssg18
g19
sg35
Nsg36
(dp1344
g7
(dp1345
g12
(ima_dataset
MetaAnalyticUnit
p1346
(dp1347
g22
I00
sg41
(dp1348
g43
(ima_dataset
TreatmentGroup
p1349
(dp1350
g46
(lp1351
F54.0
aF859.0
asg48
I0
sg30
g43
sbsg49
(ima_dataset
TreatmentGroup
p1352
(dp1353
g46
(lp1354
F63.0
aF882.0
asg48
I1
sg30
g49
sbssg53
g54
sg58
(dp1355
g60
(dp1356
S'tx B-tx A'
p1357
(dp1358
g64
Nsg65
Nsg66
Nsg67
Nsg68
Nsg69
Nsg70
NssS'tx A-tx B'
p1359
(dp1360
g64
Nsg65
Nsg66
Nsg67
Nsg68
Nsg69
Nsg70
Nsssg73
(dp1361
g43
(dp1362
g64
Nsg65
Nsg66
Nsg67
Nsg68
Nsg69
Nsg70
Nssg49
(dp1363
g64
Nsg65
Nsg66
Nsg67
Nsg68
Nsg69
Nsg70
Nsssg77
(dp1364
g43
(dp1365
g64
Nsg65
Nsg66
Nsg67
Nsg68
Nsg69
Nsg70
Nssg49
(dp1366
g64
Nsg65
Nsg66
Nsg67
Nsg68
Nsg69
Nsg70
Nsssg81
(dp1367
S'tx B-tx A'
p1368
(dp1369
g64
Nsg65
Nsg66
Nsg67
Nsg68
Nsg69
Nsg70
NssS'tx A-tx B'
p1370
(dp1371
g64
Nsg65
Nsg66
Nsg67
Nsg68
Nsg69
Nsg70
Nsssg87
(dp1372
S'tx B-tx A'
p1373
(dp1374
g64
Nsg65
Nsg66
Nsg67
Nsg68
Nsg69
Nsg70
NssS'tx A-tx B'
p1375
(dp1376
g64
Nsg65
Nsg66
Nsg67
Nsg68
Nsg69
Nsg70
Nsssg93
(dp1377
S'tx B-tx A'
p1378
(dp1379
g64
Nsg65
Nsg66
Nsg67
Nsg68
Nsg69
Nsg70
NssS'tx A-tx B'
p1380
(dp1381
g64
Nsg65
Nsg66
Nsg67
Nsg68
Nsg69
Nsg70
Nsssg99
(dp1382
S'tx B-tx A'
p1383
(dp1384
g64
Nsg65
Nsg66
Nsg67
Nsg68
Nsg69
Nsg70
NssS'tx A-tx B'
p1385
(dp1386
g64
Nsg65
Nsg66
Nsg67
Nsg68
Nsg69
Nsg70
Nsssg105
(dp1387
S'tx B-tx A'
p1388
(dp1389
g64
Nsg65
Nsg66
Nsg67
Nsg68
Nsg69
Nsg70
NssS'tx A-tx B'
p1390
(dp1391
g64
Nsg65
Nsg66
Nsg67
Nsg68
Nsg69
Nsg70
Nsssg111
(dp1392
g43
(dp1393
g64
Nsg65
Nsg66
Nsg67
Nsg68
Nsg69
Nsg70
Nssg49
(dp1394
g64
Nsg65
Nsg66
Nsg67
Nsg68
Nsg69
Nsg70
Nsssg115
(dp1395
g43
(dp1396
g64
Nsg65
Nsg66
Nsg67
Nsg68
Nsg69
Nsg70
Nssg49
(dp1397
g64
Nsg65
Nsg66
Nsg67
Nsg68
Nsg69
Nsg70
Nsssg119
(dp1398
g43
(dp1399
g64
Nsg65
Nsg66
Nsg67
Nsg68
Nsg69
Nsg70
Nssg49
(dp1400
g64
Nsg65
Nsg66
Nsg67
Nsg68
Nsg69
Nsg70
Nsssg123
(dp1401
S'tx B-tx A'
p1402
(dp1403
g64
Nsg65
Nsg66
Nsg67
Nsg68
Nsg69
Nsg70
NssS'tx A-tx B'
p1404
(dp1405
g64
F0.23935710645538988
sg65
F-0.51317485324089374
sg66
F-0.13690887339275193
sg67
F1.2704321351041166
sg68
F0.87204968944099404
sg69
F0.59859211668304568
sg70
Nssssg129
I2
sbsssg130
I00
sg131
I1986
sg132
(lp1406
g54
asg48
I19
sba(ima_dataset
Study
p1407
(dp1408
g29
I01
sg30
VMaublant
p1409
sg32
(dp1410
g34
F3.1000000000000001
ssg18
g19
sg35
Nsg36
(dp1411
g7
(dp1412
g12
(ima_dataset
MetaAnalyticUnit
p1413
(dp1414
g22
I00
sg41
(dp1415
g43
(ima_dataset
TreatmentGroup
p1416
(dp1417
g46
(lp1418
F7.0
aF112.0
asg48
I0
sg30
g43
sbsg49
(ima_dataset
TreatmentGroup
p1419
(dp1420
g46
(lp1421
F7.0
aF119.0
asg48
I1
sg30
g49
sbssg53
g54
sg58
(dp1422
g60
(dp1423
S'tx B-tx A'
p1424
(dp1425
g64
Nsg65
Nsg66
Nsg67
Nsg68
Nsg69
Nsg70
NssS'tx A-tx B'
p1426
(dp1427
g64
Nsg65
Nsg66
Nsg67
Nsg68
Nsg69
Nsg70
Nsssg73
(dp1428
g43
(dp1429
g64
Nsg65
Nsg66
Nsg67
Nsg68
Nsg69
Nsg70
Nssg49
(dp1430
g64
Nsg65
Nsg66
Nsg67
Nsg68
Nsg69
Nsg70
Nsssg77
(dp1431
g43
(dp1432
g64
Nsg65
Nsg66
Nsg67
Nsg68
Nsg69
Nsg70
Nssg49
(dp1433
g64
Nsg65
Nsg66
Nsg67
Nsg68
Nsg69
Nsg70
Nsssg81
(dp1434
S'tx B-tx A'
p1435
(dp1436
g64
Nsg65
Nsg66
Nsg67
Nsg68
Nsg69
Nsg70
NssS'tx A-tx B'
p1437
(dp1438
g64
Nsg65
Nsg66
Nsg67
Nsg68
Nsg69
Nsg70
Nsssg87
(dp1439
S'tx B-tx A'
p1440
(dp1441
g64
Nsg65
Nsg66
Nsg67
Nsg68
Nsg69
Nsg70
NssS'tx A-tx B'
p1442
(dp1443
g64
Nsg65
Nsg66
Nsg67
Nsg68
Nsg69
Nsg70
Nsssg93
(dp1444
S'tx B-tx A'
p1445
(dp1446
g64
Nsg65
Nsg66
Nsg67
Nsg68
Nsg69
Nsg70
NssS'tx A-tx B'
p1447
(dp1448
g64
Nsg65
Nsg66
Nsg67
Nsg68
Nsg69
Nsg70
Nsssg99
(dp1449
S'tx B-tx A'
p1450
(dp1451
g64
Nsg65
Nsg66
Nsg67
Nsg68
Nsg69
Nsg70
NssS'tx A-tx B'
p1452
(dp1453
g64
Nsg65
Nsg66
Nsg67
Nsg68
Nsg69
Nsg70
Nsssg105
(dp1454
S'tx B-tx A'
p1455
(dp1456
g64
Nsg65
Nsg66
Nsg67
Nsg68
Nsg69
Nsg70
NssS'tx A-tx B'
p1457
(dp1458
g64
Nsg65
Nsg66
Nsg67
Nsg68
Nsg69
Nsg70
Nsssg111
(dp1459
g43
(dp1460
g64
Nsg65
Nsg66
Nsg67
Nsg68
Nsg69
Nsg70
Nssg49
(dp1461
g64
Nsg65
Nsg66
Nsg67
Nsg68
Nsg69
Nsg70
Nsssg115
(dp1462
g43
(dp1463
g64
Nsg65
Nsg66
Nsg67
Nsg68
Nsg69
Nsg70
Nssg49
(dp1464
g64
Nsg65
Nsg66
Nsg67
Nsg68
Nsg69
Nsg70
Nsssg119
(dp1465
g43
(dp1466
g64
Nsg65
Nsg66
Nsg67
Nsg68
Nsg69
Nsg70
Nssg49
(dp1467
g64
Nsg65
Nsg66
Nsg67
Nsg68
Nsg69
Nsg70
Nsssg123
(dp1468
S'tx B-tx A'
p1469
(dp1470
g64
Nsg65
Nsg66
Nsg67
Nsg68
Nsg69
Nsg70
NssS'tx A-tx B'
p1471
(dp1472
g64
F1.1454842758485999
sg65
F-1.0164072335734577
sg66
F0.064538521137571081
sg67
F3.1439635338409562
sg68
F1.0666666666666667
sg69
F0.3618928036317785
sg70
Nssssg129
I2
sbsssg130
I00
sg131
I1988
sg132
(lp1473
g54
asg48
I20
sba(ima_dataset
Study
p1474
(dp1475
g29
I01
sg30
VSimoons
p1476
sg32
(dp1477
g34
F3.2000000000000002
ssg18
g19
sg35
Nsg36
(dp1478
g7
(dp1479
g12
(ima_dataset
MetaAnalyticUnit
p1480
(dp1481
g22
I00
sg41
(dp1482
g43
(ima_dataset
TreatmentGroup
p1483
(dp1484
g46
(lp1485
F16.0
aF269.0
asg48
I0
sg30
g43
sbsg49
(ima_dataset
TreatmentGroup
p1486
(dp1487
g46
(lp1488
F31.0
aF264.0
asg48
I1
sg30
g49
sbssg53
g54
sg58
(dp1489
g60
(dp1490
S'tx B-tx A'
p1491
(dp1492
g64
Nsg65
Nsg66
Nsg67
Nsg68
Nsg69
Nsg70
NssS'tx A-tx B'
p1493
(dp1494
g64
Nsg65
Nsg66
Nsg67
Nsg68
Nsg69
Nsg70
Nsssg73
(dp1495
g43
(dp1496
g64
Nsg65
Nsg66
Nsg67
Nsg68
Nsg69
Nsg70
Nssg49
(dp1497
g64
Nsg65
Nsg66
Nsg67
Nsg68
Nsg69
Nsg70
Nsssg77
(dp1498
g43
(dp1499
g64
Nsg65
Nsg66
Nsg67
Nsg68
Nsg69
Nsg70
Nssg49
(dp1500
g64
Nsg65
Nsg66
Nsg67
Nsg68
Nsg69
Nsg70
Nsssg81
(dp1501
S'tx B-tx A'
p1502
(dp1503
g64
Nsg65
Nsg66
Nsg67
Nsg68
Nsg69
Nsg70
NssS'tx A-tx B'
p1504
(dp1505
g64
Nsg65
Nsg66
Nsg67
Nsg68
Nsg69
Nsg70
Nsssg87
(dp1506
S'tx B-tx A'
p1507
(dp1508
g64
Nsg65
Nsg66
Nsg67
Nsg68
Nsg69
Nsg70
NssS'tx A-tx B'
p1509
(dp1510
g64
Nsg65
Nsg66
Nsg67
Nsg68
Nsg69
Nsg70
Nsssg93
(dp1511
S'tx B-tx A'
p1512
(dp1513
g64
Nsg65
Nsg66
Nsg67
Nsg68
Nsg69
Nsg70
NssS'tx A-tx B'
p1514
(dp1515
g64
Nsg65
Nsg66
Nsg67
Nsg68
Nsg69
Nsg70
Nsssg99
(dp1516
S'tx B-tx A'
p1517
(dp1518
g64
Nsg65
Nsg66
Nsg67
Nsg68
Nsg69
Nsg70
NssS'tx A-tx B'
p1519
(dp1520
g64
Nsg65
Nsg66
Nsg67
Nsg68
Nsg69
Nsg70
Nsssg105
(dp1521
S'tx B-tx A'
p1522
(dp1523
g64
Nsg65
Nsg66
Nsg67
Nsg68
Nsg69
Nsg70
NssS'tx A-tx B'
p1524
(dp1525
g64
Nsg65
Nsg66
Nsg67
Nsg68
Nsg69
Nsg70
Nsssg111
(dp1526
g43
(dp1527
g64
Nsg65
Nsg66
Nsg67
Nsg68
Nsg69
Nsg70
Nssg49
(dp1528
g64
Nsg65
Nsg66
Nsg67
Nsg68
Nsg69
Nsg70
Nsssg115
(dp1529
g43
(dp1530
g64
Nsg65
Nsg66
Nsg67
Nsg68
Nsg69
Nsg70
Nssg49
(dp1531
g64
Nsg65
Nsg66
Nsg67
Nsg68
Nsg69
Nsg70
Nsssg119
(dp1532
g43
(dp1533
g64
Nsg65
Nsg66
Nsg67
Nsg68
Nsg69
Nsg70
Nssg49
(dp1534
g64
Nsg65
Nsg66
Nsg67
Nsg68
Nsg69
Nsg70
Nsssg123
(dp1535
S'tx B-tx A'
p1536
(dp1537
g64
Nsg65
Nsg66
Nsg67
Nsg68
Nsg69
Nsg70
NssS'tx A-tx B'
p1538
(dp1539
g64
F-0.11471868970631927
sg65
F-1.3727803451080505
sg66
F-0.74374951740718487
sg67
F0.89161692965120276
sg68
F0.4753283182455692
sg69
F0.25340143576518542
sg70
Nssssg129
I2
sbsssg130
I00
sg131
I1985
sg132
(lp1540
g54
asg48
I21
sba(ima_dataset
Study
p1541
(dp1542
g29
I01
sg30
VGuerci
p1543
sg32
(dp1544
g34
F3.2000000000000002
ssg18
g19
sg35
Nsg36
(dp1545
g7
(dp1546
g12
(ima_dataset
MetaAnalyticUnit
p1547
(dp1548
g22
I00
sg41
(dp1549
g43
(ima_dataset
TreatmentGroup
p1550
(dp1551
g46
(lp1552
F4.0
aF72.0
asg48
I0
sg30
g43
sbsg49
(ima_dataset
TreatmentGroup
p1553
(dp1554
g46
(lp1555
F5.0
aF66.0
asg48
I1
sg30
g49
sbssg53
g54
sg58
(dp1556
g60
(dp1557
S'tx B-tx A'
p1558
(dp1559
g64
Nsg65
Nsg66
Nsg67
Nsg68
Nsg69
Nsg70
NssS'tx A-tx B'
p1560
(dp1561
g64
Nsg65
Nsg66
Nsg67
Nsg68
Nsg69
Nsg70
Nsssg73
(dp1562
g43
(dp1563
g64
Nsg65
Nsg66
Nsg67
Nsg68
Nsg69
Nsg70
Nssg49
(dp1564
g64
Nsg65
Nsg66
Nsg67
Nsg68
Nsg69
Nsg70
Nsssg77
(dp1565
g43
(dp1566
g64
Nsg65
Nsg66
Nsg67
Nsg68
Nsg69
Nsg70
Nssg49
(dp1567
g64
Nsg65
Nsg66
Nsg67
Nsg68
Nsg69
Nsg70
Nsssg81
(dp1568
S'tx B-tx A'
p1569
(dp1570
g64
Nsg65
Nsg66
Nsg67
Nsg68
Nsg69
Nsg70
NssS'tx A-tx B'
p1571
(dp1572
g64
Nsg65
Nsg66
Nsg67
Nsg68
Nsg69
Nsg70
Nsssg87
(dp1573
S'tx B-tx A'
p1574
(dp1575
g64
Nsg65
Nsg66
Nsg67
Nsg68
Nsg69
Nsg70
NssS'tx A-tx B'
p1576
(dp1577
g64
Nsg65
Nsg66
Nsg67
Nsg68
Nsg69
Nsg70
Nsssg93
(dp1578
S'tx B-tx A'
p1579
(dp1580
g64
Nsg65
Nsg66
Nsg67
Nsg68
Nsg69
Nsg70
NssS'tx A-tx B'
p1581
(dp1582
g64
Nsg65
Nsg66
Nsg67
Nsg68
Nsg69
Nsg70
Nsssg99
(dp1583
S'tx B-tx A'
p1584
(dp1585
g64
Nsg65
Nsg66
Nsg67
Nsg68
Nsg69
Nsg70
NssS'tx A-tx B'
p1586
(dp1587
g64
Nsg65
Nsg66
Nsg67
Nsg68
Nsg69
Nsg70
Nsssg105
(dp1588
S'tx B-tx A'
p1589
(dp1590
g64
Nsg65
Nsg66
Nsg67
Nsg68
Nsg69
Nsg70
NssS'tx A-tx B'
p1591
(dp1592
g64
Nsg65
Nsg66
Nsg67
Nsg68
Nsg69
Nsg70
Nsssg111
(dp1593
g43
(dp1594
g64
Nsg65
Nsg66
Nsg67
Nsg68
Nsg69
Nsg70
Nssg49
(dp1595
g64
Nsg65
Nsg66
Nsg67
Nsg68
Nsg69
Nsg70
Nsssg115
(dp1596
g43
(dp1597
g64
Nsg65
Nsg66
Nsg67
Nsg68
Nsg69
Nsg70
Nssg49
(dp1598
g64
Nsg65
Nsg66
Nsg67
Nsg68
Nsg69
Nsg70
Nsssg119
(dp1599
g43
(dp1600
g64
Nsg65
Nsg66
Nsg67
Nsg68
Nsg69
Nsg70
Nssg49
(dp1601
g64
Nsg65
Nsg66
Nsg67
Nsg68
Nsg69
Nsg70
Nsssg123
(dp1602
S'tx B-tx A'
p1603
(dp1604
g64
Nsg65
Nsg66
Nsg67
Nsg68
Nsg69
Nsg70
NssS'tx A-tx B'
p1605
(dp1606
g64
F1.02767957484254
sg65
F-1.6912343594765507
sg66
F-0.33177739231700532
sg67
F2.7945737062306568
sg68
F0.7176470588235293
sg69
F0.18429190108308921
sg70
Nssssg129
I2
sbsssg130
I00
sg131
I1987
sg132
(lp1607
g54
asg48
I22
sba(ima_dataset
Study
p1608
(dp1609
g29
I01
sg30
VNHF Austra
p1610
sg32
(dp1611
g34
F3.2000000000000002
ssg18
g19
sg35
Nsg36
(dp1612
g7
(dp1613
g12
(ima_dataset
MetaAnalyticUnit
p1614
(dp1615
g22
I00
sg41
(dp1616
g43
(ima_dataset
TreatmentGroup
p1617
(dp1618
g46
(lp1619
F7.0
aF73.0
asg48
I0
sg30
g43
sbsg49
(ima_dataset
TreatmentGroup
p1620
(dp1621
g46
(lp1622
F2.0
aF71.0
asg48
I1
sg30
g49
sbssg53
g54
sg58
(dp1623
g60
(dp1624
S'tx B-tx A'
p1625
(dp1626
g64
Nsg65
Nsg66
Nsg67
Nsg68
Nsg69
Nsg70
NssS'tx A-tx B'
p1627
(dp1628
g64
Nsg65
Nsg66
Nsg67
Nsg68
Nsg69
Nsg70
Nsssg73
(dp1629
g43
(dp1630
g64
Nsg65
Nsg66
Nsg67
Nsg68
Nsg69
Nsg70
Nssg49
(dp1631
g64
Nsg65
Nsg66
Nsg67
Nsg68
Nsg69
Nsg70
Nsssg77
(dp1632
g43
(dp1633
g64
Nsg65
Nsg66
Nsg67
Nsg68
Nsg69
Nsg70
Nssg49
(dp1634
g64
Nsg65
Nsg66
Nsg67
Nsg68
Nsg69
Nsg70
Nsssg81
(dp1635
S'tx B-tx A'
p1636
(dp1637
g64
Nsg65
Nsg66
Nsg67
Nsg68
Nsg69
Nsg70
NssS'tx A-tx B'
p1638
(dp1639
g64
Nsg65
Nsg66
Nsg67
Nsg68
Nsg69
Nsg70
Nsssg87
(dp1640
S'tx B-tx A'
p1641
(dp1642
g64
Nsg65
Nsg66
Nsg67
Nsg68
Nsg69
Nsg70
NssS'tx A-tx B'
p1643
(dp1644
g64
Nsg65
Nsg66
Nsg67
Nsg68
Nsg69
Nsg70
Nsssg93
(dp1645
S'tx B-tx A'
p1646
(dp1647
g64
Nsg65
Nsg66
Nsg67
Nsg68
Nsg69
Nsg70
NssS'tx A-tx B'
p1648
(dp1649
g64
Nsg65
Nsg66
Nsg67
Nsg68
Nsg69
Nsg70
Nsssg99
(dp1650
S'tx B-tx A'
p1651
(dp1652
g64
Nsg65
Nsg66
Nsg67
Nsg68
Nsg69
Nsg70
NssS'tx A-tx B'
p1653
(dp1654
g64
Nsg65
Nsg66
Nsg67
Nsg68
Nsg69
Nsg70
Nsssg105
(dp1655
S'tx B-tx A'
p1656
(dp1657
g64
Nsg65
Nsg66
Nsg67
Nsg68
Nsg69
Nsg70
NssS'tx A-tx B'
p1658
(dp1659
g64
Nsg65
Nsg66
Nsg67
Nsg68
Nsg69
Nsg70
Nsssg111
(dp1660
g43
(dp1661
g64
Nsg65
Nsg66
Nsg67
Nsg68
Nsg69
Nsg70
Nssg49
(dp1662
g64
Nsg65
Nsg66
Nsg67
Nsg68
Nsg69
Nsg70
Nsssg115
(dp1663
g43
(dp1664
g64
Nsg65
Nsg66
Nsg67
Nsg68
Nsg69
Nsg70
Nssg49
(dp1665
g64
Nsg65
Nsg66
Nsg67
Nsg68
Nsg69
Nsg70
Nsssg119
(dp1666
g43
(dp1667
g64
Nsg65
Nsg66
Nsg67
Nsg68
Nsg69
Nsg70
Nssg49
(dp1668
g64
Nsg65
Nsg66
Nsg67
Nsg68
Nsg69
Nsg70
Nsssg123
(dp1669
S'tx B-tx A'
p1670
(dp1671
g64
Nsg65
Nsg66
Nsg67
Nsg68
Nsg69
Nsg70
NssS'tx A-tx B'
p1672
(dp1673
g64
F2.9045063908599076
sg65
F-0.31007692872750359
sg66
F1.2972147310662021
sg67
F18.256229985793514
sg68
F3.6590909090909101
sg69
F0.73339053525348008
sg70
Nssssg129
I2
sbsssg130
I00
sg131
I1988
sg132
(lp1674
g54
asg48
I23
sba(ima_dataset
Study
p1675
(dp1676
g29
I01
sg30
VJulian
p1677
sg32
(dp1678
g34
F3.2999999999999998
ssg18
g19
sg35
Nsg36
(dp1679
g7
(dp1680
g12
(ima_dataset
MetaAnalyticUnit
p1681
(dp1682
g22
I00
sg41
(dp1683
g43
(ima_dataset
TreatmentGroup
p1684
(dp1685
g46
(lp1686
F1.0
aF45.0
asg48
I0
sg30
g43
sbsg49
(ima_dataset
TreatmentGroup
p1687
(dp1688
g46
(lp1689
F7.0
aF45.0
asg48
I1
sg30
g49
sbssg53
g54
sg58
(dp1690
g60
(dp1691
S'tx B-tx A'
p1692
(dp1693
g64
Nsg65
Nsg66
Nsg67
Nsg68
Nsg69
Nsg70
NssS'tx A-tx B'
p1694
(dp1695
g64
Nsg65
Nsg66
Nsg67
Nsg68
Nsg69
Nsg70
Nsssg73
(dp1696
g43
(dp1697
g64
Nsg65
Nsg66
Nsg67
Nsg68
Nsg69
Nsg70
Nssg49
(dp1698
g64
Nsg65
Nsg66
Nsg67
Nsg68
Nsg69
Nsg70
Nsssg77
(dp1699
g43
(dp1700
g64
Nsg65
Nsg66
Nsg67
Nsg68
Nsg69
Nsg70
Nssg49
(dp1701
g64
Nsg65
Nsg66
Nsg67
Nsg68
Nsg69
Nsg70
Nsssg81
(dp1702
S'tx B-tx A'
p1703
(dp1704
g64
Nsg65
Nsg66
Nsg67
Nsg68
Nsg69
Nsg70
NssS'tx A-tx B'
p1705
(dp1706
g64
Nsg65
Nsg66
Nsg67
Nsg68
Nsg69
Nsg70
Nsssg87
(dp1707
S'tx B-tx A'
p1708
(dp1709
g64
Nsg65
Nsg66
Nsg67
Nsg68
Nsg69
Nsg70
NssS'tx A-tx B'
p1710
(dp1711
g64
Nsg65
Nsg66
Nsg67
Nsg68
Nsg69
Nsg70
Nsssg93
(dp1712
S'tx B-tx A'
p1713
(dp1714
g64
Nsg65
Nsg66
Nsg67
Nsg68
Nsg69
Nsg70
NssS'tx A-tx B'
p1715
(dp1716
g64
Nsg65
Nsg66
Nsg67
Nsg68
Nsg69
Nsg70
Nsssg99
(dp1717
S'tx B-tx A'
p1718
(dp1719
g64
Nsg65
Nsg66
Nsg67
Nsg68
Nsg69
Nsg70
NssS'tx A-tx B'
p1720
(dp1721
g64
Nsg65
Nsg66
Nsg67
Nsg68
Nsg69
Nsg70
Nsssg105
(dp1722
S'tx B-tx A'
p1723
(dp1724
g64
Nsg65
Nsg66
Nsg67
Nsg68
Nsg69
Nsg70
NssS'tx A-tx B'
p1725
(dp1726
g64
Nsg65
Nsg66
Nsg67
Nsg68
Nsg69
Nsg70
Nsssg111
(dp1727
g43
(dp1728
g64
Nsg65
Nsg66
Nsg67
Nsg68
Nsg69
Nsg70
Nssg49
(dp1729
g64
Nsg65
Nsg66
Nsg67
Nsg68
Nsg69
Nsg70
Nsssg115
(dp1730
g43
(dp1731
g64
Nsg65
Nsg66
Nsg67
Nsg68
Nsg69
Nsg70
Nssg49
(dp1732
g64
Nsg65
Nsg66
Nsg67
Nsg68
Nsg69
Nsg70
Nsssg119
(dp1733
g43
(dp1734
g64
Nsg65
Nsg66
Nsg67
Nsg68
Nsg69
Nsg70
Nssg49
(dp1735
g64
Nsg65
Nsg66
Nsg67
Nsg68
Nsg69
Nsg70
Nsssg123
(dp1736
S'tx B-tx A'
p1737
(dp1738
g64
Nsg65
Nsg66
Nsg67
Nsg68
Nsg69
Nsg70
NssS'tx A-tx B'
p1739
(dp1740
g64
F0.047261027529751143
sg65
F-4.2322882740241283
sg66
F-2.0925136232471884
sg67
F1.0483956334887616
sg68
F0.12337662337662342
sg69
F0.014519128761690273
sg70
Nssssg129
I2
sbsssg130
I00
sg131
I1987
sg132
(lp1741
g54
asg48
I24
sba(ima_dataset
Study
p1742
(dp1743
g29
I01
sg30
VBassand
p1744
sg32
(dp1745
g34
F3.2999999999999998
ssg18
g19
sg35
Nsg36
(dp1746
g7
(dp1747
g12
(ima_dataset
MetaAnalyticUnit
p1748
(dp1749
g22
I00
sg41
(dp1750
g43
(ima_dataset
TreatmentGroup
p1751
(dp1752
g46
(lp1753
F4.0
aF51.0
asg48
I0
sg30
g43
sbsg49
(ima_dataset
TreatmentGroup
p1754
(dp1755
g46
(lp1756
F7.0
aF50.0
asg48
I1
sg30
g49
sbssg53
g54
sg58
(dp1757
g60
(dp1758
S'tx B-tx A'
p1759
(dp1760
g64
Nsg65
Nsg66
Nsg67
Nsg68
Nsg69
Nsg70
NssS'tx A-tx B'
p1761
(dp1762
g64
Nsg65
Nsg66
Nsg67
Nsg68
Nsg69
Nsg70
Nsssg73
(dp1763
g43
(dp1764
g64
Nsg65
Nsg66
Nsg67
Nsg68
Nsg69
Nsg70
Nssg49
(dp1765
g64
Nsg65
Nsg66
Nsg67
Nsg68
Nsg69
Nsg70
Nsssg77
(dp1766
g43
(dp1767
g64
Nsg65
Nsg66
Nsg67
Nsg68
Nsg69
Nsg70
Nssg49
(dp1768
g64
Nsg65
Nsg66
Nsg67
Nsg68
Nsg69
Nsg70
Nsssg81
(dp1769
S'tx B-tx A'
p1770
(dp1771
g64
Nsg65
Nsg66
Nsg67
Nsg68
Nsg69
Nsg70
NssS'tx A-tx B'
p1772
(dp1773
g64
Nsg65
Nsg66
Nsg67
Nsg68
Nsg69
Nsg70
Nsssg87
(dp1774
S'tx B-tx A'
p1775
(dp1776
g64
Nsg65
Nsg66
Nsg67
Nsg68
Nsg69
Nsg70
NssS'tx A-tx B'
p1777
(dp1778
g64
Nsg65
Nsg66
Nsg67
Nsg68
Nsg69
Nsg70
Nsssg93
(dp1779
S'tx B-tx A'
p1780
(dp1781
g64
Nsg65
Nsg66
Nsg67
Nsg68
Nsg69
Nsg70
NssS'tx A-tx B'
p1782
(dp1783
g64
Nsg65
Nsg66
Nsg67
Nsg68
Nsg69
Nsg70
Nsssg99
(dp1784
S'tx B-tx A'
p1785
(dp1786
g64
Nsg65
Nsg66
Nsg67
Nsg68
Nsg69
Nsg70
NssS'tx A-tx B'
p1787
(dp1788
g64
Nsg65
Nsg66
Nsg67
Nsg68
Nsg69
Nsg70
Nsssg105
(dp1789
S'tx B-tx A'
p1790
(dp1791
g64
Nsg65
Nsg66
Nsg67
Nsg68
Nsg69
Nsg70
NssS'tx A-tx B'
p1792
(dp1793
g64
Nsg65
Nsg66
Nsg67
Nsg68
Nsg69
Nsg70
Nsssg111
(dp1794
g43
(dp1795
g64
Nsg65
Nsg66
Nsg67
Nsg68
Nsg69
Nsg70
Nssg49
(dp1796
g64
Nsg65
Nsg66
Nsg67
Nsg68
Nsg69
Nsg70
Nsssg115
(dp1797
g43
(dp1798
g64
Nsg65
Nsg66
Nsg67
Nsg68
Nsg69
Nsg70
Nssg49
(dp1799
g64
Nsg65
Nsg66
Nsg67
Nsg68
Nsg69
Nsg70
Nsssg119
(dp1800
g43
(dp1801
g64
Nsg65
Nsg66
Nsg67
Nsg68
Nsg69
Nsg70
Nssg49
(dp1802
g64
Nsg65
Nsg66
Nsg67
Nsg68
Nsg69
Nsg70
Nsssg123
(dp1803
S'tx B-tx A'
p1804
(dp1805
g64
Nsg65
Nsg66
Nsg67
Nsg68
Nsg69
Nsg70
NssS'tx A-tx B'
p1806
(dp1807
g64
F0.64766739793602079
sg65
F-1.9447939458398587
sg66
F-0.64856327395191893
sg67
F1.9110778417327783
sg68
F0.52279635258358659
sg69
F0.1430166894860157
sg70
Nssssg129
I2
sbsssg130
I00
sg131
I1986
sg132
(lp1808
g54
asg48
I25
sba(ima_dataset
Study
p1809
(dp1810
g29
I01
sg30
VSchreiber
p1811
sg32
(dp1812
g34
F3.3999999999999999
ssg18
g19
sg35
Nsg36
(dp1813
g7
(dp1814
g12
(ima_dataset
MetaAnalyticUnit
p1815
(dp1816
g22
I00
sg41
(dp1817
g43
(ima_dataset
TreatmentGroup
p1818
(dp1819
g46
(lp1820
F1.0
aF19.0
asg48
I0
sg30
g43
sbsg49
(ima_dataset
TreatmentGroup
p1821
(dp1822
g46
(lp1823
F4.0
aF19.0
asg48
I1
sg30
g49
sbssg53
g54
sg58
(dp1824
g60
(dp1825
S'tx B-tx A'
p1826
(dp1827
g64
Nsg65
Nsg66
Nsg67
Nsg68
Nsg69
Nsg70
NssS'tx A-tx B'
p1828
(dp1829
g64
Nsg65
Nsg66
Nsg67
Nsg68
Nsg69
Nsg70
Nsssg73
(dp1830
g43
(dp1831
g64
Nsg65
Nsg66
Nsg67
Nsg68
Nsg69
Nsg70
Nssg49
(dp1832
g64
Nsg65
Nsg66
Nsg67
Nsg68
Nsg69
Nsg70
Nsssg77
(dp1833
g43
(dp1834
g64
Nsg65
Nsg66
Nsg67
Nsg68
Nsg69
Nsg70
Nssg49
(dp1835
g64
Nsg65
Nsg66
Nsg67
Nsg68
Nsg69
Nsg70
Nsssg81
(dp1836
S'tx B-tx A'
p1837
(dp1838
g64
Nsg65
Nsg66
Nsg67
Nsg68
Nsg69
Nsg70
NssS'tx A-tx B'
p1839
(dp1840
g64
Nsg65
Nsg66
Nsg67
Nsg68
Nsg69
Nsg70
Nsssg87
(dp1841
S'tx B-tx A'
p1842
(dp1843
g64
Nsg65
Nsg66
Nsg67
Nsg68
Nsg69
Nsg70
NssS'tx A-tx B'
p1844
(dp1845
g64
Nsg65
Nsg66
Nsg67
Nsg68
Nsg69
Nsg70
Nsssg93
(dp1846
S'tx B-tx A'
p1847
(dp1848
g64
Nsg65
Nsg66
Nsg67
Nsg68
Nsg69
Nsg70
NssS'tx A-tx B'
p1849
(dp1850
g64
Nsg65
Nsg66
Nsg67
Nsg68
Nsg69
Nsg70
Nsssg99
(dp1851
S'tx B-tx A'
p1852
(dp1853
g64
Nsg65
Nsg66
Nsg67
Nsg68
Nsg69
Nsg70
NssS'tx A-tx B'
p1854
(dp1855
g64
Nsg65
Nsg66
Nsg67
Nsg68
Nsg69
Nsg70
Nsssg105
(dp1856
S'tx B-tx A'
p1857
(dp1858
g64
Nsg65
Nsg66
Nsg67
Nsg68
Nsg69
Nsg70
NssS'tx A-tx B'
p1859
(dp1860
g64
Nsg65
Nsg66
Nsg67
Nsg68
Nsg69
Nsg70
Nsssg111
(dp1861
g43
(dp1862
g64
Nsg65
Nsg66
Nsg67
Nsg68
Nsg69
Nsg70
Nssg49
(dp1863
g64
Nsg65
Nsg66
Nsg67
Nsg68
Nsg69
Nsg70
Nsssg115
(dp1864
g43
(dp1865
g64
Nsg65
Nsg66
Nsg67
Nsg68
Nsg69
Nsg70
Nssg49
(dp1866
g64
Nsg65
Nsg66
Nsg67
Nsg68
Nsg69
Nsg70
Nsssg119
(dp1867
g43
(dp1868
g64
Nsg65
Nsg66
Nsg67
Nsg68
Nsg69
Nsg70
Nssg49
(dp1869
g64
Nsg65
Nsg66
Nsg67
Nsg68
Nsg69
Nsg70
Nsssg123
(dp1870
S'tx B-tx A'
p1871
(dp1872
g64
Nsg65
Nsg66
Nsg67
Nsg68
Nsg69
Nsg70
NssS'tx A-tx B'
p1873
(dp1874
g64
F0.72732292262787213
sg65
F-3.8645547584555633
sg66
F-1.5686159179138455
sg67
F2.0695328854880004
sg68
F0.20833333333333329
sg69
F0.020972258079167114
sg70
Nssssg129
I2
sbsssg130
I00
sg131
I1986
sg132
(lp1875
g54
asg48
I26
sba(ima_dataset
Study
p1876
(dp1877
g29
I01
sg30
VISIS-2
p1878
sg32
(dp1879
g34
F3.5
ssg18
g19
sg35
Nsg36
(dp1880
g7
(dp1881
g12
(ima_dataset
MetaAnalyticUnit
p1882
(dp1883
g22
I00
sg41
(dp1884
g43
(ima_dataset
TreatmentGroup
p1885
(dp1886
g46
(lp1887
F100.0
aF1178.0
asg48
I0
sg30
g43
sbsg49
(ima_dataset
TreatmentGroup
p1888
(dp1889
g46
(lp1890
F147.0
aF1181.0
asg48
I1
sg30
g49
sbssg53
g54
sg58
(dp1891
g60
(dp1892
S'tx B-tx A'
p1893
(dp1894
g64
Nsg65
Nsg66
Nsg67
Nsg68
Nsg69
Nsg70
NssS'tx A-tx B'
p1895
(dp1896
g64
Nsg65
Nsg66
Nsg67
Nsg68
Nsg69
Nsg70
Nsssg73
(dp1897
g43
(dp1898
g64
Nsg65
Nsg66
Nsg67
Nsg68
Nsg69
Nsg70
Nssg49
(dp1899
g64
Nsg65
Nsg66
Nsg67
Nsg68
Nsg69
Nsg70
Nsssg77
(dp1900
g43
(dp1901
g64
Nsg65
Nsg66
Nsg67
Nsg68
Nsg69
Nsg70
Nssg49
(dp1902
g64
Nsg65
Nsg66
Nsg67
Nsg68
Nsg69
Nsg70
Nsssg81
(dp1903
S'tx B-tx A'
p1904
(dp1905
g64
Nsg65
Nsg66
Nsg67
Nsg68
Nsg69
Nsg70
NssS'tx A-tx B'
p1906
(dp1907
g64
Nsg65
Nsg66
Nsg67
Nsg68
Nsg69
Nsg70
Nsssg87
(dp1908
S'tx B-tx A'
p1909
(dp1910
g64
Nsg65
Nsg66
Nsg67
Nsg68
Nsg69
Nsg70
NssS'tx A-tx B'
p1911
(dp1912
g64
Nsg65
Nsg66
Nsg67
Nsg68
Nsg69
Nsg70
Nsssg93
(dp1913
S'tx B-tx A'
p1914
(dp1915
g64
Nsg65
Nsg66
Nsg67
Nsg68
Nsg69
Nsg70
NssS'tx A-tx B'
p1916
(dp1917
g64
Nsg65
Nsg66
Nsg67
Nsg68
Nsg69
Nsg70
Nsssg99
(dp1918
S'tx B-tx A'
p1919
(dp1920
g64
Nsg65
Nsg66
Nsg67
Nsg68
Nsg69
Nsg70
NssS'tx A-tx B'
p1921
(dp1922
g64
Nsg65
Nsg66
Nsg67
Nsg68
Nsg69
Nsg70
Nsssg105
(dp1923
S'tx B-tx A'
p1924
(dp1925
g64
Nsg65
Nsg66
Nsg67
Nsg68
Nsg69
Nsg70
NssS'tx A-tx B'
p1926
(dp1927
g64
Nsg65
Nsg66
Nsg67
Nsg68
Nsg69
Nsg70
Nsssg111
(dp1928
g43
(dp1929
g64
Nsg65
Nsg66
Nsg67
Nsg68
Nsg69
Nsg70
Nssg49
(dp1930
g64
Nsg65
Nsg66
Nsg67
Nsg68
Nsg69
Nsg70
Nsssg115
(dp1931
g43
(dp1932
g64
Nsg65
Nsg66
Nsg67
Nsg68
Nsg69
Nsg70
Nssg49
(dp1933
g64
Nsg65
Nsg66
Nsg67
Nsg68
Nsg69
Nsg70
Nsssg119
(dp1934
g43
(dp1935
g64
Nsg65
Nsg66
Nsg67
Nsg68
Nsg69
Nsg70
Nssg49
(dp1936
g64
Nsg65
Nsg66
Nsg67
Nsg68
Nsg69
Nsg70
Nsssg123
(dp1937
S'tx B-tx A'
p1938
(dp1939
g64
Nsg65
Nsg66
Nsg67
Nsg68
Nsg69
Nsg70
NssS'tx A-tx B'
p1940
(dp1941
g64
F-0.15893209261190938
sg65
F-0.69493810177051696
sg66
F-0.42693509719121314
sg67
F0.85305428569072383
sg68
F0.65250590031931133
sg69
F0.49910534076594082
sg70
Nssssg129
I2
sbsssg130
I00
sg131
I1988
sg132
(lp1942
g54
asg48
I27
sba(ima_dataset
Study
p1943
(dp1944
g29
I01
sg30
VBrunelli
p1945
sg32
(dp1946
g34
F3.5
ssg18
g19
sg35
Nsg36
(dp1947
g7
(dp1948
g12
(ima_dataset
MetaAnalyticUnit
p1949
(dp1950
g22
I00
sg41
(dp1951
g43
(ima_dataset
TreatmentGroup
p1952
(dp1953
g46
(lp1954
F3.0
aF74.0
asg48
I0
sg30
g43
sbsg49
(ima_dataset
TreatmentGroup
p1955
(dp1956
g46
(lp1957
F8.0
aF76.0
asg48
I1
sg30
g49
sbssg53
g54
sg58
(dp1958
g60
(dp1959
S'tx B-tx A'
p1960
(dp1961
g64
Nsg65
Nsg66
Nsg67
Nsg68
Nsg69
Nsg70
NssS'tx A-tx B'
p1962
(dp1963
g64
Nsg65
Nsg66
Nsg67
Nsg68
Nsg69
Nsg70
Nsssg73
(dp1964
g43
(dp1965
g64
Nsg65
Nsg66
Nsg67
Nsg68
Nsg69
Nsg70
Nssg49
(dp1966
g64
Nsg65
Nsg66
Nsg67
Nsg68
Nsg69
Nsg70
Nsssg77
(dp1967
g43
(dp1968
g64
Nsg65
Nsg66
Nsg67
Nsg68
Nsg69
Nsg70
Nssg49
(dp1969
g64
Nsg65
Nsg66
Nsg67
Nsg68
Nsg69
Nsg70
Nsssg81
(dp1970
S'tx B-tx A'
p1971
(dp1972
g64
Nsg65
Nsg66
Nsg67
Nsg68
Nsg69
Nsg70
NssS'tx A-tx B'
p1973
(dp1974
g64
Nsg65
Nsg66
Nsg67
Nsg68
Nsg69
Nsg70
Nsssg87
(dp1975
S'tx B-tx A'
p1976
(dp1977
g64
Nsg65
Nsg66
Nsg67
Nsg68
Nsg69
Nsg70
NssS'tx A-tx B'
p1978
(dp1979
g64
Nsg65
Nsg66
Nsg67
Nsg68
Nsg69
Nsg70
Nsssg93
(dp1980
S'tx B-tx A'
p1981
(dp1982
g64
Nsg65
Nsg66
Nsg67
Nsg68
Nsg69
Nsg70
NssS'tx A-tx B'
p1983
(dp1984
g64
Nsg65
Nsg66
Nsg67
Nsg68
Nsg69
Nsg70
Nsssg99
(dp1985
S'tx B-tx A'
p1986
(dp1987
g64
Nsg65
Nsg66
Nsg67
Nsg68
Nsg69
Nsg70
NssS'tx A-tx B'
p1988
(dp1989
g64
Nsg65
Nsg66
Nsg67
Nsg68
Nsg69
Nsg70
Nsssg105
(dp1990
S'tx B-tx A'
p1991
(dp1992
g64
Nsg65
Nsg66
Nsg67
Nsg68
Nsg69
Nsg70
NssS'tx A-tx B'
p1993
(dp1994
g64
Nsg65
Nsg66
Nsg67
Nsg68
Nsg69
Nsg70
Nsssg111
(dp1995
g43
(dp1996
g64
Nsg65
Nsg66
Nsg67
Nsg68
Nsg69
Nsg70
Nssg49
(dp1997
g64
Nsg65
Nsg66
Nsg67
Nsg68
Nsg69
Nsg70
Nsssg115
(dp1998
g43
(dp1999
g64
Nsg65
Nsg66
Nsg67
Nsg68
Nsg69
Nsg70
Nssg49
(dp2000
g64
Nsg65
Nsg66
Nsg67
Nsg68
Nsg69
Nsg70
Nsssg119
(dp2001
g43
(dp2002
g64
Nsg65
Nsg66
Nsg67
Nsg68
Nsg69
Nsg70
Nssg49
(dp2003
g64
Nsg65
Nsg66
Nsg67
Nsg68
Nsg69
Nsg70
Nsssg123
(dp2004
S'tx B-tx A'
p2005
(dp2006
g64
Nsg65
Nsg66
Nsg67
Nsg68
Nsg69
Nsg70
NssS'tx A-tx B'
p2007
(dp2008
g64
F0.34394072355071814
sg65
F-2.3919435733045873
sg66
F-1.0240014248769347
sg67
F1.4104950238928571
sg68
F0.35915492957746487
sg69
F0.091451767822466432
sg70
Nssssg129
I2
sbsssg130
I00
sg131
I1988
sg132
(lp2009
g54
asg48
I28
sba(ima_dataset
Study
p2010
(dp2011
g29
I01
sg30
VWWIVSK
p2012
sg32
(dp2013
g34
F3.5
ssg18
g19
sg35
Nsg36
(dp2014
g7
(dp2015
g12
(ima_dataset
MetaAnalyticUnit
p2016
(dp2017
g22
I00
sg41
(dp2018
g43
(ima_dataset
TreatmentGroup
p2019
(dp2020
g46
(lp2021
F12.0
aF191.0
asg48
I0
sg30
g43
sbsg49
(ima_dataset
TreatmentGroup
p2022
(dp2023
g46
(lp2024
F17.0
aF177.0
asg48
I1
sg30
g49
sbssg53
g54
sg58
(dp2025
g60
(dp2026
S'tx B-tx A'
p2027
(dp2028
g64
Nsg65
Nsg66
Nsg67
Nsg68
Nsg69
Nsg70
NssS'tx A-tx B'
p2029
(dp2030
g64
Nsg65
Nsg66
Nsg67
Nsg68
Nsg69
Nsg70
Nsssg73
(dp2031
g43
(dp2032
g64
Nsg65
Nsg66
Nsg67
Nsg68
Nsg69
Nsg70
Nssg49
(dp2033
g64
Nsg65
Nsg66
Nsg67
Nsg68
Nsg69
Nsg70
Nsssg77
(dp2034
g43
(dp2035
g64
Nsg65
Nsg66
Nsg67
Nsg68
Nsg69
Nsg70
Nssg49
(dp2036
g64
Nsg65
Nsg66
Nsg67
Nsg68
Nsg69
Nsg70
Nsssg81
(dp2037
S'tx B-tx A'
p2038
(dp2039
g64
Nsg65
Nsg66
Nsg67
Nsg68
Nsg69
Nsg70
NssS'tx A-tx B'
p2040
(dp2041
g64
Nsg65
Nsg66
Nsg67
Nsg68
Nsg69
Nsg70
Nsssg87
(dp2042
S'tx B-tx A'
p2043
(dp2044
g64
Nsg65
Nsg66
Nsg67
Nsg68
Nsg69
Nsg70
NssS'tx A-tx B'
p2045
(dp2046
g64
Nsg65
Nsg66
Nsg67
Nsg68
Nsg69
Nsg70
Nsssg93
(dp2047
S'tx B-tx A'
p2048
(dp2049
g64
Nsg65
Nsg66
Nsg67
Nsg68
Nsg69
Nsg70
NssS'tx A-tx B'
p2050
(dp2051
g64
Nsg65
Nsg66
Nsg67
Nsg68
Nsg69
Nsg70
Nsssg99
(dp2052
S'tx B-tx A'
p2053
(dp2054
g64
Nsg65
Nsg66
Nsg67
Nsg68
Nsg69
Nsg70
NssS'tx A-tx B'
p2055
(dp2056
g64
Nsg65
Nsg66
Nsg67
Nsg68
Nsg69
Nsg70
Nsssg105
(dp2057
S'tx B-tx A'
p2058
(dp2059
g64
Nsg65
Nsg66
Nsg67
Nsg68
Nsg69
Nsg70
NssS'tx A-tx B'
p2060
(dp2061
g64
Nsg65
Nsg66
Nsg67
Nsg68
Nsg69
Nsg70
Nsssg111
(dp2062
g43
(dp2063
g64
Nsg65
Nsg66
Nsg67
Nsg68
Nsg69
Nsg70
Nssg49
(dp2064
g64
Nsg65
Nsg66
Nsg67
Nsg68
Nsg69
Nsg70
Nsssg115
(dp2065
g43
(dp2066
g64
Nsg65
Nsg66
Nsg67
Nsg68
Nsg69
Nsg70
Nssg49
(dp2067
g64
Nsg65
Nsg66
Nsg67
Nsg68
Nsg69
Nsg70
Nsssg119
(dp2068
g43
(dp2069
g64
Nsg65
Nsg66
Nsg67
Nsg68
Nsg69
Nsg70
Nssg49
(dp2070
g64
Nsg65
Nsg66
Nsg67
Nsg68
Nsg69
Nsg70
Nsssg123
(dp2071
S'tx B-tx A'
p2072
(dp2073
g64
Nsg65
Nsg66
Nsg67
Nsg68
Nsg69
Nsg70
NssS'tx A-tx B'
p2074
(dp2075
g64
F0.30861037825175408
sg65
F-1.2296477480020416
sg66
F-0.46051868487514369
sg67
F1.3615317847519925
sg68
F0.63095629313177792
sg69
F0.29239555646151172
sg70
Nssssg129
I2
sbsssg130
I00
sg131
I1988
sg132
(lp2076
g54
asg48
I29
sba(ima_dataset
Study
p2077
(dp2078
g29
I01
sg30
VRaizner
p2079
sg32
(dp2080
g34
F3.5
ssg18
g19
sg35
Nsg36
(dp2081
g7
(dp2082
g12
(ima_dataset
MetaAnalyticUnit
p2083
(dp2084
g22
I00
sg41
(dp2085
g43
(ima_dataset
TreatmentGroup
p2086
(dp2087
g46
(lp2088
F4.0
aF29.0
asg48
I0
sg30
g43
sbsg49
(ima_dataset
TreatmentGroup
p2089
(dp2090
g46
(lp2091
F2.0
aF35.0
asg48
I1
sg30
g49
sbssg53
g54
sg58
(dp2092
g60
(dp2093
S'tx B-tx A'
p2094
(dp2095
g64
Nsg65
Nsg66
Nsg67
Nsg68
Nsg69
Nsg70
NssS'tx A-tx B'
p2096
(dp2097
g64
Nsg65
Nsg66
Nsg67
Nsg68
Nsg69
Nsg70
Nsssg73
(dp2098
g43
(dp2099
g64
Nsg65
Nsg66
Nsg67
Nsg68
Nsg69
Nsg70
Nssg49
(dp2100
g64
Nsg65
Nsg66
Nsg67
Nsg68
Nsg69
Nsg70
Nsssg77
(dp2101
g43
(dp2102
g64
Nsg65
Nsg66
Nsg67
Nsg68
Nsg69
Nsg70
Nssg49
(dp2103
g64
Nsg65
Nsg66
Nsg67
Nsg68
Nsg69
Nsg70
Nsssg81
(dp2104
S'tx B-tx A'
p2105
(dp2106
g64
Nsg65
Nsg66
Nsg67
Nsg68
Nsg69
Nsg70
NssS'tx A-tx B'
p2107
(dp2108
g64
Nsg65
Nsg66
Nsg67
Nsg68
Nsg69
Nsg70
Nsssg87
(dp2109
S'tx B-tx A'
p2110
(dp2111
g64
Nsg65
Nsg66
Nsg67
Nsg68
Nsg69
Nsg70
NssS'tx A-tx B'
p2112
(dp2113
g64
Nsg65
Nsg66
Nsg67
Nsg68
Nsg69
Nsg70
Nsssg93
(dp2114
S'tx B-tx A'
p2115
(dp2116
g64
Nsg65
Nsg66
Nsg67
Nsg68
Nsg69
Nsg70
NssS'tx A-tx B'
p2117
(dp2118
g64
Nsg65
Nsg66
Nsg67
Nsg68
Nsg69
Nsg70
Nsssg99
(dp2119
S'tx B-tx A'
p2120
(dp2121
g64
Nsg65
Nsg66
Nsg67
Nsg68
Nsg69
Nsg70
NssS'tx A-tx B'
p2122
(dp2123
g64
Nsg65
Nsg66
Nsg67
Nsg68
Nsg69
Nsg70
Nsssg105
(dp2124
S'tx B-tx A'
p2125
(dp2126
g64
Nsg65
Nsg66
Nsg67
Nsg68
Nsg69
Nsg70
NssS'tx A-tx B'
p2127
(dp2128
g64
Nsg65
Nsg66
Nsg67
Nsg68
Nsg69
Nsg70
Nsssg111
(dp2129
g43
(dp2130
g64
Nsg65
Nsg66
Nsg67
Nsg68
Nsg69
Nsg70
Nssg49
(dp2131
g64
Nsg65
Nsg66
Nsg67
Nsg68
Nsg69
Nsg70
Nsssg115
(dp2132
g43
(dp2133
g64
Nsg65
Nsg66
Nsg67
Nsg68
Nsg69
Nsg70
Nssg49
(dp2134
g64
Nsg65
Nsg66
Nsg67
Nsg68
Nsg69
Nsg70
Nsssg119
(dp2135
g43
(dp2136
g64
Nsg65
Nsg66
Nsg67
Nsg68
Nsg69
Nsg70
Nssg49
(dp2137
g64
Nsg65
Nsg66
Nsg67
Nsg68
Nsg69
Nsg70
Nsssg123
(dp2138
S'tx B-tx A'
p2139
(dp2140
g64
Nsg65
Nsg66
Nsg67
Nsg68
Nsg69
Nsg70
NssS'tx A-tx B'
p2141
(dp2142
g64
F2.7459297026972154
sg65
F-0.80437186838076591
sg66
F0.97077891715822462
sg67
F15.579091124438007
sg68
F2.6399999999999997
sg69
F0.44736884484019718
sg70
Nssssg129
I2
sbsssg130
I00
sg131
I1985
sg132
(lp2143
g54
asg48
I30
sba(ima_dataset
Study
p2144
(dp2145
g29
I01
sg30
VBett
p2146
sg32
(dp2147
g34
F3.5
ssg18
g19
sg35
Nsg36
(dp2148
g7
(dp2149
g12
(ima_dataset
MetaAnalyticUnit
p2150
(dp2151
g22
I00
sg41
(dp2152
g43
(ima_dataset
TreatmentGroup
p2153
(dp2154
g46
(lp2155
F1.0
aF34.0
asg48
I0
sg30
g43
sbsg49
(ima_dataset
TreatmentGroup
p2156
(dp2157
g46
(lp2158
F5.0
aF35.0
asg48
I1
sg30
g49
sbssg53
g54
sg58
(dp2159
g60
(dp2160
S'tx B-tx A'
p2161
(dp2162
g64
Nsg65
Nsg66
Nsg67
Nsg68
Nsg69
Nsg70
NssS'tx A-tx B'
p2163
(dp2164
g64
Nsg65
Nsg66
Nsg67
Nsg68
Nsg69
Nsg70
Nsssg73
(dp2165
g43
(dp2166
g64
Nsg65
Nsg66
Nsg67
Nsg68
Nsg69
Nsg70
Nssg49
(dp2167
g64
Nsg65
Nsg66
Nsg67
Nsg68
Nsg69
Nsg70
Nsssg77
(dp2168
g43
(dp2169
g64
Nsg65
Nsg66
Nsg67
Nsg68
Nsg69
Nsg70
Nssg49
(dp2170
g64
Nsg65
Nsg66
Nsg67
Nsg68
Nsg69
Nsg70
Nsssg81
(dp2171
S'tx B-tx A'
p2172
(dp2173
g64
Nsg65
Nsg66
Nsg67
Nsg68
Nsg69
Nsg70
NssS'tx A-tx B'
p2174
(dp2175
g64
Nsg65
Nsg66
Nsg67
Nsg68
Nsg69
Nsg70
Nsssg87
(dp2176
S'tx B-tx A'
p2177
(dp2178
g64
Nsg65
Nsg66
Nsg67
Nsg68
Nsg69
Nsg70
NssS'tx A-tx B'
p2179
(dp2180
g64
Nsg65
Nsg66
Nsg67
Nsg68
Nsg69
Nsg70
Nsssg93
(dp2181
S'tx B-tx A'
p2182
(dp2183
g64
Nsg65
Nsg66
Nsg67
Nsg68
Nsg69
Nsg70
NssS'tx A-tx B'
p2184
(dp2185
g64
Nsg65
Nsg66
Nsg67
Nsg68
Nsg69
Nsg70
Nsssg99
(dp2186
S'tx B-tx A'
p2187
(dp2188
g64
Nsg65
Nsg66
Nsg67
Nsg68
Nsg69
Nsg70
NssS'tx A-tx B'
p2189
(dp2190
g64
Nsg65
Nsg66
Nsg67
Nsg68
Nsg69
Nsg70
Nsssg105
(dp2191
S'tx B-tx A'
p2192
(dp2193
g64
Nsg65
Nsg66
Nsg67
Nsg68
Nsg69
Nsg70
NssS'tx A-tx B'
p2194
(dp2195
g64
Nsg65
Nsg66
Nsg67
Nsg68
Nsg69
Nsg70
Nsssg111
(dp2196
g43
(dp2197
g64
Nsg65
Nsg66
Nsg67
Nsg68
Nsg69
Nsg70
Nssg49
(dp2198
g64
Nsg65
Nsg66
Nsg67
Nsg68
Nsg69
Nsg70
Nsssg115
(dp2199
g43
(dp2200
g64
Nsg65
Nsg66
Nsg67
Nsg68
Nsg69
Nsg70
Nssg49
(dp2201
g64
Nsg65
Nsg66
Nsg67
Nsg68
Nsg69
Nsg70
Nsssg119
(dp2202
g43
(dp2203
g64
Nsg65
Nsg66
Nsg67
Nsg68
Nsg69
Nsg70
Nssg49
(dp2204
g64
Nsg65
Nsg66
Nsg67
Nsg68
Nsg69
Nsg70
Nsssg123
(dp2205
S'tx B-tx A'
p2206
(dp2207
g64
Nsg65
Nsg66
Nsg67
Nsg68
Nsg69
Nsg70
NssS'tx A-tx B'
p2208
(dp2209
g64
F0.4984784179599151
sg65
F-3.9079746024367656
sg66
F-1.7047480922384253
sg67
F1.6462145136274347
sg68
F0.18181818181818182
sg69
F0.020081132176891347
sg70
Nssssg129
I2
sbsssg130
I00
sg131
I1973
sg132
(lp2210
g54
asg48
I31
sba(ima_dataset
Study
p2211
(dp2212
g29
I01
sg30
VTopol
p2213
sg32
(dp2214
g34
F3.6000000000000001
ssg18
g19
sg35
Nsg36
(dp2215
g7
(dp2216
g12
(ima_dataset
MetaAnalyticUnit
p2217
(dp2218
g22
I00
sg41
(dp2219
g43
(ima_dataset
TreatmentGroup
p2220
(dp2221
g46
(lp2222
F3.0
aF75.0
asg48
I0
sg30
g43
sbsg49
(ima_dataset
TreatmentGroup
p2223
(dp2224
g46
(lp2225
F2.0
aF25.0
asg48
I1
sg30
g49
sbssg53
g54
sg58
(dp2226
g60
(dp2227
S'tx B-tx A'
p2228
(dp2229
g64
Nsg65
Nsg66
Nsg67
Nsg68
Nsg69
Nsg70
NssS'tx A-tx B'
p2230
(dp2231
g64
Nsg65
Nsg66
Nsg67
Nsg68
Nsg69
Nsg70
Nsssg73
(dp2232
g43
(dp2233
g64
Nsg65
Nsg66
Nsg67
Nsg68
Nsg69
Nsg70
Nssg49
(dp2234
g64
Nsg65
Nsg66
Nsg67
Nsg68
Nsg69
Nsg70
Nsssg77
(dp2235
g43
(dp2236
g64
Nsg65
Nsg66
Nsg67
Nsg68
Nsg69
Nsg70
Nssg49
(dp2237
g64
Nsg65
Nsg66
Nsg67
Nsg68
Nsg69
Nsg70
Nsssg81
(dp2238
S'tx B-tx A'
p2239
(dp2240
g64
Nsg65
Nsg66
Nsg67
Nsg68
Nsg69
Nsg70
NssS'tx A-tx B'
p2241
(dp2242
g64
Nsg65
Nsg66
Nsg67
Nsg68
Nsg69
Nsg70
Nsssg87
(dp2243
S'tx B-tx A'
p2244
(dp2245
g64
Nsg65
Nsg66
Nsg67
Nsg68
Nsg69
Nsg70
NssS'tx A-tx B'
p2246
(dp2247
g64
Nsg65
Nsg66
Nsg67
Nsg68
Nsg69
Nsg70
Nsssg93
(dp2248
S'tx B-tx A'
p2249
(dp2250
g64
Nsg65
Nsg66
Nsg67
Nsg68
Nsg69
Nsg70
NssS'tx A-tx B'
p2251
(dp2252
g64
Nsg65
Nsg66
Nsg67
Nsg68
Nsg69
Nsg70
Nsssg99
(dp2253
S'tx B-tx A'
p2254
(dp2255
g64
Nsg65
Nsg66
Nsg67
Nsg68
Nsg69
Nsg70
NssS'tx A-tx B'
p2256
(dp2257
g64
Nsg65
Nsg66
Nsg67
Nsg68
Nsg69
Nsg70
Nsssg105
(dp2258
S'tx B-tx A'
p2259
(dp2260
g64
Nsg65
Nsg66
Nsg67
Nsg68
Nsg69
Nsg70
NssS'tx A-tx B'
p2261
(dp2262
g64
Nsg65
Nsg66
Nsg67
Nsg68
Nsg69
Nsg70
Nsssg111
(dp2263
g43
(dp2264
g64
Nsg65
Nsg66
Nsg67
Nsg68
Nsg69
Nsg70
Nssg49
(dp2265
g64
Nsg65
Nsg66
Nsg67
Nsg68
Nsg69
Nsg70
Nsssg115
(dp2266
g43
(dp2267
g64
Nsg65
Nsg66
Nsg67
Nsg68
Nsg69
Nsg70
Nssg49
(dp2268
g64
Nsg65
Nsg66
Nsg67
Nsg68
Nsg69
Nsg70
Nsssg119
(dp2269
g43
(dp2270
g64
Nsg65
Nsg66
Nsg67
Nsg68
Nsg69
Nsg70
Nssg49
(dp2271
g64
Nsg65
Nsg66
Nsg67
Nsg68
Nsg69
Nsg70
Nsssg123
(dp2272
S'tx B-tx A'
p2273
(dp2274
g64
Nsg65
Nsg66
Nsg67
Nsg68
Nsg69
Nsg70
NssS'tx A-tx B'
p2275
(dp2276
g64
F1.1140470338778081
sg65
F-2.5854606238352904
sg66
F-0.73570679497874103
sg67
F3.0466634283050253
sg68
F0.47916666666666674
sg69
F0.075361358367103934
sg70
Nssssg129
I2
sbsssg130
I00
sg131
I1987
sg132
(lp2277
g54
asg48
I32
sba(ima_dataset
Study
p2278
(dp2279
g29
I01
sg30
VLeiboff
p2280
sg32
(dp2281
g34
F4.0
ssg18
g19
sg35
Nsg36
(dp2282
g7
(dp2283
g12
(ima_dataset
MetaAnalyticUnit
p2284
(dp2285
g22
I00
sg41
(dp2286
g43
(ima_dataset
TreatmentGroup
p2287
(dp2288
g46
(lp2289
F4.0
aF22.0
asg48
I0
sg30
g43
sbsg49
(ima_dataset
TreatmentGroup
p2290
(dp2291
g46
(lp2292
F2.0
aF18.0
asg48
I1
sg30
g49
sbssg53
g54
sg58
(dp2293
g60
(dp2294
S'tx B-tx A'
p2295
(dp2296
g64
Nsg65
Nsg66
Nsg67
Nsg68
Nsg69
Nsg70
NssS'tx A-tx B'
p2297
(dp2298
g64
Nsg65
Nsg66
Nsg67
Nsg68
Nsg69
Nsg70
Nsssg73
(dp2299
g43
(dp2300
g64
Nsg65
Nsg66
Nsg67
Nsg68
Nsg69
Nsg70
Nssg49
(dp2301
g64
Nsg65
Nsg66
Nsg67
Nsg68
Nsg69
Nsg70
Nsssg77
(dp2302
g43
(dp2303
g64
Nsg65
Nsg66
Nsg67
Nsg68
Nsg69
Nsg70
Nssg49
(dp2304
g64
Nsg65
Nsg66
Nsg67
Nsg68
Nsg69
Nsg70
Nsssg81
(dp2305
S'tx B-tx A'
p2306
(dp2307
g64
Nsg65
Nsg66
Nsg67
Nsg68
Nsg69
Nsg70
NssS'tx A-tx B'
p2308
(dp2309
g64
Nsg65
Nsg66
Nsg67
Nsg68
Nsg69
Nsg70
Nsssg87
(dp2310
S'tx B-tx A'
p2311
(dp2312
g64
Nsg65
Nsg66
Nsg67
Nsg68
Nsg69
Nsg70
NssS'tx A-tx B'
p2313
(dp2314
g64
Nsg65
Nsg66
Nsg67
Nsg68
Nsg69
Nsg70
Nsssg93
(dp2315
S'tx B-tx A'
p2316
(dp2317
g64
Nsg65
Nsg66
Nsg67
Nsg68
Nsg69
Nsg70
NssS'tx A-tx B'
p2318
(dp2319
g64
Nsg65
Nsg66
Nsg67
Nsg68
Nsg69
Nsg70
Nsssg99
(dp2320
S'tx B-tx A'
p2321
(dp2322
g64
Nsg65
Nsg66
Nsg67
Nsg68
Nsg69
Nsg70
NssS'tx A-tx B'
p2323
(dp2324
g64
Nsg65
Nsg66
Nsg67
Nsg68
Nsg69
Nsg70
Nsssg105
(dp2325
S'tx B-tx A'
p2326
(dp2327
g64
Nsg65
Nsg66
Nsg67
Nsg68
Nsg69
Nsg70
NssS'tx A-tx B'
p2328
(dp2329
g64
Nsg65
Nsg66
Nsg67
Nsg68
Nsg69
Nsg70
Nsssg111
(dp2330
g43
(dp2331
g64
Nsg65
Nsg66
Nsg67
Nsg68
Nsg69
Nsg70
Nssg49
(dp2332
g64
Nsg65
Nsg66
Nsg67
Nsg68
Nsg69
Nsg70
Nsssg115
(dp2333
g43
(dp2334
g64
Nsg65
Nsg66
Nsg67
Nsg68
Nsg69
Nsg70
Nssg49
(dp2335
g64
Nsg65
Nsg66
Nsg67
Nsg68
Nsg69
Nsg70
Nsssg119
(dp2336
g43
(dp2337
g64
Nsg65
Nsg66
Nsg67
Nsg68
Nsg69
Nsg70
Nssg49
(dp2338
g64
Nsg65
Nsg66
Nsg67
Nsg68
Nsg69
Nsg70
Nsssg123
(dp2339
S'tx B-tx A'
p2340
(dp2341
g64
Nsg65
Nsg66
Nsg67
Nsg68
Nsg69
Nsg70
NssS'tx A-tx B'
p2342
(dp2343
g64
F2.4014527711047728
sg65
F-1.2507244812976492
sg66
F0.5753641449035618
sg67
F11.039202170854093
sg68
F1.7777777777777777
sg69
F0.28629730466436132
sg70
Nssssg129
I2
sbsssg130
I00
sg131
I1984
sg132
(lp2344
g54
asg48
I33
sba(ima_dataset
Study
p2345
(dp2346
g29
I01
sg30
VECSG-2
p2347
sg32
(dp2348
g34
F4.0
ssg18
g19
sg35
Nsg36
(dp2349
g7
(dp2350
g12
(ima_dataset
MetaAnalyticUnit
p2351
(dp2352
g22
I00
sg41
(dp2353
g43
(ima_dataset
TreatmentGroup
p2354
(dp2355
g46
(lp2356
F8.0
aF176.0
asg48
I0
sg30
g43
sbsg49
(ima_dataset
TreatmentGroup
p2357
(dp2358
g46
(lp2359
F8.0
aF159.0
asg48
I1
sg30
g49
sbssg53
g54
sg58
(dp2360
g60
(dp2361
S'tx B-tx A'
p2362
(dp2363
g64
Nsg65
Nsg66
Nsg67
Nsg68
Nsg69
Nsg70
NssS'tx A-tx B'
p2364
(dp2365
g64
Nsg65
Nsg66
Nsg67
Nsg68
Nsg69
Nsg70
Nsssg73
(dp2366
g43
(dp2367
g64
Nsg65
Nsg66
Nsg67
Nsg68
Nsg69
Nsg70
Nssg49
(dp2368
g64
Nsg65
Nsg66
Nsg67
Nsg68
Nsg69
Nsg70
Nsssg77
(dp2369
g43
(dp2370
g64
Nsg65
Nsg66
Nsg67
Nsg68
Nsg69
Nsg70
Nssg49
(dp2371
g64
Nsg65
Nsg66
Nsg67
Nsg68
Nsg69
Nsg70
Nsssg81
(dp2372
S'tx B-tx A'
p2373
(dp2374
g64
Nsg65
Nsg66
Nsg67
Nsg68
Nsg69
Nsg70
NssS'tx A-tx B'
p2375
(dp2376
g64
Nsg65
Nsg66
Nsg67
Nsg68
Nsg69
Nsg70
Nsssg87
(dp2377
S'tx B-tx A'
p2378
(dp2379
g64
Nsg65
Nsg66
Nsg67
Nsg68
Nsg69
Nsg70
NssS'tx A-tx B'
p2380
(dp2381
g64
Nsg65
Nsg66
Nsg67
Nsg68
Nsg69
Nsg70
Nsssg93
(dp2382
S'tx B-tx A'
p2383
(dp2384
g64
Nsg65
Nsg66
Nsg67
Nsg68
Nsg69
Nsg70
NssS'tx A-tx B'
p2385
(dp2386
g64
Nsg65
Nsg66
Nsg67
Nsg68
Nsg69
Nsg70
Nsssg99
(dp2387
S'tx B-tx A'
p2388
(dp2389
g64
Nsg65
Nsg66
Nsg67
Nsg68
Nsg69
Nsg70
NssS'tx A-tx B'
p2390
(dp2391
g64
Nsg65
Nsg66
Nsg67
Nsg68
Nsg69
Nsg70
Nsssg105
(dp2392
S'tx B-tx A'
p2393
(dp2394
g64
Nsg65
Nsg66
Nsg67
Nsg68
Nsg69
Nsg70
NssS'tx A-tx B'
p2395
(dp2396
g64
Nsg65
Nsg66
Nsg67
Nsg68
Nsg69
Nsg70
Nsssg111
(dp2397
g43
(dp2398
g64
Nsg65
Nsg66
Nsg67
Nsg68
Nsg69
Nsg70
Nssg49
(dp2399
g64
Nsg65
Nsg66
Nsg67
Nsg68
Nsg69
Nsg70
Nsssg115
(dp2400
g43
(dp2401
g64
Nsg65
Nsg66
Nsg67
Nsg68
Nsg69
Nsg70
Nssg49
(dp2402
g64
Nsg65
Nsg66
Nsg67
Nsg68
Nsg69
Nsg70
Nsssg119
(dp2403
g43
(dp2404
g64
Nsg65
Nsg66
Nsg67
Nsg68
Nsg69
Nsg70
Nssg49
(dp2405
g64
Nsg65
Nsg66
Nsg67
Nsg68
Nsg69
Nsg70
Nsssg123
(dp2406
S'tx B-tx A'
p2407
(dp2408
g64
Nsg65
Nsg66
Nsg67
Nsg68
Nsg69
Nsg70
NssS'tx A-tx B'
p2409
(dp2410
g64
F0.89764182846267082
sg65
F-1.1110101136393398
sg66
F-0.10668414258833447
sg67
F2.4538097786277451
sg68
F0.89880952380952395
sg69
F0.32922623714642035
sg70
Nssssg129
I2
sbsssg130
I00
sg131
I1988
sg132
(lp2411
g54
asg48
I34
sba(ima_dataset
Study
p2412
(dp2413
g29
I01
sg30
VASSET
p2414
sg32
(dp2415
g34
F4.0999999999999996
ssg18
g19
sg35
Nsg36
(dp2416
g7
(dp2417
g12
(ima_dataset
MetaAnalyticUnit
p2418
(dp2419
g22
I00
sg41
(dp2420
g43
(ima_dataset
TreatmentGroup
p2421
(dp2422
g46
(lp2423
F99.0
aF1504.0
asg48
I0
sg30
g43
sbsg49
(ima_dataset
TreatmentGroup
p2424
(dp2425
g46
(lp2426
F129.0
aF1488.0
asg48
I1
sg30
g49
sbssg53
g54
sg58
(dp2427
g60
(dp2428
S'tx B-tx A'
p2429
(dp2430
g64
Nsg65
Nsg66
Nsg67
Nsg68
Nsg69
Nsg70
NssS'tx A-tx B'
p2431
(dp2432
g64
Nsg65
Nsg66
Nsg67
Nsg68
Nsg69
Nsg70
Nsssg73
(dp2433
g43
(dp2434
g64
Nsg65
Nsg66
Nsg67
Nsg68
Nsg69
Nsg70
Nssg49
(dp2435
g64
Nsg65
Nsg66
Nsg67
Nsg68
Nsg69
Nsg70
Nsssg77
(dp2436
g43
(dp2437
g64
Nsg65
Nsg66
Nsg67
Nsg68
Nsg69
Nsg70
Nssg49
(dp2438
g64
Nsg65
Nsg66
Nsg67
Nsg68
Nsg69
Nsg70
Nsssg81
(dp2439
S'tx B-tx A'
p2440
(dp2441
g64
Nsg65
Nsg66
Nsg67
Nsg68
Nsg69
Nsg70
NssS'tx A-tx B'
p2442
(dp2443
g64
Nsg65
Nsg66
Nsg67
Nsg68
Nsg69
Nsg70
Nsssg87
(dp2444
S'tx B-tx A'
p2445
(dp2446
g64
Nsg65
Nsg66
Nsg67
Nsg68
Nsg69
Nsg70
NssS'tx A-tx B'
p2447
(dp2448
g64
Nsg65
Nsg66
Nsg67
Nsg68
Nsg69
Nsg70
Nsssg93
(dp2449
S'tx B-tx A'
p2450
(dp2451
g64
Nsg65
Nsg66
Nsg67
Nsg68
Nsg69
Nsg70
NssS'tx A-tx B'
p2452
(dp2453
g64
Nsg65
Nsg66
Nsg67
Nsg68
Nsg69
Nsg70
Nsssg99
(dp2454
S'tx B-tx A'
p2455
(dp2456
g64
Nsg65
Nsg66
Nsg67
Nsg68
Nsg69
Nsg70
NssS'tx A-tx B'
p2457
(dp2458
g64
Nsg65
Nsg66
Nsg67
Nsg68
Nsg69
Nsg70
Nsssg105
(dp2459
S'tx B-tx A'
p2460
(dp2461
g64
Nsg65
Nsg66
Nsg67
Nsg68
Nsg69
Nsg70
NssS'tx A-tx B'
p2462
(dp2463
g64
Nsg65
Nsg66
Nsg67
Nsg68
Nsg69
Nsg70
Nsssg111
(dp2464
g43
(dp2465
g64
Nsg65
Nsg66
Nsg67
Nsg68
Nsg69
Nsg70
Nssg49
(dp2466
g64
Nsg65
Nsg66
Nsg67
Nsg68
Nsg69
Nsg70
Nsssg115
(dp2467
g43
(dp2468
g64
Nsg65
Nsg66
Nsg67
Nsg68
Nsg69
Nsg70
Nssg49
(dp2469
g64
Nsg65
Nsg66
Nsg67
Nsg68
Nsg69
Nsg70
Nsssg119
(dp2470
g43
(dp2471
g64
Nsg65
Nsg66
Nsg67
Nsg68
Nsg69
Nsg70
Nssg49
(dp2472
g64
Nsg65
Nsg66
Nsg67
Nsg68
Nsg69
Nsg70
Nsssg123
(dp2473
S'tx B-tx A'
p2474
(dp2475
g64
Nsg65
Nsg66
Nsg67
Nsg68
Nsg69
Nsg70
NssS'tx A-tx B'
p2476
(dp2477
g64
F-0.025690105395089036
sg65
F-0.57027133829248022
sg66
F-0.29798072184378466
sg67
F0.97463707758620022
sg68
F0.74231565008689893
sg69
F0.56537201080901844
sg70
Nssssg129
I2
sbsssg130
I00
sg131
I1988
sg132
(lp2478
g54
asg48
I35
sba(ima_dataset
Study
p2479
(dp2480
g29
I01
sg30
VRentrop
p2481
sg32
(dp2482
g34
F4.0999999999999996
ssg18
g19
sg35
Nsg36
(dp2483
g7
(dp2484
g12
(ima_dataset
MetaAnalyticUnit
p2485
(dp2486
g22
I00
sg41
(dp2487
g43
(ima_dataset
TreatmentGroup
p2488
(dp2489
g46
(lp2490
F13.0
aF63.0
asg48
I0
sg30
g43
sbsg49
(ima_dataset
TreatmentGroup
p2491
(dp2492
g46
(lp2493
F6.0
aF61.0
asg48
I1
sg30
g49
sbssg53
g54
sg58
(dp2494
g60
(dp2495
S'tx B-tx A'
p2496
(dp2497
g64
Nsg65
Nsg66
Nsg67
Nsg68
Nsg69
Nsg70
NssS'tx A-tx B'
p2498
(dp2499
g64
Nsg65
Nsg66
Nsg67
Nsg68
Nsg69
Nsg70
Nsssg73
(dp2500
g43
(dp2501
g64
Nsg65
Nsg66
Nsg67
Nsg68
Nsg69
Nsg70
Nssg49
(dp2502
g64
Nsg65
Nsg66
Nsg67
Nsg68
Nsg69
Nsg70
Nsssg77
(dp2503
g43
(dp2504
g64
Nsg65
Nsg66
Nsg67
Nsg68
Nsg69
Nsg70
Nssg49
(dp2505
g64
Nsg65
Nsg66
Nsg67
Nsg68
Nsg69
Nsg70
Nsssg81
(dp2506
S'tx B-tx A'
p2507
(dp2508
g64
Nsg65
Nsg66
Nsg67
Nsg68
Nsg69
Nsg70
NssS'tx A-tx B'
p2509
(dp2510
g64
Nsg65
Nsg66
Nsg67
Nsg68
Nsg69
Nsg70
Nsssg87
(dp2511
S'tx B-tx A'
p2512
(dp2513
g64
Nsg65
Nsg66
Nsg67
Nsg68
Nsg69
Nsg70
NssS'tx A-tx B'
p2514
(dp2515
g64
Nsg65
Nsg66
Nsg67
Nsg68
Nsg69
Nsg70
Nsssg93
(dp2516
S'tx B-tx A'
p2517
(dp2518
g64
Nsg65
Nsg66
Nsg67
Nsg68
Nsg69
Nsg70
NssS'tx A-tx B'
p2519
(dp2520
g64
Nsg65
Nsg66
Nsg67
Nsg68
Nsg69
Nsg70
Nsssg99
(dp2521
S'tx B-tx A'
p2522
(dp2523
g64
Nsg65
Nsg66
Nsg67
Nsg68
Nsg69
Nsg70
NssS'tx A-tx B'
p2524
(dp2525
g64
Nsg65
Nsg66
Nsg67
Nsg68
Nsg69
Nsg70
Nsssg105
(dp2526
S'tx B-tx A'
p2527
(dp2528
g64
Nsg65
Nsg66
Nsg67
Nsg68
Nsg69
Nsg70
NssS'tx A-tx B'
p2529
(dp2530
g64
Nsg65
Nsg66
Nsg67
Nsg68
Nsg69
Nsg70
Nsssg111
(dp2531
g43
(dp2532
g64
Nsg65
Nsg66
Nsg67
Nsg68
Nsg69
Nsg70
Nssg49
(dp2533
g64
Nsg65
Nsg66
Nsg67
Nsg68
Nsg69
Nsg70
Nsssg115
(dp2534
g43
(dp2535
g64
Nsg65
Nsg66
Nsg67
Nsg68
Nsg69
Nsg70
Nssg49
(dp2536
g64
Nsg65
Nsg66
Nsg67
Nsg68
Nsg69
Nsg70
Nsssg119
(dp2537
g43
(dp2538
g64
Nsg65
Nsg66
Nsg67
Nsg68
Nsg69
Nsg70
Nssg49
(dp2539
g64
Nsg65
Nsg66
Nsg67
Nsg68
Nsg69
Nsg70
Nsssg123
(dp2540
S'tx B-tx A'
p2541
(dp2542
g64
Nsg65
Nsg66
Nsg67
Nsg68
Nsg69
Nsg70
NssS'tx A-tx B'
p2543
(dp2544
g64
F1.9088912691675184
sg65
F-0.17189113309190573
sg66
F0.86850006803780633
sg67
F6.7456055899644829
sg68
F2.3833333333333329
sg69
F0.84207084182751368
sg70
Nssssg129
I2
sbsssg130
I00
sg131
I1984
sg132
(lp2545
g54
asg48
I36
sba(ima_dataset
Study
p2546
(dp2547
g29
I01
sg30
VECSG-1
p2548
sg32
(dp2549
g34
F4.5
ssg18
g19
sg35
Nsg36
(dp2550
g7
(dp2551
g12
(ima_dataset
MetaAnalyticUnit
p2552
(dp2553
g22
I00
sg41
(dp2554
g43
(ima_dataset
TreatmentGroup
p2555
(dp2556
g46
(lp2557
F9.0
aF49.0
asg48
I0
sg30
g43
sbsg49
(ima_dataset
TreatmentGroup
p2558
(dp2559
g46
(lp2560
F14.0
aF48.0
asg48
I1
sg30
g49
sbssg53
g54
sg58
(dp2561
g60
(dp2562
S'tx B-tx A'
p2563
(dp2564
g64
Nsg65
Nsg66
Nsg67
Nsg68
Nsg69
Nsg70
NssS'tx A-tx B'
p2565
(dp2566
g64
Nsg65
Nsg66
Nsg67
Nsg68
Nsg69
Nsg70
Nsssg73
(dp2567
g43
(dp2568
g64
Nsg65
Nsg66
Nsg67
Nsg68
Nsg69
Nsg70
Nssg49
(dp2569
g64
Nsg65
Nsg66
Nsg67
Nsg68
Nsg69
Nsg70
Nsssg77
(dp2570
g43
(dp2571
g64
Nsg65
Nsg66
Nsg67
Nsg68
Nsg69
Nsg70
Nssg49
(dp2572
g64
Nsg65
Nsg66
Nsg67
Nsg68
Nsg69
Nsg70
Nsssg81
(dp2573
S'tx B-tx A'
p2574
(dp2575
g64
Nsg65
Nsg66
Nsg67
Nsg68
Nsg69
Nsg70
NssS'tx A-tx B'
p2576
(dp2577
g64
Nsg65
Nsg66
Nsg67
Nsg68
Nsg69
Nsg70
Nsssg87
(dp2578
S'tx B-tx A'
p2579
(dp2580
g64
Nsg65
Nsg66
Nsg67
Nsg68
Nsg69
Nsg70
NssS'tx A-tx B'
p2581
(dp2582
g64
Nsg65
Nsg66
Nsg67
Nsg68
Nsg69
Nsg70
Nsssg93
(dp2583
S'tx B-tx A'
p2584
(dp2585
g64
Nsg65
Nsg66
Nsg67
Nsg68
Nsg69
Nsg70
NssS'tx A-tx B'
p2586
(dp2587
g64
Nsg65
Nsg66
Nsg67
Nsg68
Nsg69
Nsg70
Nsssg99
(dp2588
S'tx B-tx A'
p2589
(dp2590
g64
Nsg65
Nsg66
Nsg67
Nsg68
Nsg69
Nsg70
NssS'tx A-tx B'
p2591
(dp2592
g64
Nsg65
Nsg66
Nsg67
Nsg68
Nsg69
Nsg70
Nsssg105
(dp2593
S'tx B-tx A'
p2594
(dp2595
g64
Nsg65
Nsg66
Nsg67
Nsg68
Nsg69
Nsg70
NssS'tx A-tx B'
p2596
(dp2597
g64
Nsg65
Nsg66
Nsg67
Nsg68
Nsg69
Nsg70
Nsssg111
(dp2598
g43
(dp2599
g64
Nsg65
Nsg66
Nsg67
Nsg68
Nsg69
Nsg70
Nssg49
(dp2600
g64
Nsg65
Nsg66
Nsg67
Nsg68
Nsg69
Nsg70
Nsssg115
(dp2601
g43
(dp2602
g64
Nsg65
Nsg66
Nsg67
Nsg68
Nsg69
Nsg70
Nssg49
(dp2603
g64
Nsg65
Nsg66
Nsg67
Nsg68
Nsg69
Nsg70
Nsssg119
(dp2604
g43
(dp2605
g64
Nsg65
Nsg66
Nsg67
Nsg68
Nsg69
Nsg70
Nssg49
(dp2606
g64
Nsg65
Nsg66
Nsg67
Nsg68
Nsg69
Nsg70
Nsssg123
(dp2607
S'tx B-tx A'
p2608
(dp2609
g64
Nsg65
Nsg66
Nsg67
Nsg68
Nsg69
Nsg70
NssS'tx A-tx B'
p2610
(dp2611
g64
F0.34971290046996073
sg65
F-1.5584162640235895
sg66
F-0.60435168177681431
sg67
F1.4186601934454959
sg68
F0.54642857142857137
sg69
F0.21046913492955541
sg70
Nssssg129
I2
sbsssg130
I00
sg131
I1979
sg132
(lp2612
g54
asg48
I37
sba(ima_dataset
Study
p2613
(dp2614
g29
I01
sg30
VEWP
p2615
sg32
(dp2616
g34
F4.5
ssg18
g19
sg35
Nsg36
(dp2617
g7
(dp2618
g12
(ima_dataset
MetaAnalyticUnit
p2619
(dp2620
g22
I00
sg41
(dp2621
g43
(ima_dataset
TreatmentGroup
p2622
(dp2623
g46
(lp2624
F20.0
aF99.0
asg48
I0
sg30
g43
sbsg49
(ima_dataset
TreatmentGroup
p2625
(dp2626
g46
(lp2627
F26.0
aF95.0
asg48
I1
sg30
g49
sbssg53
g54
sg58
(dp2628
g60
(dp2629
S'tx B-tx A'
p2630
(dp2631
g64
Nsg65
Nsg66
Nsg67
Nsg68
Nsg69
Nsg70
NssS'tx A-tx B'
p2632
(dp2633
g64
Nsg65
Nsg66
Nsg67
Nsg68
Nsg69
Nsg70
Nsssg73
(dp2634
g43
(dp2635
g64
Nsg65
Nsg66
Nsg67
Nsg68
Nsg69
Nsg70
Nssg49
(dp2636
g64
Nsg65
Nsg66
Nsg67
Nsg68
Nsg69
Nsg70
Nsssg77
(dp2637
g43
(dp2638
g64
Nsg65
Nsg66
Nsg67
Nsg68
Nsg69
Nsg70
Nssg49
(dp2639
g64
Nsg65
Nsg66
Nsg67
Nsg68
Nsg69
Nsg70
Nsssg81
(dp2640
S'tx B-tx A'
p2641
(dp2642
g64
Nsg65
Nsg66
Nsg67
Nsg68
Nsg69
Nsg70
NssS'tx A-tx B'
p2643
(dp2644
g64
Nsg65
Nsg66
Nsg67
Nsg68
Nsg69
Nsg70
Nsssg87
(dp2645
S'tx B-tx A'
p2646
(dp2647
g64
Nsg65
Nsg66
Nsg67
Nsg68
Nsg69
Nsg70
NssS'tx A-tx B'
p2648
(dp2649
g64
Nsg65
Nsg66
Nsg67
Nsg68
Nsg69
Nsg70
Nsssg93
(dp2650
S'tx B-tx A'
p2651
(dp2652
g64
Nsg65
Nsg66
Nsg67
Nsg68
Nsg69
Nsg70
NssS'tx A-tx B'
p2653
(dp2654
g64
Nsg65
Nsg66
Nsg67
Nsg68
Nsg69
Nsg70
Nsssg99
(dp2655
S'tx B-tx A'
p2656
(dp2657
g64
Nsg65
Nsg66
Nsg67
Nsg68
Nsg69
Nsg70
NssS'tx A-tx B'
p2658
(dp2659
g64
Nsg65
Nsg66
Nsg67
Nsg68
Nsg69
Nsg70
Nsssg105
(dp2660
S'tx B-tx A'
p2661
(dp2662
g64
Nsg65
Nsg66
Nsg67
Nsg68
Nsg69
Nsg70
NssS'tx A-tx B'
p2663
(dp2664
g64
Nsg65
Nsg66
Nsg67
Nsg68
Nsg69
Nsg70
Nsssg111
(dp2665
g43
(dp2666
g64
Nsg65
Nsg66
Nsg67
Nsg68
Nsg69
Nsg70
Nssg49
(dp2667
g64
Nsg65
Nsg66
Nsg67
Nsg68
Nsg69
Nsg70
Nsssg115
(dp2668
g43
(dp2669
g64
Nsg65
Nsg66
Nsg67
Nsg68
Nsg69
Nsg70
Nssg49
(dp2670
g64
Nsg65
Nsg66
Nsg67
Nsg68
Nsg69
Nsg70
Nsssg119
(dp2671
g43
(dp2672
g64
Nsg65
Nsg66
Nsg67
Nsg68
Nsg69
Nsg70
Nssg49
(dp2673
g64
Nsg65
Nsg66
Nsg67
Nsg68
Nsg69
Nsg70
Nsssg123
(dp2674
S'tx B-tx A'
p2675
(dp2676
g64
Nsg65
Nsg66
Nsg67
Nsg68
Nsg69
Nsg70
NssS'tx A-tx B'
p2677
(dp2678
g64
F0.26871822763145436
sg65
F-1.064129452305961
sg66
F-0.39770561233725332
sg67
F1.3082864501336597
sg68
F0.67185978578383632
sg69
F0.3450280874707416
sg70
Nssssg129
I2
sbsssg130
I00
sg131
I1971
sg132
(lp2679
g54
asg48
I38
sba(ima_dataset
Study
p2680
(dp2681
g29
I01
sg30
VWWICSK
p2682
sg32
(dp2683
g34
F4.5
ssg18
g19
sg35
Nsg36
(dp2684
g7
(dp2685
g12
(ima_dataset
MetaAnalyticUnit
p2686
(dp2687
g22
I00
sg41
(dp2688
g43
(ima_dataset
TreatmentGroup
p2689
(dp2690
g46
(lp2691
F5.0
aF134.0
asg48
I0
sg30
g43
sbsg49
(ima_dataset
TreatmentGroup
p2692
(dp2693
g46
(lp2694
F13.0
aF116.0
asg48
I1
sg30
g49
sbssg53
g54
sg58
(dp2695
g60
(dp2696
S'tx B-tx A'
p2697
(dp2698
g64
Nsg65
Nsg66
Nsg67
Nsg68
Nsg69
Nsg70
NssS'tx A-tx B'
p2699
(dp2700
g64
Nsg65
Nsg66
Nsg67
Nsg68
Nsg69
Nsg70
Nsssg73
(dp2701
g43
(dp2702
g64
Nsg65
Nsg66
Nsg67
Nsg68
Nsg69
Nsg70
Nssg49
(dp2703
g64
Nsg65
Nsg66
Nsg67
Nsg68
Nsg69
Nsg70
Nsssg77
(dp2704
g43
(dp2705
g64
Nsg65
Nsg66
Nsg67
Nsg68
Nsg69
Nsg70
Nssg49
(dp2706
g64
Nsg65
Nsg66
Nsg67
Nsg68
Nsg69
Nsg70
Nsssg81
(dp2707
S'tx B-tx A'
p2708
(dp2709
g64
Nsg65
Nsg66
Nsg67
Nsg68
Nsg69
Nsg70
NssS'tx A-tx B'
p2710
(dp2711
g64
Nsg65
Nsg66
Nsg67
Nsg68
Nsg69
Nsg70
Nsssg87
(dp2712
S'tx B-tx A'
p2713
(dp2714
g64
Nsg65
Nsg66
Nsg67
Nsg68
Nsg69
Nsg70
NssS'tx A-tx B'
p2715
(dp2716
g64
Nsg65
Nsg66
Nsg67
Nsg68
Nsg69
Nsg70
Nsssg93
(dp2717
S'tx B-tx A'
p2718
(dp2719
g64
Nsg65
Nsg66
Nsg67
Nsg68
Nsg69
Nsg70
NssS'tx A-tx B'
p2720
(dp2721
g64
Nsg65
Nsg66
Nsg67
Nsg68
Nsg69
Nsg70
Nsssg99
(dp2722
S'tx B-tx A'
p2723
(dp2724
g64
Nsg65
Nsg66
Nsg67
Nsg68
Nsg69
Nsg70
NssS'tx A-tx B'
p2725
(dp2726
g64
Nsg65
Nsg66
Nsg67
Nsg68
Nsg69
Nsg70
Nsssg105
(dp2727
S'tx B-tx A'
p2728
(dp2729
g64
Nsg65
Nsg66
Nsg67
Nsg68
Nsg69
Nsg70
NssS'tx A-tx B'
p2730
(dp2731
g64
Nsg65
Nsg66
Nsg67
Nsg68
Nsg69
Nsg70
Nsssg111
(dp2732
g43
(dp2733
g64
Nsg65
Nsg66
Nsg67
Nsg68
Nsg69
Nsg70
Nssg49
(dp2734
g64
Nsg65
Nsg66
Nsg67
Nsg68
Nsg69
Nsg70
Nsssg115
(dp2735
g43
(dp2736
g64
Nsg65
Nsg66
Nsg67
Nsg68
Nsg69
Nsg70
Nssg49
(dp2737
g64
Nsg65
Nsg66
Nsg67
Nsg68
Nsg69
Nsg70
Nsssg119
(dp2738
g43
(dp2739
g64
Nsg65
Nsg66
Nsg67
Nsg68
Nsg69
Nsg70
Nssg49
(dp2740
g64
Nsg65
Nsg66
Nsg67
Nsg68
Nsg69
Nsg70
Nsssg123
(dp2741
S'tx B-tx A'
p2742
(dp2743
g64
Nsg65
Nsg66
Nsg67
Nsg68
Nsg69
Nsg70
NssS'tx A-tx B'
p2744
(dp2745
g64
F-0.11717440632813192
sg65
F-2.2440153159908136
sg66
F-1.1805948611594728
sg67
F0.88943005740503345
sg68
F0.30709600477042337
sg69
F0.10603189689935273
sg70
Nssssg129
I2
sbsssg130
I00
sg131
I1983
sg132
(lp2746
g54
asg48
I39
sba(ima_dataset
Study
p2747
(dp2748
g29
I01
sg30
VGISSI
p2749
sg32
(dp2750
g34
F4.5
ssg18
g19
sg35
Nsg36
(dp2751
g7
(dp2752
g12
(ima_dataset
MetaAnalyticUnit
p2753
(dp2754
g22
I00
sg41
(dp2755
g43
(ima_dataset
TreatmentGroup
p2756
(dp2757
g46
(lp2758
F217.0
aF1849.0
asg48
I0
sg30
g43
sbsg49
(ima_dataset
TreatmentGroup
p2759
(dp2760
g46
(lp2761
F254.0
aF1800.0
asg48
I1
sg30
g49
sbssg53
g54
sg58
(dp2762
g60
(dp2763
S'tx B-tx A'
p2764
(dp2765
g64
Nsg65
Nsg66
Nsg67
Nsg68
Nsg69
Nsg70
NssS'tx A-tx B'
p2766
(dp2767
g64
Nsg65
Nsg66
Nsg67
Nsg68
Nsg69
Nsg70
Nsssg73
(dp2768
g43
(dp2769
g64
Nsg65
Nsg66
Nsg67
Nsg68
Nsg69
Nsg70
Nssg49
(dp2770
g64
Nsg65
Nsg66
Nsg67
Nsg68
Nsg69
Nsg70
Nsssg77
(dp2771
g43
(dp2772
g64
Nsg65
Nsg66
Nsg67
Nsg68
Nsg69
Nsg70
Nssg49
(dp2773
g64
Nsg65
Nsg66
Nsg67
Nsg68
Nsg69
Nsg70
Nsssg81
(dp2774
S'tx B-tx A'
p2775
(dp2776
g64
Nsg65
Nsg66
Nsg67
Nsg68
Nsg69
Nsg70
NssS'tx A-tx B'
p2777
(dp2778
g64
Nsg65
Nsg66
Nsg67
Nsg68
Nsg69
Nsg70
Nsssg87
(dp2779
S'tx B-tx A'
p2780
(dp2781
g64
Nsg65
Nsg66
Nsg67
Nsg68
Nsg69
Nsg70
NssS'tx A-tx B'
p2782
(dp2783
g64
Nsg65
Nsg66
Nsg67
Nsg68
Nsg69
Nsg70
Nsssg93
(dp2784
S'tx B-tx A'
p2785
(dp2786
g64
Nsg65
Nsg66
Nsg67
Nsg68
Nsg69
Nsg70
NssS'tx A-tx B'
p2787
(dp2788
g64
Nsg65
Nsg66
Nsg67
Nsg68
Nsg69
Nsg70
Nsssg99
(dp2789
S'tx B-tx A'
p2790
(dp2791
g64
Nsg65
Nsg66
Nsg67
Nsg68
Nsg69
Nsg70
NssS'tx A-tx B'
p2792
(dp2793
g64
Nsg65
Nsg66
Nsg67
Nsg68
Nsg69
Nsg70
Nsssg105
(dp2794
S'tx B-tx A'
p2795
(dp2796
g64
Nsg65
Nsg66
Nsg67
Nsg68
Nsg69
Nsg70
NssS'tx A-tx B'
p2797
(dp2798
g64
Nsg65
Nsg66
Nsg67
Nsg68
Nsg69
Nsg70
Nsssg111
(dp2799
g43
(dp2800
g64
Nsg65
Nsg66
Nsg67
Nsg68
Nsg69
Nsg70
Nssg49
(dp2801
g64
Nsg65
Nsg66
Nsg67
Nsg68
Nsg69
Nsg70
Nsssg115
(dp2802
g43
(dp2803
g64
Nsg65
Nsg66
Nsg67
Nsg68
Nsg69
Nsg70
Nssg49
(dp2804
g64
Nsg65
Nsg66
Nsg67
Nsg68
Nsg69
Nsg70
Nsssg119
(dp2805
g43
(dp2806
g64
Nsg65
Nsg66
Nsg67
Nsg68
Nsg69
Nsg70
Nssg49
(dp2807
g64
Nsg65
Nsg66
Nsg67
Nsg68
Nsg69
Nsg70
Nsssg123
(dp2808
S'tx B-tx A'
p2809
(dp2810
g64
Nsg65
Nsg66
Nsg67
Nsg68
Nsg69
Nsg70
NssS'tx A-tx B'
p2811
(dp2812
g64
F-0.017497397315734409
sg65
F-0.40564704239379012
sg66
F-0.21157221985476227
sg67
F0.98265479320191373
sg68
F0.80931083063146503
sg69
F0.66654538817560849
sg70
Nssssg129
I2
sbsssg130
I00
sg131
I1986
sg132
(lp2813
g54
asg48
I40
sba(ima_dataset
Study
p2814
(dp2815
g29
I01
sg30
VOlson
p2816
sg32
(dp2817
g34
F4.9000000000000004
ssg18
g19
sg35
Nsg36
(dp2818
g7
(dp2819
g12
(ima_dataset
MetaAnalyticUnit
p2820
(dp2821
g22
I00
sg41
(dp2822
g43
(ima_dataset
TreatmentGroup
p2823
(dp2824
g46
(lp2825
F5.0
aF28.0
asg48
I0
sg30
g43
sbsg49
(ima_dataset
TreatmentGroup
p2826
(dp2827
g46
(lp2828
F5.0
aF24.0
asg48
I1
sg30
g49
sbssg53
g54
sg58
(dp2829
g60
(dp2830
S'tx B-tx A'
p2831
(dp2832
g64
Nsg65
Nsg66
Nsg67
Nsg68
Nsg69
Nsg70
NssS'tx A-tx B'
p2833
(dp2834
g64
Nsg65
Nsg66
Nsg67
Nsg68
Nsg69
Nsg70
Nsssg73
(dp2835
g43
(dp2836
g64
Nsg65
Nsg66
Nsg67
Nsg68
Nsg69
Nsg70
Nssg49
(dp2837
g64
Nsg65
Nsg66
Nsg67
Nsg68
Nsg69
Nsg70
Nsssg77
(dp2838
g43
(dp2839
g64
Nsg65
Nsg66
Nsg67
Nsg68
Nsg69
Nsg70
Nssg49
(dp2840
g64
Nsg65
Nsg66
Nsg67
Nsg68
Nsg69
Nsg70
Nsssg81
(dp2841
S'tx B-tx A'
p2842
(dp2843
g64
Nsg65
Nsg66
Nsg67
Nsg68
Nsg69
Nsg70
NssS'tx A-tx B'
p2844
(dp2845
g64
Nsg65
Nsg66
Nsg67
Nsg68
Nsg69
Nsg70
Nsssg87
(dp2846
S'tx B-tx A'
p2847
(dp2848
g64
Nsg65
Nsg66
Nsg67
Nsg68
Nsg69
Nsg70
NssS'tx A-tx B'
p2849
(dp2850
g64
Nsg65
Nsg66
Nsg67
Nsg68
Nsg69
Nsg70
Nsssg93
(dp2851
S'tx B-tx A'
p2852
(dp2853
g64
Nsg65
Nsg66
Nsg67
Nsg68
Nsg69
Nsg70
NssS'tx A-tx B'
p2854
(dp2855
g64
Nsg65
Nsg66
Nsg67
Nsg68
Nsg69
Nsg70
Nsssg99
(dp2856
S'tx B-tx A'
p2857
(dp2858
g64
Nsg65
Nsg66
Nsg67
Nsg68
Nsg69
Nsg70
NssS'tx A-tx B'
p2859
(dp2860
g64
Nsg65
Nsg66
Nsg67
Nsg68
Nsg69
Nsg70
Nsssg105
(dp2861
S'tx B-tx A'
p2862
(dp2863
g64
Nsg65
Nsg66
Nsg67
Nsg68
Nsg69
Nsg70
NssS'tx A-tx B'
p2864
(dp2865
g64
Nsg65
Nsg66
Nsg67
Nsg68
Nsg69
Nsg70
Nsssg111
(dp2866
g43
(dp2867
g64
Nsg65
Nsg66
Nsg67
Nsg68
Nsg69
Nsg70
Nssg49
(dp2868
g64
Nsg65
Nsg66
Nsg67
Nsg68
Nsg69
Nsg70
Nsssg115
(dp2869
g43
(dp2870
g64
Nsg65
Nsg66
Nsg67
Nsg68
Nsg69
Nsg70
Nssg49
(dp2871
g64
Nsg65
Nsg66
Nsg67
Nsg68
Nsg69
Nsg70
Nsssg119
(dp2872
g43
(dp2873
g64
Nsg65
Nsg66
Nsg67
Nsg68
Nsg69
Nsg70
Nssg49
(dp2874
g64
Nsg65
Nsg66
Nsg67
Nsg68
Nsg69
Nsg70
Nsssg123
(dp2875
S'tx B-tx A'
p2876
(dp2877
g64
Nsg65
Nsg66
Nsg67
Nsg68
Nsg69
Nsg70
NssS'tx A-tx B'
p2878
(dp2879
g64
F1.1894466720363726
sg65
F-1.5715571455617909
sg66
F-0.19105523676270919
sg67
F3.2852628765454024
sg68
F0.82608695652173914
sg69
F0.20772147781761194
sg70
Nssssg129
I2
sbsssg130
I00
sg131
I1986
sg132
(lp2880
g54
asg48
I41
sba(ima_dataset
Study
p2881
(dp2882
g29
I01
sg30
VISIS-2
p2883
sg32
(dp2884
g34
F5.0
ssg18
g19
sg35
Nsg36
(dp2885
g7
(dp2886
g12
(ima_dataset
MetaAnalyticUnit
p2887
(dp2888
g22
I00
sg41
(dp2889
g43
(ima_dataset
TreatmentGroup
p2890
(dp2891
g46
(lp2892
F164.0
aF1621.0
asg48
I0
sg30
g43
sbsg49
(ima_dataset
TreatmentGroup
p2893
(dp2894
g46
(lp2895
F190.0
aF1622.0
asg48
I1
sg30
g49
sbssg53
g54
sg58
(dp2896
g60
(dp2897
S'tx B-tx A'
p2898
(dp2899
g64
Nsg65
Nsg66
Nsg67
Nsg68
Nsg69
Nsg70
NssS'tx A-tx B'
p2900
(dp2901
g64
Nsg65
Nsg66
Nsg67
Nsg68
Nsg69
Nsg70
Nsssg73
(dp2902
g43
(dp2903
g64
Nsg65
Nsg66
Nsg67
Nsg68
Nsg69
Nsg70
Nssg49
(dp2904
g64
Nsg65
Nsg66
Nsg67
Nsg68
Nsg69
Nsg70
Nsssg77
(dp2905
g43
(dp2906
g64
Nsg65
Nsg66
Nsg67
Nsg68
Nsg69
Nsg70
Nssg49
(dp2907
g64
Nsg65
Nsg66
Nsg67
Nsg68
Nsg69
Nsg70
Nsssg81
(dp2908
S'tx B-tx A'
p2909
(dp2910
g64
Nsg65
Nsg66
Nsg67
Nsg68
Nsg69
Nsg70
NssS'tx A-tx B'
p2911
(dp2912
g64
Nsg65
Nsg66
Nsg67
Nsg68
Nsg69
Nsg70
Nsssg87
(dp2913
S'tx B-tx A'
p2914
(dp2915
g64
Nsg65
Nsg66
Nsg67
Nsg68
Nsg69
Nsg70
NssS'tx A-tx B'
p2916
(dp2917
g64
Nsg65
Nsg66
Nsg67
Nsg68
Nsg69
Nsg70
Nsssg93
(dp2918
S'tx B-tx A'
p2919
(dp2920
g64
Nsg65
Nsg66
Nsg67
Nsg68
Nsg69
Nsg70
NssS'tx A-tx B'
p2921
(dp2922
g64
Nsg65
Nsg66
Nsg67
Nsg68
Nsg69
Nsg70
Nsssg99
(dp2923
S'tx B-tx A'
p2924
(dp2925
g64
Nsg65
Nsg66
Nsg67
Nsg68
Nsg69
Nsg70
NssS'tx A-tx B'
p2926
(dp2927
g64
Nsg65
Nsg66
Nsg67
Nsg68
Nsg69
Nsg70
Nsssg105
(dp2928
S'tx B-tx A'
p2929
(dp2930
g64
Nsg65
Nsg66
Nsg67
Nsg68
Nsg69
Nsg70
NssS'tx A-tx B'
p2931
(dp2932
g64
Nsg65
Nsg66
Nsg67
Nsg68
Nsg69
Nsg70
Nsssg111
(dp2933
g43
(dp2934
g64
Nsg65
Nsg66
Nsg67
Nsg68
Nsg69
Nsg70
Nssg49
(dp2935
g64
Nsg65
Nsg66
Nsg67
Nsg68
Nsg69
Nsg70
Nsssg115
(dp2936
g43
(dp2937
g64
Nsg65
Nsg66
Nsg67
Nsg68
Nsg69
Nsg70
Nssg49
(dp2938
g64
Nsg65
Nsg66
Nsg67
Nsg68
Nsg69
Nsg70
Nsssg119
(dp2939
g43
(dp2940
g64
Nsg65
Nsg66
Nsg67
Nsg68
Nsg69
Nsg70
Nssg49
(dp2941
g64
Nsg65
Nsg66
Nsg67
Nsg68
Nsg69
Nsg70
Nsssg123
(dp2942
S'tx B-tx A'
p2943
(dp2944
g64
Nsg65
Nsg66
Nsg67
Nsg68
Nsg69
Nsg70
NssS'tx A-tx B'
p2945
(dp2946
g64
F0.05680593089103117
sg65
F-0.38573613691283404
sg66
F-0.16446510301090145
sg67
F1.0584503779403636
sg68
F0.84834736119640231
sg69
F0.67994991569595231
sg70
Nssssg129
I2
sbsssg130
I00
sg131
I1988
sg132
(lp2947
g54
asg48
I42
sba(ima_dataset
Study
p2948
(dp2949
g29
I01
sg30
VAIMS
p2950
sg32
(dp2951
g34
F5.0
ssg18
g19
sg35
Nsg36
(dp2952
g7
(dp2953
g12
(ima_dataset
MetaAnalyticUnit
p2954
(dp2955
g22
I00
sg41
(dp2956
g43
(ima_dataset
TreatmentGroup
p2957
(dp2958
g46
(lp2959
F14.0
aF168.0
asg48
I0
sg30
g43
sbsg49
(ima_dataset
TreatmentGroup
p2960
(dp2961
g46
(lp2962
F31.0
aF176.0
asg48
I1
sg30
g49
sbssg53
g54
sg58
(dp2963
g60
(dp2964
S'tx B-tx A'
p2965
(dp2966
g64
Nsg65
Nsg66
Nsg67
Nsg68
Nsg69
Nsg70
NssS'tx A-tx B'
p2967
(dp2968
g64
Nsg65
Nsg66
Nsg67
Nsg68
Nsg69
Nsg70
Nsssg73
(dp2969
g43
(dp2970
g64
Nsg65
Nsg66
Nsg67
Nsg68
Nsg69
Nsg70
Nssg49
(dp2971
g64
Nsg65
Nsg66
Nsg67
Nsg68
Nsg69
Nsg70
Nsssg77
(dp2972
g43
(dp2973
g64
Nsg65
Nsg66
Nsg67
Nsg68
Nsg69
Nsg70
Nssg49
(dp2974
g64
Nsg65
Nsg66
Nsg67
Nsg68
Nsg69
Nsg70
Nsssg81
(dp2975
S'tx B-tx A'
p2976
(dp2977
g64
Nsg65
Nsg66
Nsg67
Nsg68
Nsg69
Nsg70
NssS'tx A-tx B'
p2978
(dp2979
g64
Nsg65
Nsg66
Nsg67
Nsg68
Nsg69
Nsg70
Nsssg87
(dp2980
S'tx B-tx A'
p2981
(dp2982
g64
Nsg65
Nsg66
Nsg67
Nsg68
Nsg69
Nsg70
NssS'tx A-tx B'
p2983
(dp2984
g64
Nsg65
Nsg66
Nsg67
Nsg68
Nsg69
Nsg70
Nsssg93
(dp2985
S'tx B-tx A'
p2986
(dp2987
g64
Nsg65
Nsg66
Nsg67
Nsg68
Nsg69
Nsg70
NssS'tx A-tx B'
p2988
(dp2989
g64
Nsg65
Nsg66
Nsg67
Nsg68
Nsg69
Nsg70
Nsssg99
(dp2990
S'tx B-tx A'
p2991
(dp2992
g64
Nsg65
Nsg66
Nsg67
Nsg68
Nsg69
Nsg70
NssS'tx A-tx B'
p2993
(dp2994
g64
Nsg65
Nsg66
Nsg67
Nsg68
Nsg69
Nsg70
Nsssg105
(dp2995
S'tx B-tx A'
p2996
(dp2997
g64
Nsg65
Nsg66
Nsg67
Nsg68
Nsg69
Nsg70
NssS'tx A-tx B'
p2998
(dp2999
g64
Nsg65
Nsg66
Nsg67
Nsg68
Nsg69
Nsg70
Nsssg111
(dp3000
g43
(dp3001
g64
Nsg65
Nsg66
Nsg67
Nsg68
Nsg69
Nsg70
Nssg49
(dp3002
g64
Nsg65
Nsg66
Nsg67
Nsg68
Nsg69
Nsg70
Nsssg115
(dp3003
g43
(dp3004
g64
Nsg65
Nsg66
Nsg67
Nsg68
Nsg69
Nsg70
Nssg49
(dp3005
g64
Nsg65
Nsg66
Nsg67
Nsg68
Nsg69
Nsg70
Nsssg119
(dp3006
g43
(dp3007
g64
Nsg65
Nsg66
Nsg67
Nsg68
Nsg69
Nsg70
Nssg49
(dp3008
g64
Nsg65
Nsg66
Nsg67
Nsg68
Nsg69
Nsg70
Nsssg123
(dp3009
S'tx B-tx A'
p3010
(dp3011
g64
Nsg65
Nsg66
Nsg67
Nsg68
Nsg69
Nsg70
NssS'tx A-tx B'
p3012
(dp3013
g64
F-0.18451821103656019
sg65
F-1.5257792586893248
sg66
F-0.85514873486294252
sg67
F0.83150479719726056
sg68
F0.42521994134897356
sg69
F0.21745153982308282
sg70
Nssssg129
I2
sbsssg130
I00
sg131
I1988
sg132
(lp3014
g54
asg48
I43
sba(ima_dataset
Study
p3015
(dp3016
g29
I01
sg30
VKhaja
p3017
sg32
(dp3018
g34
F5.0
ssg18
g19
sg35
Nsg36
(dp3019
g7
(dp3020
g12
(ima_dataset
MetaAnalyticUnit
p3021
(dp3022
g22
I00
sg41
(dp3023
g43
(ima_dataset
TreatmentGroup
p3024
(dp3025
g46
(lp3026
F1.0
aF20.0
asg48
I0
sg30
g43
sbsg49
(ima_dataset
TreatmentGroup
p3027
(dp3028
g46
(lp3029
F4.0
aF20.0
asg48
I1
sg30
g49
sbssg53
g54
sg58
(dp3030
g60
(dp3031
S'tx B-tx A'
p3032
(dp3033
g64
Nsg65
Nsg66
Nsg67
Nsg68
Nsg69
Nsg70
NssS'tx A-tx B'
p3034
(dp3035
g64
Nsg65
Nsg66
Nsg67
Nsg68
Nsg69
Nsg70
Nsssg73
(dp3036
g43
(dp3037
g64
Nsg65
Nsg66
Nsg67
Nsg68
Nsg69
Nsg70
Nssg49
(dp3038
g64
Nsg65
Nsg66
Nsg67
Nsg68
Nsg69
Nsg70
Nsssg77
(dp3039
g43
(dp3040
g64
Nsg65
Nsg66
Nsg67
Nsg68
Nsg69
Nsg70
Nssg49
(dp3041
g64
Nsg65
Nsg66
Nsg67
Nsg68
Nsg69
Nsg70
Nsssg81
(dp3042
S'tx B-tx A'
p3043
(dp3044
g64
Nsg65
Nsg66
Nsg67
Nsg68
Nsg69
Nsg70
NssS'tx A-tx B'
p3045
(dp3046
g64
Nsg65
Nsg66
Nsg67
Nsg68
Nsg69
Nsg70
Nsssg87
(dp3047
S'tx B-tx A'
p3048
(dp3049
g64
Nsg65
Nsg66
Nsg67
Nsg68
Nsg69
Nsg70
NssS'tx A-tx B'
p3050
(dp3051
g64
Nsg65
Nsg66
Nsg67
Nsg68
Nsg69
Nsg70
Nsssg93
(dp3052
S'tx B-tx A'
p3053
(dp3054
g64
Nsg65
Nsg66
Nsg67
Nsg68
Nsg69
Nsg70
NssS'tx A-tx B'
p3055
(dp3056
g64
Nsg65
Nsg66
Nsg67
Nsg68
Nsg69
Nsg70
Nsssg99
(dp3057
S'tx B-tx A'
p3058
(dp3059
g64
Nsg65
Nsg66
Nsg67
Nsg68
Nsg69
Nsg70
NssS'tx A-tx B'
p3060
(dp3061
g64
Nsg65
Nsg66
Nsg67
Nsg68
Nsg69
Nsg70
Nsssg105
(dp3062
S'tx B-tx A'
p3063
(dp3064
g64
Nsg65
Nsg66
Nsg67
Nsg68
Nsg69
Nsg70
NssS'tx A-tx B'
p3065
(dp3066
g64
Nsg65
Nsg66
Nsg67
Nsg68
Nsg69
Nsg70
Nsssg111
(dp3067
g43
(dp3068
g64
Nsg65
Nsg66
Nsg67
Nsg68
Nsg69
Nsg70
Nssg49
(dp3069
g64
Nsg65
Nsg66
Nsg67
Nsg68
Nsg69
Nsg70
Nsssg115
(dp3070
g43
(dp3071
g64
Nsg65
Nsg66
Nsg67
Nsg68
Nsg69
Nsg70
Nssg49
(dp3072
g64
Nsg65
Nsg66
Nsg67
Nsg68
Nsg69
Nsg70
Nsssg119
(dp3073
g43
(dp3074
g64
Nsg65
Nsg66
Nsg67
Nsg68
Nsg69
Nsg70
Nssg49
(dp3075
g64
Nsg65
Nsg66
Nsg67
Nsg68
Nsg69
Nsg70
Nsssg123
(dp3076
S'tx B-tx A'
p3077
(dp3078
g64
Nsg65
Nsg66
Nsg67
Nsg68
Nsg69
Nsg70
NssS'tx A-tx B'
p3079
(dp3080
g64
F0.73185467133226267
sg65
F-3.8481439074253618
sg66
F-1.5581446180465497
sg67
F2.078932771333839
sg68
F0.21052631578947373
sg69
F0.021319270277053139
sg70
Nssssg129
I2
sbsssg130
I00
sg131
I1983
sg132
(lp3081
g54
asg48
I44
sba(ima_dataset
Study
p3082
(dp3083
g29
I01
sg30
VDewar
p3084
sg32
(dp3085
g34
F6.2000000000000002
ssg18
g19
sg35
Nsg36
(dp3086
g7
(dp3087
g12
(ima_dataset
MetaAnalyticUnit
p3088
(dp3089
g22
I00
sg41
(dp3090
g43
(ima_dataset
TreatmentGroup
p3091
(dp3092
g46
(lp3093
F4.0
aF21.0
asg48
I0
sg30
g43
sbsg49
(ima_dataset
TreatmentGroup
p3094
(dp3095
g46
(lp3096
F7.0
aF21.0
asg48
I1
sg30
g49
sbssg53
g54
sg58
(dp3097
g60
(dp3098
S'tx B-tx A'
p3099
(dp3100
g64
Nsg65
Nsg66
Nsg67
Nsg68
Nsg69
Nsg70
NssS'tx A-tx B'
p3101
(dp3102
g64
Nsg65
Nsg66
Nsg67
Nsg68
Nsg69
Nsg70
Nsssg73
(dp3103
g43
(dp3104
g64
Nsg65
Nsg66
Nsg67
Nsg68
Nsg69
Nsg70
Nssg49
(dp3105
g64
Nsg65
Nsg66
Nsg67
Nsg68
Nsg69
Nsg70
Nsssg77
(dp3106
g43
(dp3107
g64
Nsg65
Nsg66
Nsg67
Nsg68
Nsg69
Nsg70
Nssg49
(dp3108
g64
Nsg65
Nsg66
Nsg67
Nsg68
Nsg69
Nsg70
Nsssg81
(dp3109
S'tx B-tx A'
p3110
(dp3111
g64
Nsg65
Nsg66
Nsg67
Nsg68
Nsg69
Nsg70
NssS'tx A-tx B'
p3112
(dp3113
g64
Nsg65
Nsg66
Nsg67
Nsg68
Nsg69
Nsg70
Nsssg87
(dp3114
S'tx B-tx A'
p3115
(dp3116
g64
Nsg65
Nsg66
Nsg67
Nsg68
Nsg69
Nsg70
NssS'tx A-tx B'
p3117
(dp3118
g64
Nsg65
Nsg66
Nsg67
Nsg68
Nsg69
Nsg70
Nsssg93
(dp3119
S'tx B-tx A'
p3120
(dp3121
g64
Nsg65
Nsg66
Nsg67
Nsg68
Nsg69
Nsg70
NssS'tx A-tx B'
p3122
(dp3123
g64
Nsg65
Nsg66
Nsg67
Nsg68
Nsg69
Nsg70
Nsssg99
(dp3124
S'tx B-tx A'
p3125
(dp3126
g64
Nsg65
Nsg66
Nsg67
Nsg68
Nsg69
Nsg70
NssS'tx A-tx B'
p3127
(dp3128
g64
Nsg65
Nsg66
Nsg67
Nsg68
Nsg69
Nsg70
Nsssg105
(dp3129
S'tx B-tx A'
p3130
(dp3131
g64
Nsg65
Nsg66
Nsg67
Nsg68
Nsg69
Nsg70
NssS'tx A-tx B'
p3132
(dp3133
g64
Nsg65
Nsg66
Nsg67
Nsg68
Nsg69
Nsg70
Nsssg111
(dp3134
g43
(dp3135
g64
Nsg65
Nsg66
Nsg67
Nsg68
Nsg69
Nsg70
Nssg49
(dp3136
g64
Nsg65
Nsg66
Nsg67
Nsg68
Nsg69
Nsg70
Nsssg115
(dp3137
g43
(dp3138
g64
Nsg65
Nsg66
Nsg67
Nsg68
Nsg69
Nsg70
Nssg49
(dp3139
g64
Nsg65
Nsg66
Nsg67
Nsg68
Nsg69
Nsg70
Nsssg119
(dp3140
g43
(dp3141
g64
Nsg65
Nsg66
Nsg67
Nsg68
Nsg69
Nsg70
Nssg49
(dp3142
g64
Nsg65
Nsg66
Nsg67
Nsg68
Nsg69
Nsg70
Nsssg123
(dp3143
S'tx B-tx A'
p3144
(dp3145
g64
Nsg65
Nsg66
Nsg67
Nsg68
Nsg69
Nsg70
NssS'tx A-tx B'
p3146
(dp3147
g64
F0.66379746167681375
sg65
F-2.1713410664295734
sg66
F-0.75377180237637986
sg67
F1.9421536023647801
sg68
F0.47058823529411781
sg69
F0.11402459976779844
sg70
Nssssg129
I2
sbsssg130
I00
sg131
I1963
sg132
(lp3148
g54
asg48
I45
sba(ima_dataset
Study
p3149
(dp3150
g29
I01
sg30
VISIS Pilot
p3151
sg32
(dp3152
g34
F6.5
ssg18
g19
sg35
Nsg36
(dp3153
g7
(dp3154
g12
(ima_dataset
MetaAnalyticUnit
p3155
(dp3156
g22
I00
sg41
(dp3157
g43
(ima_dataset
TreatmentGroup
p3158
(dp3159
g46
(lp3160
F31.0
aF413.0
asg48
I0
sg30
g43
sbsg49
(ima_dataset
TreatmentGroup
p3161
(dp3162
g46
(lp3163
F20.0
aF206.0
asg48
I1
sg30
g49
sbssg53
g54
sg58
(dp3164
g60
(dp3165
S'tx B-tx A'
p3166
(dp3167
g64
Nsg65
Nsg66
Nsg67
Nsg68
Nsg69
Nsg70
NssS'tx A-tx B'
p3168
(dp3169
g64
Nsg65
Nsg66
Nsg67
Nsg68
Nsg69
Nsg70
Nsssg73
(dp3170
g43
(dp3171
g64
Nsg65
Nsg66
Nsg67
Nsg68
Nsg69
Nsg70
Nssg49
(dp3172
g64
Nsg65
Nsg66
Nsg67
Nsg68
Nsg69
Nsg70
Nsssg77
(dp3173
g43
(dp3174
g64
Nsg65
Nsg66
Nsg67
Nsg68
Nsg69
Nsg70
Nssg49
(dp3175
g64
Nsg65
Nsg66
Nsg67
Nsg68
Nsg69
Nsg70
Nsssg81
(dp3176
S'tx B-tx A'
p3177
(dp3178
g64
Nsg65
Nsg66
Nsg67
Nsg68
Nsg69
Nsg70
NssS'tx A-tx B'
p3179
(dp3180
g64
Nsg65
Nsg66
Nsg67
Nsg68
Nsg69
Nsg70
Nsssg87
(dp3181
S'tx B-tx A'
p3182
(dp3183
g64
Nsg65
Nsg66
Nsg67
Nsg68
Nsg69
Nsg70
NssS'tx A-tx B'
p3184
(dp3185
g64
Nsg65
Nsg66
Nsg67
Nsg68
Nsg69
Nsg70
Nsssg93
(dp3186
S'tx B-tx A'
p3187
(dp3188
g64
Nsg65
Nsg66
Nsg67
Nsg68
Nsg69
Nsg70
NssS'tx A-tx B'
p3189
(dp3190
g64
Nsg65
Nsg66
Nsg67
Nsg68
Nsg69
Nsg70
Nsssg99
(dp3191
S'tx B-tx A'
p3192
(dp3193
g64
Nsg65
Nsg66
Nsg67
Nsg68
Nsg69
Nsg70
NssS'tx A-tx B'
p3194
(dp3195
g64
Nsg65
Nsg66
Nsg67
Nsg68
Nsg69
Nsg70
Nsssg105
(dp3196
S'tx B-tx A'
p3197
(dp3198
g64
Nsg65
Nsg66
Nsg67
Nsg68
Nsg69
Nsg70
NssS'tx A-tx B'
p3199
(dp3200
g64
Nsg65
Nsg66
Nsg67
Nsg68
Nsg69
Nsg70
Nsssg111
(dp3201
g43
(dp3202
g64
Nsg65
Nsg66
Nsg67
Nsg68
Nsg69
Nsg70
Nssg49
(dp3203
g64
Nsg65
Nsg66
Nsg67
Nsg68
Nsg69
Nsg70
Nsssg115
(dp3204
g43
(dp3205
g64
Nsg65
Nsg66
Nsg67
Nsg68
Nsg69
Nsg70
Nssg49
(dp3206
g64
Nsg65
Nsg66
Nsg67
Nsg68
Nsg69
Nsg70
Nsssg119
(dp3207
g43
(dp3208
g64
Nsg65
Nsg66
Nsg67
Nsg68
Nsg69
Nsg70
Nssg49
(dp3209
g64
Nsg65
Nsg66
Nsg67
Nsg68
Nsg69
Nsg70
Nsssg123
(dp3210
S'tx B-tx A'
p3211
(dp3212
g64
Nsg65
Nsg66
Nsg67
Nsg68
Nsg69
Nsg70
NssS'tx A-tx B'
p3213
(dp3214
g64
F0.30739348473373895
sg65
F-0.87023149265817623
sg66
F-0.28141900396221864
sg67
F1.3598759532382081
sg68
F0.75471204188481678
sg69
F0.41885457626455647
sg70
Nssssg129
I2
sbsssg130
I00
sg131
I1987
sg132
(lp3215
g54
asg48
I46
sba(ima_dataset
Study
p3216
(dp3217
g29
I01
sg30
VBett
p3218
sg32
(dp3219
g34
F6.5
ssg18
g19
sg35
Nsg36
(dp3220
g7
(dp3221
g12
(ima_dataset
MetaAnalyticUnit
p3222
(dp3223
g22
I00
sg41
(dp3224
g43
(ima_dataset
TreatmentGroup
p3225
(dp3226
g46
(lp3227
F4.0
aF84.0
asg48
I0
sg30
g43
sbsg49
(ima_dataset
TreatmentGroup
p3228
(dp3229
g46
(lp3230
F10.0
aF76.0
asg48
I1
sg30
g49
sbssg53
g54
sg58
(dp3231
g60
(dp3232
S'tx B-tx A'
p3233
(dp3234
g64
Nsg65
Nsg66
Nsg67
Nsg68
Nsg69
Nsg70
NssS'tx A-tx B'
p3235
(dp3236
g64
Nsg65
Nsg66
Nsg67
Nsg68
Nsg69
Nsg70
Nsssg73
(dp3237
g43
(dp3238
g64
Nsg65
Nsg66
Nsg67
Nsg68
Nsg69
Nsg70
Nssg49
(dp3239
g64
Nsg65
Nsg66
Nsg67
Nsg68
Nsg69
Nsg70
Nsssg77
(dp3240
g43
(dp3241
g64
Nsg65
Nsg66
Nsg67
Nsg68
Nsg69
Nsg70
Nssg49
(dp3242
g64
Nsg65
Nsg66
Nsg67
Nsg68
Nsg69
Nsg70
Nsssg81
(dp3243
S'tx B-tx A'
p3244
(dp3245
g64
Nsg65
Nsg66
Nsg67
Nsg68
Nsg69
Nsg70
NssS'tx A-tx B'
p3246
(dp3247
g64
Nsg65
Nsg66
Nsg67
Nsg68
Nsg69
Nsg70
Nsssg87
(dp3248
S'tx B-tx A'
p3249
(dp3250
g64
Nsg65
Nsg66
Nsg67
Nsg68
Nsg69
Nsg70
NssS'tx A-tx B'
p3251
(dp3252
g64
Nsg65
Nsg66
Nsg67
Nsg68
Nsg69
Nsg70
Nsssg93
(dp3253
S'tx B-tx A'
p3254
(dp3255
g64
Nsg65
Nsg66
Nsg67
Nsg68
Nsg69
Nsg70
NssS'tx A-tx B'
p3256
(dp3257
g64
Nsg65
Nsg66
Nsg67
Nsg68
Nsg69
Nsg70
Nsssg99
(dp3258
S'tx B-tx A'
p3259
(dp3260
g64
Nsg65
Nsg66
Nsg67
Nsg68
Nsg69
Nsg70
NssS'tx A-tx B'
p3261
(dp3262
g64
Nsg65
Nsg66
Nsg67
Nsg68
Nsg69
Nsg70
Nsssg105
(dp3263
S'tx B-tx A'
p3264
(dp3265
g64
Nsg65
Nsg66
Nsg67
Nsg68
Nsg69
Nsg70
NssS'tx A-tx B'
p3266
(dp3267
g64
Nsg65
Nsg66
Nsg67
Nsg68
Nsg69
Nsg70
Nsssg111
(dp3268
g43
(dp3269
g64
Nsg65
Nsg66
Nsg67
Nsg68
Nsg69
Nsg70
Nssg49
(dp3270
g64
Nsg65
Nsg66
Nsg67
Nsg68
Nsg69
Nsg70
Nsssg115
(dp3271
g43
(dp3272
g64
Nsg65
Nsg66
Nsg67
Nsg68
Nsg69
Nsg70
Nssg49
(dp3273
g64
Nsg65
Nsg66
Nsg67
Nsg68
Nsg69
Nsg70
Nsssg119
(dp3274
g43
(dp3275
g64
Nsg65
Nsg66
Nsg67
Nsg68
Nsg69
Nsg70
Nssg49
(dp3276
g64
Nsg65
Nsg66
Nsg67
Nsg68
Nsg69
Nsg70
Nsssg123
(dp3277
S'tx B-tx A'
p3278
(dp3279
g64
Nsg65
Nsg66
Nsg67
Nsg68
Nsg69
Nsg70
NssS'tx A-tx B'
p3280
(dp3281
g64
F0.095801050325948767
sg65
F-2.3131262993691708
sg66
F-1.1086626245216109
sg67
F1.100540090120101
sg68
F0.33000000000000007
sg69
F0.098951415743624441
sg70
Nssssg129
I2
sbsssg130
I00
sg131
I1973
sg132
(lp3282
g54
asg48
I47
sba(ima_dataset
Study
p3283
(dp3284
g29
I01
sg30
VAber
p3285
sg32
(dp3286
g34
F7.0
ssg18
g19
sg35
Nsg36
(dp3287
g7
(dp3288
g12
(ima_dataset
MetaAnalyticUnit
p3289
(dp3290
g22
I00
sg41
(dp3291
g43
(ima_dataset
TreatmentGroup
p3292
(dp3293
g46
(lp3294
F57.0
aF302.0
asg48
I0
sg30
g43
sbsg49
(ima_dataset
TreatmentGroup
p3295
(dp3296
g46
(lp3297
F55.0
aF293.0
asg48
I1
sg30
g49
sbssg53
g54
sg58
(dp3298
g60
(dp3299
S'tx B-tx A'
p3300
(dp3301
g64
Nsg65
Nsg66
Nsg67
Nsg68
Nsg69
Nsg70
NssS'tx A-tx B'
p3302
(dp3303
g64
Nsg65
Nsg66
Nsg67
Nsg68
Nsg69
Nsg70
Nsssg73
(dp3304
g43
(dp3305
g64
Nsg65
Nsg66
Nsg67
Nsg68
Nsg69
Nsg70
Nssg49
(dp3306
g64
Nsg65
Nsg66
Nsg67
Nsg68
Nsg69
Nsg70
Nsssg77
(dp3307
g43
(dp3308
g64
Nsg65
Nsg66
Nsg67
Nsg68
Nsg69
Nsg70
Nssg49
(dp3309
g64
Nsg65
Nsg66
Nsg67
Nsg68
Nsg69
Nsg70
Nsssg81
(dp3310
S'tx B-tx A'
p3311
(dp3312
g64
Nsg65
Nsg66
Nsg67
Nsg68
Nsg69
Nsg70
NssS'tx A-tx B'
p3313
(dp3314
g64
Nsg65
Nsg66
Nsg67
Nsg68
Nsg69
Nsg70
Nsssg87
(dp3315
S'tx B-tx A'
p3316
(dp3317
g64
Nsg65
Nsg66
Nsg67
Nsg68
Nsg69
Nsg70
NssS'tx A-tx B'
p3318
(dp3319
g64
Nsg65
Nsg66
Nsg67
Nsg68
Nsg69
Nsg70
Nsssg93
(dp3320
S'tx B-tx A'
p3321
(dp3322
g64
Nsg65
Nsg66
Nsg67
Nsg68
Nsg69
Nsg70
NssS'tx A-tx B'
p3323
(dp3324
g64
Nsg65
Nsg66
Nsg67
Nsg68
Nsg69
Nsg70
Nsssg99
(dp3325
S'tx B-tx A'
p3326
(dp3327
g64
Nsg65
Nsg66
Nsg67
Nsg68
Nsg69
Nsg70
NssS'tx A-tx B'
p3328
(dp3329
g64
Nsg65
Nsg66
Nsg67
Nsg68
Nsg69
Nsg70
Nsssg105
(dp3330
S'tx B-tx A'
p3331
(dp3332
g64
Nsg65
Nsg66
Nsg67
Nsg68
Nsg69
Nsg70
NssS'tx A-tx B'
p3333
(dp3334
g64
Nsg65
Nsg66
Nsg67
Nsg68
Nsg69
Nsg70
Nsssg111
(dp3335
g43
(dp3336
g64
Nsg65
Nsg66
Nsg67
Nsg68
Nsg69
Nsg70
Nssg49
(dp3337
g64
Nsg65
Nsg66
Nsg67
Nsg68
Nsg69
Nsg70
Nsssg115
(dp3338
g43
(dp3339
g64
Nsg65
Nsg66
Nsg67
Nsg68
Nsg69
Nsg70
Nssg49
(dp3340
g64
Nsg65
Nsg66
Nsg67
Nsg68
Nsg69
Nsg70
Nsssg119
(dp3341
g43
(dp3342
g64
Nsg65
Nsg66
Nsg67
Nsg68
Nsg69
Nsg70
Nssg49
(dp3343
g64
Nsg65
Nsg66
Nsg67
Nsg68
Nsg69
Nsg70
Nsssg123
(dp3344
S'tx B-tx A'
p3345
(dp3346
g64
Nsg65
Nsg66
Nsg67
Nsg68
Nsg69
Nsg70
NssS'tx A-tx B'
p3347
(dp3348
g64
F0.41789806300993138
sg65
F-0.40443697155227754
sg66
F0.0067305457288269199
sg67
F1.5187658480919364
sg68
F1.0067532467532467
sg69
F0.66735244351297107
sg70
Nssssg129
I2
sbsssg130
I00
sg131
I1976
sg132
(lp3349
g54
asg48
I48
sba(ima_dataset
Study
p3350
(dp3351
g29
I01
sg30
VECSG-1
p3352
sg32
(dp3353
g34
F7.5
ssg18
g19
sg35
Nsg36
(dp3354
g7
(dp3355
g12
(ima_dataset
MetaAnalyticUnit
p3356
(dp3357
g22
I00
sg41
(dp3358
g43
(ima_dataset
TreatmentGroup
p3359
(dp3360
g46
(lp3361
F8.0
aF47.0
asg48
I0
sg30
g43
sbsg49
(ima_dataset
TreatmentGroup
p3362
(dp3363
g46
(lp3364
F15.0
aF50.0
asg48
I1
sg30
g49
sbssg53
g54
sg58
(dp3365
g60
(dp3366
S'tx B-tx A'
p3367
(dp3368
g64
Nsg65
Nsg66
Nsg67
Nsg68
Nsg69
Nsg70
NssS'tx A-tx B'
p3369
(dp3370
g64
Nsg65
Nsg66
Nsg67
Nsg68
Nsg69
Nsg70
Nsssg73
(dp3371
g43
(dp3372
g64
Nsg65
Nsg66
Nsg67
Nsg68
Nsg69
Nsg70
Nssg49
(dp3373
g64
Nsg65
Nsg66
Nsg67
Nsg68
Nsg69
Nsg70
Nsssg77
(dp3374
g43
(dp3375
g64
Nsg65
Nsg66
Nsg67
Nsg68
Nsg69
Nsg70
Nssg49
(dp3376
g64
Nsg65
Nsg66
Nsg67
Nsg68
Nsg69
Nsg70
Nsssg81
(dp3377
S'tx B-tx A'
p3378
(dp3379
g64
Nsg65
Nsg66
Nsg67
Nsg68
Nsg69
Nsg70
NssS'tx A-tx B'
p3380
(dp3381
g64
Nsg65
Nsg66
Nsg67
Nsg68
Nsg69
Nsg70
Nsssg87
(dp3382
S'tx B-tx A'
p3383
(dp3384
g64
Nsg65
Nsg66
Nsg67
Nsg68
Nsg69
Nsg70
NssS'tx A-tx B'
p3385
(dp3386
g64
Nsg65
Nsg66
Nsg67
Nsg68
Nsg69
Nsg70
Nsssg93
(dp3387
S'tx B-tx A'
p3388
(dp3389
g64
Nsg65
Nsg66
Nsg67
Nsg68
Nsg69
Nsg70
NssS'tx A-tx B'
p3390
(dp3391
g64
Nsg65
Nsg66
Nsg67
Nsg68
Nsg69
Nsg70
Nsssg99
(dp3392
S'tx B-tx A'
p3393
(dp3394
g64
Nsg65
Nsg66
Nsg67
Nsg68
Nsg69
Nsg70
NssS'tx A-tx B'
p3395
(dp3396
g64
Nsg65
Nsg66
Nsg67
Nsg68
Nsg69
Nsg70
Nsssg105
(dp3397
S'tx B-tx A'
p3398
(dp3399
g64
Nsg65
Nsg66
Nsg67
Nsg68
Nsg69
Nsg70
NssS'tx A-tx B'
p3400
(dp3401
g64
Nsg65
Nsg66
Nsg67
Nsg68
Nsg69
Nsg70
Nsssg111
(dp3402
g43
(dp3403
g64
Nsg65
Nsg66
Nsg67
Nsg68
Nsg69
Nsg70
Nssg49
(dp3404
g64
Nsg65
Nsg66
Nsg67
Nsg68
Nsg69
Nsg70
Nsssg115
(dp3405
g43
(dp3406
g64
Nsg65
Nsg66
Nsg67
Nsg68
Nsg69
Nsg70
Nssg49
(dp3407
g64
Nsg65
Nsg66
Nsg67
Nsg68
Nsg69
Nsg70
Nsssg119
(dp3408
g43
(dp3409
g64
Nsg65
Nsg66
Nsg67
Nsg68
Nsg69
Nsg70
Nssg49
(dp3410
g64
Nsg65
Nsg66
Nsg67
Nsg68
Nsg69
Nsg70
Nsssg123
(dp3411
S'tx B-tx A'
p3412
(dp3413
g64
Nsg65
Nsg66
Nsg67
Nsg68
Nsg69
Nsg70
NssS'tx A-tx B'
p3414
(dp3415
g64
F0.2350494129608991
sg65
F-1.7086939010861131
sg66
F-0.73682224406260699
sg67
F1.2649712731646738
sg68
F0.4786324786324786
sg69
F0.181102175568573
sg70
Nssssg129
I2
sbsssg130
I00
sg131
I1979
sg132
(lp3416
g54
asg48
I49
sba(ima_dataset
Study
p3417
(dp3418
g29
I01
sg30
VGISSI
p3419
sg32
(dp3420
g34
F7.5
ssg18
g19
sg35
Nsg36
(dp3421
g7
(dp3422
g12
(ima_dataset
MetaAnalyticUnit
p3423
(dp3424
g22
I00
sg41
(dp3425
g43
(ima_dataset
TreatmentGroup
p3426
(dp3427
g46
(lp3428
F87.0
aF693.0
asg48
I0
sg30
g43
sbsg49
(ima_dataset
TreatmentGroup
p3429
(dp3430
g46
(lp3431
F93.0
aF659.0
asg48
I1
sg30
g49
sbssg53
g54
sg58
(dp3432
g60
(dp3433
S'tx B-tx A'
p3434
(dp3435
g64
Nsg65
Nsg66
Nsg67
Nsg68
Nsg69
Nsg70
NssS'tx A-tx B'
p3436
(dp3437
g64
Nsg65
Nsg66
Nsg67
Nsg68
Nsg69
Nsg70
Nsssg73
(dp3438
g43
(dp3439
g64
Nsg65
Nsg66
Nsg67
Nsg68
Nsg69
Nsg70
Nssg49
(dp3440
g64
Nsg65
Nsg66
Nsg67
Nsg68
Nsg69
Nsg70
Nsssg77
(dp3441
g43
(dp3442
g64
Nsg65
Nsg66
Nsg67
Nsg68
Nsg69
Nsg70
Nssg49
(dp3443
g64
Nsg65
Nsg66
Nsg67
Nsg68
Nsg69
Nsg70
Nsssg81
(dp3444
S'tx B-tx A'
p3445
(dp3446
g64
Nsg65
Nsg66
Nsg67
Nsg68
Nsg69
Nsg70
NssS'tx A-tx B'
p3447
(dp3448
g64
Nsg65
Nsg66
Nsg67
Nsg68
Nsg69
Nsg70
Nsssg87
(dp3449
S'tx B-tx A'
p3450
(dp3451
g64
Nsg65
Nsg66
Nsg67
Nsg68
Nsg69
Nsg70
NssS'tx A-tx B'
p3452
(dp3453
g64
Nsg65
Nsg66
Nsg67
Nsg68
Nsg69
Nsg70
Nsssg93
(dp3454
S'tx B-tx A'
p3455
(dp3456
g64
Nsg65
Nsg66
Nsg67
Nsg68
Nsg69
Nsg70
NssS'tx A-tx B'
p3457
(dp3458
g64
Nsg65
Nsg66
Nsg67
Nsg68
Nsg69
Nsg70
Nsssg99
(dp3459
S'tx B-tx A'
p3460
(dp3461
g64
Nsg65
Nsg66
Nsg67
Nsg68
Nsg69
Nsg70
NssS'tx A-tx B'
p3462
(dp3463
g64
Nsg65
Nsg66
Nsg67
Nsg68
Nsg69
Nsg70
Nsssg105
(dp3464
S'tx B-tx A'
p3465
(dp3466
g64
Nsg65
Nsg66
Nsg67
Nsg68
Nsg69
Nsg70
NssS'tx A-tx B'
p3467
(dp3468
g64
Nsg65
Nsg66
Nsg67
Nsg68
Nsg69
Nsg70
Nsssg111
(dp3469
g43
(dp3470
g64
Nsg65
Nsg66
Nsg67
Nsg68
Nsg69
Nsg70
Nssg49
(dp3471
g64
Nsg65
Nsg66
Nsg67
Nsg68
Nsg69
Nsg70
Nsssg115
(dp3472
g43
(dp3473
g64
Nsg65
Nsg66
Nsg67
Nsg68
Nsg69
Nsg70
Nssg49
(dp3474
g64
Nsg65
Nsg66
Nsg67
Nsg68
Nsg69
Nsg70
Nsssg119
(dp3475
g43
(dp3476
g64
Nsg65
Nsg66
Nsg67
Nsg68
Nsg69
Nsg70
Nssg49
(dp3477
g64
Nsg65
Nsg66
Nsg67
Nsg68
Nsg69
Nsg70
Nsssg123
(dp3478
S'tx B-tx A'
p3479
(dp3480
g64
Nsg65
Nsg66
Nsg67
Nsg68
Nsg69
Nsg70
NssS'tx A-tx B'
p3481
(dp3482
g64
F0.17900803351778349
sg65
F-0.44896259824739126
sg66
F-0.13497728236480389
sg67
F1.1960303524603955
sg68
F0.87373576067284131
sg69
F0.63828997141092869
sg70
Nssssg129
I2
sbsssg130
I00
sg131
I1986
sg132
(lp3483
g54
asg48
I50
sba(ima_dataset
Study
p3484
(dp3485
g29
I01
sg30
VGormsen
p3486
sg32
(dp3487
g34
F8.5
ssg18
g19
sg35
Nsg36
(dp3488
g7
(dp3489
g12
(ima_dataset
MetaAnalyticUnit
p3490
(dp3491
g22
I00
sg41
(dp3492
g43
(ima_dataset
TreatmentGroup
p3493
(dp3494
g46
(lp3495
F2.0
aF14.0
asg48
I0
sg30
g43
sbsg49
(ima_dataset
TreatmentGroup
p3496
(dp3497
g46
(lp3498
F3.0
aF14.0
asg48
I1
sg30
g49
sbssg53
g54
sg58
(dp3499
g60
(dp3500
S'tx B-tx A'
p3501
(dp3502
g64
Nsg65
Nsg66
Nsg67
Nsg68
Nsg69
Nsg70
NssS'tx A-tx B'
p3503
(dp3504
g64
Nsg65
Nsg66
Nsg67
Nsg68
Nsg69
Nsg70
Nsssg73
(dp3505
g43
(dp3506
g64
Nsg65
Nsg66
Nsg67
Nsg68
Nsg69
Nsg70
Nssg49
(dp3507
g64
Nsg65
Nsg66
Nsg67
Nsg68
Nsg69
Nsg70
Nsssg77
(dp3508
g43
(dp3509
g64
Nsg65
Nsg66
Nsg67
Nsg68
Nsg69
Nsg70
Nssg49
(dp3510
g64
Nsg65
Nsg66
Nsg67
Nsg68
Nsg69
Nsg70
Nsssg81
(dp3511
S'tx B-tx A'
p3512
(dp3513
g64
Nsg65
Nsg66
Nsg67
Nsg68
Nsg69
Nsg70
NssS'tx A-tx B'
p3514
(dp3515
g64
Nsg65
Nsg66
Nsg67
Nsg68
Nsg69
Nsg70
Nsssg87
(dp3516
S'tx B-tx A'
p3517
(dp3518
g64
Nsg65
Nsg66
Nsg67
Nsg68
Nsg69
Nsg70
NssS'tx A-tx B'
p3519
(dp3520
g64
Nsg65
Nsg66
Nsg67
Nsg68
Nsg69
Nsg70
Nsssg93
(dp3521
S'tx B-tx A'
p3522
(dp3523
g64
Nsg65
Nsg66
Nsg67
Nsg68
Nsg69
Nsg70
NssS'tx A-tx B'
p3524
(dp3525
g64
Nsg65
Nsg66
Nsg67
Nsg68
Nsg69
Nsg70
Nsssg99
(dp3526
S'tx B-tx A'
p3527
(dp3528
g64
Nsg65
Nsg66
Nsg67
Nsg68
Nsg69
Nsg70
NssS'tx A-tx B'
p3529
(dp3530
g64
Nsg65
Nsg66
Nsg67
Nsg68
Nsg69
Nsg70
Nsssg105
(dp3531
S'tx B-tx A'
p3532
(dp3533
g64
Nsg65
Nsg66
Nsg67
Nsg68
Nsg69
Nsg70
NssS'tx A-tx B'
p3534
(dp3535
g64
Nsg65
Nsg66
Nsg67
Nsg68
Nsg69
Nsg70
Nsssg111
(dp3536
g43
(dp3537
g64
Nsg65
Nsg66
Nsg67
Nsg68
Nsg69
Nsg70
Nssg49
(dp3538
g64
Nsg65
Nsg66
Nsg67
Nsg68
Nsg69
Nsg70
Nsssg115
(dp3539
g43
(dp3540
g64
Nsg65
Nsg66
Nsg67
Nsg68
Nsg69
Nsg70
Nssg49
(dp3541
g64
Nsg65
Nsg66
Nsg67
Nsg68
Nsg69
Nsg70
Nsssg119
(dp3542
g43
(dp3543
g64
Nsg65
Nsg66
Nsg67
Nsg68
Nsg69
Nsg70
Nssg49
(dp3544
g64
Nsg65
Nsg66
Nsg67
Nsg68
Nsg69
Nsg70
Nsssg123
(dp3545
S'tx B-tx A'
p3546
(dp3547
g64
Nsg65
Nsg66
Nsg67
Nsg68
Nsg69
Nsg70
NssS'tx A-tx B'
p3548
(dp3549
g64
F1.4748975976472636
sg65
F-2.4598505678428517
sg66
F-0.49247648509779407
sg67
F4.3705881914998015
sg68
F0.61111111111111116
sg69
F0.085447718650267582
sg70
Nssssg129
I2
sbsssg130
I00
sg131
I1973
sg132
(lp3550
g54
asg48
I51
sba(ima_dataset
Study
p3551
(dp3552
g29
I01
sg30
VFletcher
p3553
sg32
(dp3554
g34
F9.0
ssg18
g19
sg35
Nsg36
(dp3555
g7
(dp3556
g12
(ima_dataset
MetaAnalyticUnit
p3557
(dp3558
g22
I00
sg41
(dp3559
g43
(ima_dataset
TreatmentGroup
p3560
(dp3561
g46
(lp3562
F1.0
aF12.0
asg48
I0
sg30
g43
sbsg49
(ima_dataset
TreatmentGroup
p3563
(dp3564
g46
(lp3565
F4.0
aF11.0
asg48
I1
sg30
g49
sbssg53
g54
sg58
(dp3566
g60
(dp3567
S'tx B-tx A'
p3568
(dp3569
g64
Nsg65
Nsg66
Nsg67
Nsg68
Nsg69
Nsg70
NssS'tx A-tx B'
p3570
(dp3571
g64
Nsg65
Nsg66
Nsg67
Nsg68
Nsg69
Nsg70
Nsssg73
(dp3572
g43
(dp3573
g64
Nsg65
Nsg66
Nsg67
Nsg68
Nsg69
Nsg70
Nssg49
(dp3574
g64
Nsg65
Nsg66
Nsg67
Nsg68
Nsg69
Nsg70
Nsssg77
(dp3575
g43
(dp3576
g64
Nsg65
Nsg66
Nsg67
Nsg68
Nsg69
Nsg70
Nssg49
(dp3577
g64
Nsg65
Nsg66
Nsg67
Nsg68
Nsg69
Nsg70
Nsssg81
(dp3578
S'tx B-tx A'
p3579
(dp3580
g64
Nsg65
Nsg66
Nsg67
Nsg68
Nsg69
Nsg70
NssS'tx A-tx B'
p3581
(dp3582
g64
Nsg65
Nsg66
Nsg67
Nsg68
Nsg69
Nsg70
Nsssg87
(dp3583
S'tx B-tx A'
p3584
(dp3585
g64
Nsg65
Nsg66
Nsg67
Nsg68
Nsg69
Nsg70
NssS'tx A-tx B'
p3586
(dp3587
g64
Nsg65
Nsg66
Nsg67
Nsg68
Nsg69
Nsg70
Nsssg93
(dp3588
S'tx B-tx A'
p3589
(dp3590
g64
Nsg65
Nsg66
Nsg67
Nsg68
Nsg69
Nsg70
NssS'tx A-tx B'
p3591
(dp3592
g64
Nsg65
Nsg66
Nsg67
Nsg68
Nsg69
Nsg70
Nsssg99
(dp3593
S'tx B-tx A'
p3594
(dp3595
g64
Nsg65
Nsg66
Nsg67
Nsg68
Nsg69
Nsg70
NssS'tx A-tx B'
p3596
(dp3597
g64
Nsg65
Nsg66
Nsg67
Nsg68
Nsg69
Nsg70
Nsssg105
(dp3598
S'tx B-tx A'
p3599
(dp3600
g64
Nsg65
Nsg66
Nsg67
Nsg68
Nsg69
Nsg70
NssS'tx A-tx B'
p3601
(dp3602
g64
Nsg65
Nsg66
Nsg67
Nsg68
Nsg69
Nsg70
Nsssg111
(dp3603
g43
(dp3604
g64
Nsg65
Nsg66
Nsg67
Nsg68
Nsg69
Nsg70
Nssg49
(dp3605
g64
Nsg65
Nsg66
Nsg67
Nsg68
Nsg69
Nsg70
Nsssg115
(dp3606
g43
(dp3607
g64
Nsg65
Nsg66
Nsg67
Nsg68
Nsg69
Nsg70
Nssg49
(dp3608
g64
Nsg65
Nsg66
Nsg67
Nsg68
Nsg69
Nsg70
Nsssg119
(dp3609
g43
(dp3610
g64
Nsg65
Nsg66
Nsg67
Nsg68
Nsg69
Nsg70
Nssg49
(dp3611
g64
Nsg65
Nsg66
Nsg67
Nsg68
Nsg69
Nsg70
Nsssg123
(dp3612
S'tx B-tx A'
p3613
(dp3614
g64
Nsg65
Nsg66
Nsg67
Nsg68
Nsg69
Nsg70
NssS'tx A-tx B'
p3615
(dp3616
g64
F0.5491515375017606
sg65
F-4.2257105072276566
sg66
F-1.838279484862948
sg67
F1.7317830413799209
sg68
F0.15909090909090906
sg69
F0.014614946994286549
sg70
Nssssg129
I2
sbsssg130
I00
sg131
I1959
sg132
(lp3617
g54
asg48
I52
sba(ima_dataset
Study
p3618
(dp3619
g29
I01
sg30
VISIS-2
p3620
sg32
(dp3621
g34
F9.0
ssg18
g19
sg35
Nsg36
(dp3622
g7
(dp3623
g12
(ima_dataset
MetaAnalyticUnit
p3624
(dp3625
g22
I00
sg41
(dp3626
g43
(ima_dataset
TreatmentGroup
p3627
(dp3628
g46
(lp3629
F214.0
aF2018.0
asg48
I0
sg30
g43
sbsg49
(ima_dataset
TreatmentGroup
p3630
(dp3631
g46
(lp3632
F249.0
aF2008.0
asg48
I1
sg30
g49
sbssg53
g54
sg58
(dp3633
g60
(dp3634
S'tx B-tx A'
p3635
(dp3636
g64
Nsg65
Nsg66
Nsg67
Nsg68
Nsg69
Nsg70
NssS'tx A-tx B'
p3637
(dp3638
g64
Nsg65
Nsg66
Nsg67
Nsg68
Nsg69
Nsg70
Nsssg73
(dp3639
g43
(dp3640
g64
Nsg65
Nsg66
Nsg67
Nsg68
Nsg69
Nsg70
Nssg49
(dp3641
g64
Nsg65
Nsg66
Nsg67
Nsg68
Nsg69
Nsg70
Nsssg77
(dp3642
g43
(dp3643
g64
Nsg65
Nsg66
Nsg67
Nsg68
Nsg69
Nsg70
Nssg49
(dp3644
g64
Nsg65
Nsg66
Nsg67
Nsg68
Nsg69
Nsg70
Nsssg81
(dp3645
S'tx B-tx A'
p3646
(dp3647
g64
Nsg65
Nsg66
Nsg67
Nsg68
Nsg69
Nsg70
NssS'tx A-tx B'
p3648
(dp3649
g64
Nsg65
Nsg66
Nsg67
Nsg68
Nsg69
Nsg70
Nsssg87
(dp3650
S'tx B-tx A'
p3651
(dp3652
g64
Nsg65
Nsg66
Nsg67
Nsg68
Nsg69
Nsg70
NssS'tx A-tx B'
p3653
(dp3654
g64
Nsg65
Nsg66
Nsg67
Nsg68
Nsg69
Nsg70
Nsssg93
(dp3655
S'tx B-tx A'
p3656
(dp3657
g64
Nsg65
Nsg66
Nsg67
Nsg68
Nsg69
Nsg70
NssS'tx A-tx B'
p3658
(dp3659
g64
Nsg65
Nsg66
Nsg67
Nsg68
Nsg69
Nsg70
Nsssg99
(dp3660
S'tx B-tx A'
p3661
(dp3662
g64
Nsg65
Nsg66
Nsg67
Nsg68
Nsg69
Nsg70
NssS'tx A-tx B'
p3663
(dp3664
g64
Nsg65
Nsg66
Nsg67
Nsg68
Nsg69
Nsg70
Nsssg105
(dp3665
S'tx B-tx A'
p3666
(dp3667
g64
Nsg65
Nsg66
Nsg67
Nsg68
Nsg69
Nsg70
NssS'tx A-tx B'
p3668
(dp3669
g64
Nsg65
Nsg66
Nsg67
Nsg68
Nsg69
Nsg70
Nsssg111
(dp3670
g43
(dp3671
g64
Nsg65
Nsg66
Nsg67
Nsg68
Nsg69
Nsg70
Nssg49
(dp3672
g64
Nsg65
Nsg66
Nsg67
Nsg68
Nsg69
Nsg70
Nsssg115
(dp3673
g43
(dp3674
g64
Nsg65
Nsg66
Nsg67
Nsg68
Nsg69
Nsg70
Nssg49
(dp3675
g64
Nsg65
Nsg66
Nsg67
Nsg68
Nsg69
Nsg70
Nsssg119
(dp3676
g43
(dp3677
g64
Nsg65
Nsg66
Nsg67
Nsg68
Nsg69
Nsg70
Nssg49
(dp3678
g64
Nsg65
Nsg66
Nsg67
Nsg68
Nsg69
Nsg70
Nsssg123
(dp3679
S'tx B-tx A'
p3680
(dp3681
g64
Nsg65
Nsg66
Nsg67
Nsg68
Nsg69
Nsg70
NssS'tx A-tx B'
p3682
(dp3683
g64
F0.017405376004861667
sg65
F-0.37088105066059518
sg66
F-0.17673783732786674
sg67
F1.0175577322172582
sg68
F0.83799944790247483
sg69
F0.69012602671168832
sg70
Nssssg129
I2
sbsssg130
I00
sg131
I1988
sg132
(lp3684
g54
asg48
I53
sba(ima_dataset
Study
p3685
(dp3686
g29
I01
sg30
VEWP
p3687
sg32
(dp3688
g34
F9.0
ssg18
g19
sg35
Nsg36
(dp3689
g7
(dp3690
g12
(ima_dataset
MetaAnalyticUnit
p3691
(dp3692
g22
I00
sg41
(dp3693
g43
(ima_dataset
TreatmentGroup
p3694
(dp3695
g46
(lp3696
F18.0
aF85.0
asg48
I0
sg30
g43
sbsg49
(ima_dataset
TreatmentGroup
p3697
(dp3698
g46
(lp3699
F16.0
aF80.0
asg48
I1
sg30
g49
sbssg53
g54
sg58
(dp3700
g60
(dp3701
S'tx B-tx A'
p3702
(dp3703
g64
Nsg65
Nsg66
Nsg67
Nsg68
Nsg69
Nsg70
NssS'tx A-tx B'
p3704
(dp3705
g64
Nsg65
Nsg66
Nsg67
Nsg68
Nsg69
Nsg70
Nsssg73
(dp3706
g43
(dp3707
g64
Nsg65
Nsg66
Nsg67
Nsg68
Nsg69
Nsg70
Nssg49
(dp3708
g64
Nsg65
Nsg66
Nsg67
Nsg68
Nsg69
Nsg70
Nsssg77
(dp3709
g43
(dp3710
g64
Nsg65
Nsg66
Nsg67
Nsg68
Nsg69
Nsg70
Nssg49
(dp3711
g64
Nsg65
Nsg66
Nsg67
Nsg68
Nsg69
Nsg70
Nsssg81
(dp3712
S'tx B-tx A'
p3713
(dp3714
g64
Nsg65
Nsg66
Nsg67
Nsg68
Nsg69
Nsg70
NssS'tx A-tx B'
p3715
(dp3716
g64
Nsg65
Nsg66
Nsg67
Nsg68
Nsg69
Nsg70
Nsssg87
(dp3717
S'tx B-tx A'
p3718
(dp3719
g64
Nsg65
Nsg66
Nsg67
Nsg68
Nsg69
Nsg70
NssS'tx A-tx B'
p3720
(dp3721
g64
Nsg65
Nsg66
Nsg67
Nsg68
Nsg69
Nsg70
Nsssg93
(dp3722
S'tx B-tx A'
p3723
(dp3724
g64
Nsg65
Nsg66
Nsg67
Nsg68
Nsg69
Nsg70
NssS'tx A-tx B'
p3725
(dp3726
g64
Nsg65
Nsg66
Nsg67
Nsg68
Nsg69
Nsg70
Nsssg99
(dp3727
S'tx B-tx A'
p3728
(dp3729
g64
Nsg65
Nsg66
Nsg67
Nsg68
Nsg69
Nsg70
NssS'tx A-tx B'
p3730
(dp3731
g64
Nsg65
Nsg66
Nsg67
Nsg68
Nsg69
Nsg70
Nsssg105
(dp3732
S'tx B-tx A'
p3733
(dp3734
g64
Nsg65
Nsg66
Nsg67
Nsg68
Nsg69
Nsg70
NssS'tx A-tx B'
p3735
(dp3736
g64
Nsg65
Nsg66
Nsg67
Nsg68
Nsg69
Nsg70
Nsssg111
(dp3737
g43
(dp3738
g64
Nsg65
Nsg66
Nsg67
Nsg68
Nsg69
Nsg70
Nssg49
(dp3739
g64
Nsg65
Nsg66
Nsg67
Nsg68
Nsg69
Nsg70
Nsssg115
(dp3740
g43
(dp3741
g64
Nsg65
Nsg66
Nsg67
Nsg68
Nsg69
Nsg70
Nssg49
(dp3742
g64
Nsg65
Nsg66
Nsg67
Nsg68
Nsg69
Nsg70
Nsssg119
(dp3743
g43
(dp3744
g64
Nsg65
Nsg66
Nsg67
Nsg68
Nsg69
Nsg70
Nssg49
(dp3745
g64
Nsg65
Nsg66
Nsg67
Nsg68
Nsg69
Nsg70
Nsssg123
(dp3746
S'tx B-tx A'
p3747
(dp3748
g64
Nsg65
Nsg66
Nsg67
Nsg68
Nsg69
Nsg70
NssS'tx A-tx B'
p3749
(dp3750
g64
F0.82752863035559809
sg65
F-0.68358163110541981
sg66
F0.071973499625089143
sg67
F2.2876580995934259
sg68
F1.0746268656716418
sg69
F0.50480572277321401
sg70
Nssssg129
I2
sbsssg130
I00
sg131
I1971
sg132
(lp3751
g54
asg48
I54
sba(ima_dataset
Study
p3752
(dp3753
g29
I01
sg30
VHeikinheim
p3754
sg32
(dp3755
g34
F9.5
ssg18
g19
sg35
Nsg36
(dp3756
g7
(dp3757
g12
(ima_dataset
MetaAnalyticUnit
p3758
(dp3759
g22
I00
sg41
(dp3760
g43
(ima_dataset
TreatmentGroup
p3761
(dp3762
g46
(lp3763
F14.0
aF145.0
asg48
I0
sg30
g43
sbsg49
(ima_dataset
TreatmentGroup
p3764
(dp3765
g46
(lp3766
F12.0
aF136.0
asg48
I1
sg30
g49
sbssg53
g54
sg58
(dp3767
g60
(dp3768
S'tx B-tx A'
p3769
(dp3770
g64
Nsg65
Nsg66
Nsg67
Nsg68
Nsg69
Nsg70
NssS'tx A-tx B'
p3771
(dp3772
g64
Nsg65
Nsg66
Nsg67
Nsg68
Nsg69
Nsg70
Nsssg73
(dp3773
g43
(dp3774
g64
Nsg65
Nsg66
Nsg67
Nsg68
Nsg69
Nsg70
Nssg49
(dp3775
g64
Nsg65
Nsg66
Nsg67
Nsg68
Nsg69
Nsg70
Nsssg77
(dp3776
g43
(dp3777
g64
Nsg65
Nsg66
Nsg67
Nsg68
Nsg69
Nsg70
Nssg49
(dp3778
g64
Nsg65
Nsg66
Nsg67
Nsg68
Nsg69
Nsg70
Nsssg81
(dp3779
S'tx B-tx A'
p3780
(dp3781
g64
Nsg65
Nsg66
Nsg67
Nsg68
Nsg69
Nsg70
NssS'tx A-tx B'
p3782
(dp3783
g64
Nsg65
Nsg66
Nsg67
Nsg68
Nsg69
Nsg70
Nsssg87
(dp3784
S'tx B-tx A'
p3785
(dp3786
g64
Nsg65
Nsg66
Nsg67
Nsg68
Nsg69
Nsg70
NssS'tx A-tx B'
p3787
(dp3788
g64
Nsg65
Nsg66
Nsg67
Nsg68
Nsg69
Nsg70
Nsssg93
(dp3789
S'tx B-tx A'
p3790
(dp3791
g64
Nsg65
Nsg66
Nsg67
Nsg68
Nsg69
Nsg70
NssS'tx A-tx B'
p3792
(dp3793
g64
Nsg65
Nsg66
Nsg67
Nsg68
Nsg69
Nsg70
Nsssg99
(dp3794
S'tx B-tx A'
p3795
(dp3796
g64
Nsg65
Nsg66
Nsg67
Nsg68
Nsg69
Nsg70
NssS'tx A-tx B'
p3797
(dp3798
g64
Nsg65
Nsg66
Nsg67
Nsg68
Nsg69
Nsg70
Nsssg105
(dp3799
S'tx B-tx A'
p3800
(dp3801
g64
Nsg65
Nsg66
Nsg67
Nsg68
Nsg69
Nsg70
NssS'tx A-tx B'
p3802
(dp3803
g64
Nsg65
Nsg66
Nsg67
Nsg68
Nsg69
Nsg70
Nsssg111
(dp3804
g43
(dp3805
g64
Nsg65
Nsg66
Nsg67
Nsg68
Nsg69
Nsg70
Nssg49
(dp3806
g64
Nsg65
Nsg66
Nsg67
Nsg68
Nsg69
Nsg70
Nsssg115
(dp3807
g43
(dp3808
g64
Nsg65
Nsg66
Nsg67
Nsg68
Nsg69
Nsg70
Nssg49
(dp3809
g64
Nsg65
Nsg66
Nsg67
Nsg68
Nsg69
Nsg70
Nsssg119
(dp3810
g43
(dp3811
g64
Nsg65
Nsg66
Nsg67
Nsg68
Nsg69
Nsg70
Nssg49
(dp3812
g64
Nsg65
Nsg66
Nsg67
Nsg68
Nsg69
Nsg70
Nsssg123
(dp3813
S'tx B-tx A'
p3814
(dp3815
g64
Nsg65
Nsg66
Nsg67
Nsg68
Nsg69
Nsg70
NssS'tx A-tx B'
p3816
(dp3817
g64
F0.90844138779392769
sg65
F-0.7099715433316407
sg66
F0.099234922231143496
sg67
F2.4804534539409402
sg68
F1.1043256997455468
sg69
F0.49165818821590723
sg70
Nssssg129
I2
sbsssg130
I00
sg131
I1971
sg132
(lp3818
g54
asg48
I55
sba(ima_dataset
Study
p3819
(dp3820
g29
I01
sg30
VECSG-1
p3821
sg32
(dp3822
g34
F10.5
ssg18
g19
sg35
Nsg36
(dp3823
g7
(dp3824
g12
(ima_dataset
MetaAnalyticUnit
p3825
(dp3826
g22
I00
sg41
(dp3827
g43
(ima_dataset
TreatmentGroup
p3828
(dp3829
g46
(lp3830
F5.0
aF44.0
asg48
I0
sg30
g43
sbsg49
(ima_dataset
TreatmentGroup
p3831
(dp3832
g46
(lp3833
F11.0
aF34.0
asg48
I1
sg30
g49
sbssg53
g54
sg58
(dp3834
g60
(dp3835
S'tx B-tx A'
p3836
(dp3837
g64
Nsg65
Nsg66
Nsg67
Nsg68
Nsg69
Nsg70
NssS'tx A-tx B'
p3838
(dp3839
g64
Nsg65
Nsg66
Nsg67
Nsg68
Nsg69
Nsg70
Nsssg73
(dp3840
g43
(dp3841
g64
Nsg65
Nsg66
Nsg67
Nsg68
Nsg69
Nsg70
Nssg49
(dp3842
g64
Nsg65
Nsg66
Nsg67
Nsg68
Nsg69
Nsg70
Nsssg77
(dp3843
g43
(dp3844
g64
Nsg65
Nsg66
Nsg67
Nsg68
Nsg69
Nsg70
Nssg49
(dp3845
g64
Nsg65
Nsg66
Nsg67
Nsg68
Nsg69
Nsg70
Nsssg81
(dp3846
S'tx B-tx A'
p3847
(dp3848
g64
Nsg65
Nsg66
Nsg67
Nsg68
Nsg69
Nsg70
NssS'tx A-tx B'
p3849
(dp3850
g64
Nsg65
Nsg66
Nsg67
Nsg68
Nsg69
Nsg70
Nsssg87
(dp3851
S'tx B-tx A'
p3852
(dp3853
g64
Nsg65
Nsg66
Nsg67
Nsg68
Nsg69
Nsg70
NssS'tx A-tx B'
p3854
(dp3855
g64
Nsg65
Nsg66
Nsg67
Nsg68
Nsg69
Nsg70
Nsssg93
(dp3856
S'tx B-tx A'
p3857
(dp3858
g64
Nsg65
Nsg66
Nsg67
Nsg68
Nsg69
Nsg70
NssS'tx A-tx B'
p3859
(dp3860
g64
Nsg65
Nsg66
Nsg67
Nsg68
Nsg69
Nsg70
Nsssg99
(dp3861
S'tx B-tx A'
p3862
(dp3863
g64
Nsg65
Nsg66
Nsg67
Nsg68
Nsg69
Nsg70
NssS'tx A-tx B'
p3864
(dp3865
g64
Nsg65
Nsg66
Nsg67
Nsg68
Nsg69
Nsg70
Nsssg105
(dp3866
S'tx B-tx A'
p3867
(dp3868
g64
Nsg65
Nsg66
Nsg67
Nsg68
Nsg69
Nsg70
NssS'tx A-tx B'
p3869
(dp3870
g64
Nsg65
Nsg66
Nsg67
Nsg68
Nsg69
Nsg70
Nsssg111
(dp3871
g43
(dp3872
g64
Nsg65
Nsg66
Nsg67
Nsg68
Nsg69
Nsg70
Nssg49
(dp3873
g64
Nsg65
Nsg66
Nsg67
Nsg68
Nsg69
Nsg70
Nsssg115
(dp3874
g43
(dp3875
g64
Nsg65
Nsg66
Nsg67
Nsg68
Nsg69
Nsg70
Nssg49
(dp3876
g64
Nsg65
Nsg66
Nsg67
Nsg68
Nsg69
Nsg70
Nsssg119
(dp3877
g43
(dp3878
g64
Nsg65
Nsg66
Nsg67
Nsg68
Nsg69
Nsg70
Nssg49
(dp3879
g64
Nsg65
Nsg66
Nsg67
Nsg68
Nsg69
Nsg70
Nsssg123
(dp3880
S'tx B-tx A'
p3881
(dp3882
g64
Nsg65
Nsg66
Nsg67
Nsg68
Nsg69
Nsg70
NssS'tx A-tx B'
p3883
(dp3884
g64
F-0.14050005182028436
sg65
F-2.4925495293092501
sg66
F-1.3165247905647672
sg67
F0.8689236199049063
sg68
F0.26806526806526798
sg69
F0.082698854418030585
sg70
Nssssg129
I2
sbsssg130
I00
sg131
I1979
sg132
(lp3885
g54
asg48
I56
sba(ima_dataset
Study
p3886
(dp3887
g29
I01
sg30
VGISSI
p3888
sg32
(dp3889
g34
F10.5
ssg18
g19
sg35
Nsg36
(dp3890
g7
(dp3891
g12
(ima_dataset
MetaAnalyticUnit
p3892
(dp3893
g22
I00
sg41
(dp3894
g43
(ima_dataset
TreatmentGroup
p3895
(dp3896
g46
(lp3897
F46.0
aF292.0
asg48
I0
sg30
g43
sbsg49
(ima_dataset
TreatmentGroup
p3898
(dp3899
g46
(lp3900
F41.0
aF302.0
asg48
I1
sg30
g49
sbssg53
g54
sg58
(dp3901
g60
(dp3902
S'tx B-tx A'
p3903
(dp3904
g64
Nsg65
Nsg66
Nsg67
Nsg68
Nsg69
Nsg70
NssS'tx A-tx B'
p3905
(dp3906
g64
Nsg65
Nsg66
Nsg67
Nsg68
Nsg69
Nsg70
Nsssg73
(dp3907
g43
(dp3908
g64
Nsg65
Nsg66
Nsg67
Nsg68
Nsg69
Nsg70
Nssg49
(dp3909
g64
Nsg65
Nsg66
Nsg67
Nsg68
Nsg69
Nsg70
Nsssg77
(dp3910
g43
(dp3911
g64
Nsg65
Nsg66
Nsg67
Nsg68
Nsg69
Nsg70
Nssg49
(dp3912
g64
Nsg65
Nsg66
Nsg67
Nsg68
Nsg69
Nsg70
Nsssg81
(dp3913
S'tx B-tx A'
p3914
(dp3915
g64
Nsg65
Nsg66
Nsg67
Nsg68
Nsg69
Nsg70
NssS'tx A-tx B'
p3916
(dp3917
g64
Nsg65
Nsg66
Nsg67
Nsg68
Nsg69
Nsg70
Nsssg87
(dp3918
S'tx B-tx A'
p3919
(dp3920
g64
Nsg65
Nsg66
Nsg67
Nsg68
Nsg69
Nsg70
NssS'tx A-tx B'
p3921
(dp3922
g64
Nsg65
Nsg66
Nsg67
Nsg68
Nsg69
Nsg70
Nsssg93
(dp3923
S'tx B-tx A'
p3924
(dp3925
g64
Nsg65
Nsg66
Nsg67
Nsg68
Nsg69
Nsg70
NssS'tx A-tx B'
p3926
(dp3927
g64
Nsg65
Nsg66
Nsg67
Nsg68
Nsg69
Nsg70
Nsssg99
(dp3928
S'tx B-tx A'
p3929
(dp3930
g64
Nsg65
Nsg66
Nsg67
Nsg68
Nsg69
Nsg70
NssS'tx A-tx B'
p3931
(dp3932
g64
Nsg65
Nsg66
Nsg67
Nsg68
Nsg69
Nsg70
Nsssg105
(dp3933
S'tx B-tx A'
p3934
(dp3935
g64
Nsg65
Nsg66
Nsg67
Nsg68
Nsg69
Nsg70
NssS'tx A-tx B'
p3936
(dp3937
g64
Nsg65
Nsg66
Nsg67
Nsg68
Nsg69
Nsg70
Nsssg111
(dp3938
g43
(dp3939
g64
Nsg65
Nsg66
Nsg67
Nsg68
Nsg69
Nsg70
Nssg49
(dp3940
g64
Nsg65
Nsg66
Nsg67
Nsg68
Nsg69
Nsg70
Nsssg115
(dp3941
g43
(dp3942
g64
Nsg65
Nsg66
Nsg67
Nsg68
Nsg69
Nsg70
Nssg49
(dp3943
g64
Nsg65
Nsg66
Nsg67
Nsg68
Nsg69
Nsg70
Nsssg119
(dp3944
g43
(dp3945
g64
Nsg65
Nsg66
Nsg67
Nsg68
Nsg69
Nsg70
Nssg49
(dp3946
g64
Nsg65
Nsg66
Nsg67
Nsg68
Nsg69
Nsg70
Nsssg123
(dp3947
S'tx B-tx A'
p3948
(dp3949
g64
Nsg65
Nsg66
Nsg67
Nsg68
Nsg69
Nsg70
NssS'tx A-tx B'
p3950
(dp3951
g64
F0.62982160097067308
sg65
F-0.28130519862043724
sg66
F0.17425820117511792
sg67
F1.8772756452363895
sg68
F1.1903628792385486
sg69
F0.75479793703426079
sg70
Nssssg129
I2
sbsssg130
I00
sg131
I1986
sg132
(lp3952
g54
asg48
I57
sba(ima_dataset
Study
p3953
(dp3954
g29
I01
sg30
VBett
p3955
sg32
(dp3956
g34
F12.5
ssg18
g19
sg35
Nsg36
(dp3957
g7
(dp3958
g12
(ima_dataset
MetaAnalyticUnit
p3959
(dp3960
g22
I00
sg41
(dp3961
g43
(ima_dataset
TreatmentGroup
p3962
(dp3963
g46
(lp3964
F9.0
aF87.0
asg48
I0
sg30
g43
sbsg49
(ima_dataset
TreatmentGroup
p3965
(dp3966
g46
(lp3967
F12.0
aF80.0
asg48
I1
sg30
g49
sbssg53
g54
sg58
(dp3968
g60
(dp3969
S'tx B-tx A'
p3970
(dp3971
g64
Nsg65
Nsg66
Nsg67
Nsg68
Nsg69
Nsg70
NssS'tx A-tx B'
p3972
(dp3973
g64
Nsg65
Nsg66
Nsg67
Nsg68
Nsg69
Nsg70
Nsssg73
(dp3974
g43
(dp3975
g64
Nsg65
Nsg66
Nsg67
Nsg68
Nsg69
Nsg70
Nssg49
(dp3976
g64
Nsg65
Nsg66
Nsg67
Nsg68
Nsg69
Nsg70
Nsssg77
(dp3977
g43
(dp3978
g64
Nsg65
Nsg66
Nsg67
Nsg68
Nsg69
Nsg70
Nssg49
(dp3979
g64
Nsg65
Nsg66
Nsg67
Nsg68
Nsg69
Nsg70
Nsssg81
(dp3980
S'tx B-tx A'
p3981
(dp3982
g64
Nsg65
Nsg66
Nsg67
Nsg68
Nsg69
Nsg70
NssS'tx A-tx B'
p3983
(dp3984
g64
Nsg65
Nsg66
Nsg67
Nsg68
Nsg69
Nsg70
Nsssg87
(dp3985
S'tx B-tx A'
p3986
(dp3987
g64
Nsg65
Nsg66
Nsg67
Nsg68
Nsg69
Nsg70
NssS'tx A-tx B'
p3988
(dp3989
g64
Nsg65
Nsg66
Nsg67
Nsg68
Nsg69
Nsg70
Nsssg93
(dp3990
S'tx B-tx A'
p3991
(dp3992
g64
Nsg65
Nsg66
Nsg67
Nsg68
Nsg69
Nsg70
NssS'tx A-tx B'
p3993
(dp3994
g64
Nsg65
Nsg66
Nsg67
Nsg68
Nsg69
Nsg70
Nsssg99
(dp3995
S'tx B-tx A'
p3996
(dp3997
g64
Nsg65
Nsg66
Nsg67
Nsg68
Nsg69
Nsg70
NssS'tx A-tx B'
p3998
(dp3999
g64
Nsg65
Nsg66
Nsg67
Nsg68
Nsg69
Nsg70
Nsssg105
(dp4000
S'tx B-tx A'
p4001
(dp4002
g64
Nsg65
Nsg66
Nsg67
Nsg68
Nsg69
Nsg70
NssS'tx A-tx B'
p4003
(dp4004
g64
Nsg65
Nsg66
Nsg67
Nsg68
Nsg69
Nsg70
Nsssg111
(dp4005
g43
(dp4006
g64
Nsg65
Nsg66
Nsg67
Nsg68
Nsg69
Nsg70
Nssg49
(dp4007
g64
Nsg65
Nsg66
Nsg67
Nsg68
Nsg69
Nsg70
Nsssg115
(dp4008
g43
(dp4009
g64
Nsg65
Nsg66
Nsg67
Nsg68
Nsg69
Nsg70
Nssg49
(dp4010
g64
Nsg65
Nsg66
Nsg67
Nsg68
Nsg69
Nsg70
Nsssg119
(dp4011
g43
(dp4012
g64
Nsg65
Nsg66
Nsg67
Nsg68
Nsg69
Nsg70
Nssg49
(dp4013
g64
Nsg65
Nsg66
Nsg67
Nsg68
Nsg69
Nsg70
Nsssg123
(dp4014
S'tx B-tx A'
p4015
(dp4016
g64
Nsg65
Nsg66
Nsg67
Nsg68
Nsg69
Nsg70
NssS'tx A-tx B'
p4017
(dp4018
g64
F0.49852995289103474
sg65
F-1.3482963408215671
sg66
F-0.42488319396526619
sg67
F1.6462993533650889
sg68
F0.65384615384615374
sg69
F0.25968229412564253
sg70
Nssssg129
I2
sbsssg130
I00
sg131
I1973
sg132
(lp4019
g54
asg48
I58
sba(ima_dataset
Study
p4020
(dp4021
g29
I01
sg30
VEWP
p4022
sg32
(dp4023
g34
F15.0
ssg18
g19
sg35
Nsg36
(dp4024
g7
(dp4025
g12
(ima_dataset
MetaAnalyticUnit
p4026
(dp4027
g22
I00
sg41
(dp4028
g43
(ima_dataset
TreatmentGroup
p4029
(dp4030
g46
(lp4031
F7.0
aF38.0
asg48
I0
sg30
g43
sbsg49
(ima_dataset
TreatmentGroup
p4032
(dp4033
g46
(lp4034
F10.0
aF39.0
asg48
I1
sg30
g49
sbssg53
g54
sg58
(dp4035
g60
(dp4036
S'tx B-tx A'
p4037
(dp4038
g64
Nsg65
Nsg66
Nsg67
Nsg68
Nsg69
Nsg70
NssS'tx A-tx B'
p4039
(dp4040
g64
Nsg65
Nsg66
Nsg67
Nsg68
Nsg69
Nsg70
Nsssg73
(dp4041
g43
(dp4042
g64
Nsg65
Nsg66
Nsg67
Nsg68
Nsg69
Nsg70
Nssg49
(dp4043
g64
Nsg65
Nsg66
Nsg67
Nsg68
Nsg69
Nsg70
Nsssg77
(dp4044
g43
(dp4045
g64
Nsg65
Nsg66
Nsg67
Nsg68
Nsg69
Nsg70
Nssg49
(dp4046
g64
Nsg65
Nsg66
Nsg67
Nsg68
Nsg69
Nsg70
Nsssg81
(dp4047
S'tx B-tx A'
p4048
(dp4049
g64
Nsg65
Nsg66
Nsg67
Nsg68
Nsg69
Nsg70
NssS'tx A-tx B'
p4050
(dp4051
g64
Nsg65
Nsg66
Nsg67
Nsg68
Nsg69
Nsg70
Nsssg87
(dp4052
S'tx B-tx A'
p4053
(dp4054
g64
Nsg65
Nsg66
Nsg67
Nsg68
Nsg69
Nsg70
NssS'tx A-tx B'
p4055
(dp4056
g64
Nsg65
Nsg66
Nsg67
Nsg68
Nsg69
Nsg70
Nsssg93
(dp4057
S'tx B-tx A'
p4058
(dp4059
g64
Nsg65
Nsg66
Nsg67
Nsg68
Nsg69
Nsg70
NssS'tx A-tx B'
p4060
(dp4061
g64
Nsg65
Nsg66
Nsg67
Nsg68
Nsg69
Nsg70
Nsssg99
(dp4062
S'tx B-tx A'
p4063
(dp4064
g64
Nsg65
Nsg66
Nsg67
Nsg68
Nsg69
Nsg70
NssS'tx A-tx B'
p4065
(dp4066
g64
Nsg65
Nsg66
Nsg67
Nsg68
Nsg69
Nsg70
Nsssg105
(dp4067
S'tx B-tx A'
p4068
(dp4069
g64
Nsg65
Nsg66
Nsg67
Nsg68
Nsg69
Nsg70
NssS'tx A-tx B'
p4070
(dp4071
g64
Nsg65
Nsg66
Nsg67
Nsg68
Nsg69
Nsg70
Nsssg111
(dp4072
g43
(dp4073
g64
Nsg65
Nsg66
Nsg67
Nsg68
Nsg69
Nsg70
Nssg49
(dp4074
g64
Nsg65
Nsg66
Nsg67
Nsg68
Nsg69
Nsg70
Nsssg115
(dp4075
g43
(dp4076
g64
Nsg65
Nsg66
Nsg67
Nsg68
Nsg69
Nsg70
Nssg49
(dp4077
g64
Nsg65
Nsg66
Nsg67
Nsg68
Nsg69
Nsg70
Nsssg119
(dp4078
g43
(dp4079
g64
Nsg65
Nsg66
Nsg67
Nsg68
Nsg69
Nsg70
Nssg49
(dp4080
g64
Nsg65
Nsg66
Nsg67
Nsg68
Nsg69
Nsg70
Nsssg123
(dp4081
S'tx B-tx A'
p4082
(dp4083
g64
Nsg65
Nsg66
Nsg67
Nsg68
Nsg69
Nsg70
NssS'tx A-tx B'
p4084
(dp4085
g64
F0.66718759464367872
sg65
F-1.5139202315184879
sg66
F-0.42336631843740458
sg67
F1.9487489345286915
sg68
F0.65483870967741942
sg69
F0.22004565498104911
sg70
Nssssg129
I2
sbsssg130
I00
sg131
I1971
sg132
(lp4086
g54
asg48
I59
sba(ima_dataset
Study
p4087
(dp4088
g29
I01
sg30
VISIS-2
p4089
sg32
(dp4090
g34
F18.0
ssg18
g19
sg35
Nsg36
(dp4091
g7
(dp4092
g12
(ima_dataset
MetaAnalyticUnit
p4093
(dp4094
g22
I00
sg41
(dp4095
g43
(ima_dataset
TreatmentGroup
p4096
(dp4097
g46
(lp4098
F106.0
aF1224.0
asg48
I0
sg30
g43
sbsg49
(ima_dataset
TreatmentGroup
p4099
(dp4100
g46
(lp4101
F132.0
aF1227.0
asg48
I1
sg30
g49
sbssg53
g54
sg58
(dp4102
g60
(dp4103
S'tx B-tx A'
p4104
(dp4105
g64
Nsg65
Nsg66
Nsg67
Nsg68
Nsg69
Nsg70
NssS'tx A-tx B'
p4106
(dp4107
g64
Nsg65
Nsg66
Nsg67
Nsg68
Nsg69
Nsg70
Nsssg73
(dp4108
g43
(dp4109
g64
Nsg65
Nsg66
Nsg67
Nsg68
Nsg69
Nsg70
Nssg49
(dp4110
g64
Nsg65
Nsg66
Nsg67
Nsg68
Nsg69
Nsg70
Nsssg77
(dp4111
g43
(dp4112
g64
Nsg65
Nsg66
Nsg67
Nsg68
Nsg69
Nsg70
Nssg49
(dp4113
g64
Nsg65
Nsg66
Nsg67
Nsg68
Nsg69
Nsg70
Nsssg81
(dp4114
S'tx B-tx A'
p4115
(dp4116
g64
Nsg65
Nsg66
Nsg67
Nsg68
Nsg69
Nsg70
NssS'tx A-tx B'
p4117
(dp4118
g64
Nsg65
Nsg66
Nsg67
Nsg68
Nsg69
Nsg70
Nsssg87
(dp4119
S'tx B-tx A'
p4120
(dp4121
g64
Nsg65
Nsg66
Nsg67
Nsg68
Nsg69
Nsg70
NssS'tx A-tx B'
p4122
(dp4123
g64
Nsg65
Nsg66
Nsg67
Nsg68
Nsg69
Nsg70
Nsssg93
(dp4124
S'tx B-tx A'
p4125
(dp4126
g64
Nsg65
Nsg66
Nsg67
Nsg68
Nsg69
Nsg70
NssS'tx A-tx B'
p4127
(dp4128
g64
Nsg65
Nsg66
Nsg67
Nsg68
Nsg69
Nsg70
Nsssg99
(dp4129
S'tx B-tx A'
p4130
(dp4131
g64
Nsg65
Nsg66
Nsg67
Nsg68
Nsg69
Nsg70
NssS'tx A-tx B'
p4132
(dp4133
g64
Nsg65
Nsg66
Nsg67
Nsg68
Nsg69
Nsg70
Nsssg105
(dp4134
S'tx B-tx A'
p4135
(dp4136
g64
Nsg65
Nsg66
Nsg67
Nsg68
Nsg69
Nsg70
NssS'tx A-tx B'
p4137
(dp4138
g64
Nsg65
Nsg66
Nsg67
Nsg68
Nsg69
Nsg70
Nsssg111
(dp4139
g43
(dp4140
g64
Nsg65
Nsg66
Nsg67
Nsg68
Nsg69
Nsg70
Nssg49
(dp4141
g64
Nsg65
Nsg66
Nsg67
Nsg68
Nsg69
Nsg70
Nsssg115
(dp4142
g43
(dp4143
g64
Nsg65
Nsg66
Nsg67
Nsg68
Nsg69
Nsg70
Nssg49
(dp4144
g64
Nsg65
Nsg66
Nsg67
Nsg68
Nsg69
Nsg70
Nsssg119
(dp4145
g43
(dp4146
g64
Nsg65
Nsg66
Nsg67
Nsg68
Nsg69
Nsg70
Nssg49
(dp4147
g64
Nsg65
Nsg66
Nsg67
Nsg68
Nsg69
Nsg70
Nsssg123
(dp4148
S'tx B-tx A'
p4149
(dp4150
g64
Nsg65
Nsg66
Nsg67
Nsg68
Nsg69
Nsg70
NssS'tx A-tx B'
p4151
(dp4152
g64
F0.028711331610028312
sg65
F-0.5090110114875217
sg66
F-0.24014983993874672
sg67
F1.0291274750214068
sg68
F0.78651000162628093
sg69
F0.60108975581018764
sg70
Nssssg129
I2
sbsssg130
I00
sg131
I1988
sg132
(lp4153
g54
asg48
I60
sba(ima_dataset
Study
p4154
(dp4155
g29
I01
sg30
VBett
p4156
sg32
(dp4157
g34
F20.5
ssg18
g19
sg35
Nsg36
(dp4158
g7
(dp4159
g12
(ima_dataset
MetaAnalyticUnit
p4160
(dp4161
g22
I00
sg41
(dp4162
g43
(ima_dataset
TreatmentGroup
p4163
(dp4164
g46
(lp4165
F4.0
aF53.0
asg48
I0
sg30
g43
sbsg49
(ima_dataset
TreatmentGroup
p4166
(dp4167
g46
(lp4168
F2.0
aF57.0
asg48
I1
sg30
g49
sbssg53
g54
sg58
(dp4169
g60
(dp4170
S'tx B-tx A'
p4171
(dp4172
g64
Nsg65
Nsg66
Nsg67
Nsg68
Nsg69
Nsg70
NssS'tx A-tx B'
p4173
(dp4174
g64
Nsg65
Nsg66
Nsg67
Nsg68
Nsg69
Nsg70
Nsssg73
(dp4175
g43
(dp4176
g64
Nsg65
Nsg66
Nsg67
Nsg68
Nsg69
Nsg70
Nssg49
(dp4177
g64
Nsg65
Nsg66
Nsg67
Nsg68
Nsg69
Nsg70
Nsssg77
(dp4178
g43
(dp4179
g64
Nsg65
Nsg66
Nsg67
Nsg68
Nsg69
Nsg70
Nssg49
(dp4180
g64
Nsg65
Nsg66
Nsg67
Nsg68
Nsg69
Nsg70
Nsssg81
(dp4181
S'tx B-tx A'
p4182
(dp4183
g64
Nsg65
Nsg66
Nsg67
Nsg68
Nsg69
Nsg70
NssS'tx A-tx B'
p4184
(dp4185
g64
Nsg65
Nsg66
Nsg67
Nsg68
Nsg69
Nsg70
Nsssg87
(dp4186
S'tx B-tx A'
p4187
(dp4188
g64
Nsg65
Nsg66
Nsg67
Nsg68
Nsg69
Nsg70
NssS'tx A-tx B'
p4189
(dp4190
g64
Nsg65
Nsg66
Nsg67
Nsg68
Nsg69
Nsg70
Nsssg93
(dp4191
S'tx B-tx A'
p4192
(dp4193
g64
Nsg65
Nsg66
Nsg67
Nsg68
Nsg69
Nsg70
NssS'tx A-tx B'
p4194
(dp4195
g64
Nsg65
Nsg66
Nsg67
Nsg68
Nsg69
Nsg70
Nsssg99
(dp4196
S'tx B-tx A'
p4197
(dp4198
g64
Nsg65
Nsg66
Nsg67
Nsg68
Nsg69
Nsg70
NssS'tx A-tx B'
p4199
(dp4200
g64
Nsg65
Nsg66
Nsg67
Nsg68
Nsg69
Nsg70
Nsssg105
(dp4201
S'tx B-tx A'
p4202
(dp4203
g64
Nsg65
Nsg66
Nsg67
Nsg68
Nsg69
Nsg70
NssS'tx A-tx B'
p4204
(dp4205
g64
Nsg65
Nsg66
Nsg67
Nsg68
Nsg69
Nsg70
Nsssg111
(dp4206
g43
(dp4207
g64
Nsg65
Nsg66
Nsg67
Nsg68
Nsg69
Nsg70
Nssg49
(dp4208
g64
Nsg65
Nsg66
Nsg67
Nsg68
Nsg69
Nsg70
Nsssg115
(dp4209
g43
(dp4210
g64
Nsg65
Nsg66
Nsg67
Nsg68
Nsg69
Nsg70
Nssg49
(dp4211
g64
Nsg65
Nsg66
Nsg67
Nsg68
Nsg69
Nsg70
Nsssg119
(dp4212
g43
(dp4213
g64
Nsg65
Nsg66
Nsg67
Nsg68
Nsg69
Nsg70
Nssg49
(dp4214
g64
Nsg65
Nsg66
Nsg67
Nsg68
Nsg69
Nsg70
Nsssg123
(dp4215
S'tx B-tx A'
p4216
(dp4217
g64
Nsg65
Nsg66
Nsg67
Nsg68
Nsg69
Nsg70
NssS'tx A-tx B'
p4218
(dp4219
g64
F2.5491588295719181
sg65
F-0.93183869420833898
sg66
F0.80866006768178966
sg67
F12.796335355367928
sg68
F2.2448979591836737
sg69
F0.39382891329375613
sg70
Nssssg129
I2
sbsssg130
I00
sg131
I1973
sg132
(lp4220
g54
asg48
I61
sba(ima_dataset
Study
p4221
(dp4222
g29
I01
sg30
VAmery
p4223
sg32
(dp4224
g34
F21.0
ssg18
g19
sg35
Nsg36
(dp4225
g7
(dp4226
g12
(ima_dataset
MetaAnalyticUnit
p4227
(dp4228
g22
I00
sg41
(dp4229
g43
(ima_dataset
TreatmentGroup
p4230
(dp4231
g46
(lp4232
F20.0
aF83.0
asg48
I0
sg30
g43
sbsg49
(ima_dataset
TreatmentGroup
p4233
(dp4234
g46
(lp4235
F15.0
aF84.0
asg48
I1
sg30
g49
sbssg53
g54
sg58
(dp4236
g60
(dp4237
S'tx B-tx A'
p4238
(dp4239
g64
Nsg65
Nsg66
Nsg67
Nsg68
Nsg69
Nsg70
NssS'tx A-tx B'
p4240
(dp4241
g64
Nsg65
Nsg66
Nsg67
Nsg68
Nsg69
Nsg70
Nsssg73
(dp4242
g43
(dp4243
g64
Nsg65
Nsg66
Nsg67
Nsg68
Nsg69
Nsg70
Nssg49
(dp4244
g64
Nsg65
Nsg66
Nsg67
Nsg68
Nsg69
Nsg70
Nsssg77
(dp4245
g43
(dp4246
g64
Nsg65
Nsg66
Nsg67
Nsg68
Nsg69
Nsg70
Nssg49
(dp4247
g64
Nsg65
Nsg66
Nsg67
Nsg68
Nsg69
Nsg70
Nsssg81
(dp4248
S'tx B-tx A'
p4249
(dp4250
g64
Nsg65
Nsg66
Nsg67
Nsg68
Nsg69
Nsg70
NssS'tx A-tx B'
p4251
(dp4252
g64
Nsg65
Nsg66
Nsg67
Nsg68
Nsg69
Nsg70
Nsssg87
(dp4253
S'tx B-tx A'
p4254
(dp4255
g64
Nsg65
Nsg66
Nsg67
Nsg68
Nsg69
Nsg70
NssS'tx A-tx B'
p4256
(dp4257
g64
Nsg65
Nsg66
Nsg67
Nsg68
Nsg69
Nsg70
Nsssg93
(dp4258
S'tx B-tx A'
p4259
(dp4260
g64
Nsg65
Nsg66
Nsg67
Nsg68
Nsg69
Nsg70
NssS'tx A-tx B'
p4261
(dp4262
g64
Nsg65
Nsg66
Nsg67
Nsg68
Nsg69
Nsg70
Nsssg99
(dp4263
S'tx B-tx A'
p4264
(dp4265
g64
Nsg65
Nsg66
Nsg67
Nsg68
Nsg69
Nsg70
NssS'tx A-tx B'
p4266
(dp4267
g64
Nsg65
Nsg66
Nsg67
Nsg68
Nsg69
Nsg70
Nsssg105
(dp4268
S'tx B-tx A'
p4269
(dp4270
g64
Nsg65
Nsg66
Nsg67
Nsg68
Nsg69
Nsg70
NssS'tx A-tx B'
p4271
(dp4272
g64
Nsg65
Nsg66
Nsg67
Nsg68
Nsg69
Nsg70
Nsssg111
(dp4273
g43
(dp4274
g64
Nsg65
Nsg66
Nsg67
Nsg68
Nsg69
Nsg70
Nssg49
(dp4275
g64
Nsg65
Nsg66
Nsg67
Nsg68
Nsg69
Nsg70
Nsssg115
(dp4276
g43
(dp4277
g64
Nsg65
Nsg66
Nsg67
Nsg68
Nsg69
Nsg70
Nssg49
(dp4278
g64
Nsg65
Nsg66
Nsg67
Nsg68
Nsg69
Nsg70
Nsssg119
(dp4279
g43
(dp4280
g64
Nsg65
Nsg66
Nsg67
Nsg68
Nsg69
Nsg70
Nssg49
(dp4281
g64
Nsg65
Nsg66
Nsg67
Nsg68
Nsg69
Nsg70
Nsssg123
(dp4282
S'tx B-tx A'
p4283
(dp4284
g64
Nsg65
Nsg66
Nsg67
Nsg68
Nsg69
Nsg70
NssS'tx A-tx B'
p4285
(dp4286
g64
F1.1301982930067316
sg65
F-0.37289059169171668
sg66
F0.37865385065750745
sg67
F3.0962704080247394
sg68
F1.46031746031746
sg69
F0.68874058266392779
sg70
Nssssg129
I2
sbsssg130
I00
sg131
I1969
sg132
(lp4287
g54
asg48
I62
sba(ima_dataset
Study
p4288
(dp4289
g29
I01
sg30
VEWP
p4290
sg32
(dp4291
g34
F21.0
ssg18
g19
sg35
Nsg36
(dp4292
g7
(dp4293
g12
(ima_dataset
MetaAnalyticUnit
p4294
(dp4295
g22
I00
sg41
(dp4296
g43
(ima_dataset
TreatmentGroup
p4297
(dp4298
g46
(lp4299
F8.0
aF31.0
asg48
I0
sg30
g43
sbsg49
(ima_dataset
TreatmentGroup
p4300
(dp4301
g46
(lp4302
F10.0
aF29.0
asg48
I1
sg30
g49
sbssg53
g54
sg58
(dp4303
g60
(dp4304
S'tx B-tx A'
p4305
(dp4306
g64
Nsg65
Nsg66
Nsg67
Nsg68
Nsg69
Nsg70
NssS'tx A-tx B'
p4307
(dp4308
g64
Nsg65
Nsg66
Nsg67
Nsg68
Nsg69
Nsg70
Nsssg73
(dp4309
g43
(dp4310
g64
Nsg65
Nsg66
Nsg67
Nsg68
Nsg69
Nsg70
Nssg49
(dp4311
g64
Nsg65
Nsg66
Nsg67
Nsg68
Nsg69
Nsg70
Nsssg77
(dp4312
g43
(dp4313
g64
Nsg65
Nsg66
Nsg67
Nsg68
Nsg69
Nsg70
Nssg49
(dp4314
g64
Nsg65
Nsg66
Nsg67
Nsg68
Nsg69
Nsg70
Nsssg81
(dp4315
S'tx B-tx A'
p4316
(dp4317
g64
Nsg65
Nsg66
Nsg67
Nsg68
Nsg69
Nsg70
NssS'tx A-tx B'
p4318
(dp4319
g64
Nsg65
Nsg66
Nsg67
Nsg68
Nsg69
Nsg70
Nsssg87
(dp4320
S'tx B-tx A'
p4321
(dp4322
g64
Nsg65
Nsg66
Nsg67
Nsg68
Nsg69
Nsg70
NssS'tx A-tx B'
p4323
(dp4324
g64
Nsg65
Nsg66
Nsg67
Nsg68
Nsg69
Nsg70
Nsssg93
(dp4325
S'tx B-tx A'
p4326
(dp4327
g64
Nsg65
Nsg66
Nsg67
Nsg68
Nsg69
Nsg70
NssS'tx A-tx B'
p4328
(dp4329
g64
Nsg65
Nsg66
Nsg67
Nsg68
Nsg69
Nsg70
Nsssg99
(dp4330
S'tx B-tx A'
p4331
(dp4332
g64
Nsg65
Nsg66
Nsg67
Nsg68
Nsg69
Nsg70
NssS'tx A-tx B'
p4333
(dp4334
g64
Nsg65
Nsg66
Nsg67
Nsg68
Nsg69
Nsg70
Nsssg105
(dp4335
S'tx B-tx A'
p4336
(dp4337
g64
Nsg65
Nsg66
Nsg67
Nsg68
Nsg69
Nsg70
NssS'tx A-tx B'
p4338
(dp4339
g64
Nsg65
Nsg66
Nsg67
Nsg68
Nsg69
Nsg70
Nsssg111
(dp4340
g43
(dp4341
g64
Nsg65
Nsg66
Nsg67
Nsg68
Nsg69
Nsg70
Nssg49
(dp4342
g64
Nsg65
Nsg66
Nsg67
Nsg68
Nsg69
Nsg70
Nsssg115
(dp4343
g43
(dp4344
g64
Nsg65
Nsg66
Nsg67
Nsg68
Nsg69
Nsg70
Nssg49
(dp4345
g64
Nsg65
Nsg66
Nsg67
Nsg68
Nsg69
Nsg70
Nsssg119
(dp4346
g43
(dp4347
g64
Nsg65
Nsg66
Nsg67
Nsg68
Nsg69
Nsg70
Nssg49
(dp4348
g64
Nsg65
Nsg66
Nsg67
Nsg68
Nsg69
Nsg70
Nsssg123
(dp4349
S'tx B-tx A'
p4350
(dp4351
g64
Nsg65
Nsg66
Nsg67
Nsg68
Nsg69
Nsg70
NssS'tx A-tx B'
p4352
(dp4353
g64
F0.69644527127622791
sg65
F-1.5248428474300662
sg66
F-0.41419878807691912
sg67
F2.0066070708030241
sg68
F0.66086956521739126
sg69
F0.21765525926101778
sg70
Nssssg129
I2
sbsssg130
I00
sg131
I1971
sg132
(lp4354
g54
asg48
I63
sba(ima_dataset
Study
p4355
(dp4356
g29
I01
sg30
VHeikinheim
p4357
sg32
(dp4358
g34
F22.0
ssg18
g19
sg35
Nsg36
(dp4359
g7
(dp4360
g12
(ima_dataset
MetaAnalyticUnit
p4361
(dp4362
g22
I00
sg41
(dp4363
g43
(ima_dataset
TreatmentGroup
p4364
(dp4365
g46
(lp4366
F8.0
aF74.0
asg48
I0
sg30
g43
sbsg49
(ima_dataset
TreatmentGroup
p4367
(dp4368
g46
(lp4369
F5.0
aF71.0
asg48
I1
sg30
g49
sbssg53
g54
sg58
(dp4370
g60
(dp4371
S'tx B-tx A'
p4372
(dp4373
g64
Nsg65
Nsg66
Nsg67
Nsg68
Nsg69
Nsg70
NssS'tx A-tx B'
p4374
(dp4375
g64
Nsg65
Nsg66
Nsg67
Nsg68
Nsg69
Nsg70
Nsssg73
(dp4376
g43
(dp4377
g64
Nsg65
Nsg66
Nsg67
Nsg68
Nsg69
Nsg70
Nssg49
(dp4378
g64
Nsg65
Nsg66
Nsg67
Nsg68
Nsg69
Nsg70
Nsssg77
(dp4379
g43
(dp4380
g64
Nsg65
Nsg66
Nsg67
Nsg68
Nsg69
Nsg70
Nssg49
(dp4381
g64
Nsg65
Nsg66
Nsg67
Nsg68
Nsg69
Nsg70
Nsssg81
(dp4382
S'tx B-tx A'
p4383
(dp4384
g64
Nsg65
Nsg66
Nsg67
Nsg68
Nsg69
Nsg70
NssS'tx A-tx B'
p4385
(dp4386
g64
Nsg65
Nsg66
Nsg67
Nsg68
Nsg69
Nsg70
Nsssg87
(dp4387
S'tx B-tx A'
p4388
(dp4389
g64
Nsg65
Nsg66
Nsg67
Nsg68
Nsg69
Nsg70
NssS'tx A-tx B'
p4390
(dp4391
g64
Nsg65
Nsg66
Nsg67
Nsg68
Nsg69
Nsg70
Nsssg93
(dp4392
S'tx B-tx A'
p4393
(dp4394
g64
Nsg65
Nsg66
Nsg67
Nsg68
Nsg69
Nsg70
NssS'tx A-tx B'
p4395
(dp4396
g64
Nsg65
Nsg66
Nsg67
Nsg68
Nsg69
Nsg70
Nsssg99
(dp4397
S'tx B-tx A'
p4398
(dp4399
g64
Nsg65
Nsg66
Nsg67
Nsg68
Nsg69
Nsg70
NssS'tx A-tx B'
p4400
(dp4401
g64
Nsg65
Nsg66
Nsg67
Nsg68
Nsg69
Nsg70
Nsssg105
(dp4402
S'tx B-tx A'
p4403
(dp4404
g64
Nsg65
Nsg66
Nsg67
Nsg68
Nsg69
Nsg70
NssS'tx A-tx B'
p4405
(dp4406
g64
Nsg65
Nsg66
Nsg67
Nsg68
Nsg69
Nsg70
Nsssg111
(dp4407
g43
(dp4408
g64
Nsg65
Nsg66
Nsg67
Nsg68
Nsg69
Nsg70
Nssg49
(dp4409
g64
Nsg65
Nsg66
Nsg67
Nsg68
Nsg69
Nsg70
Nsssg115
(dp4410
g43
(dp4411
g64
Nsg65
Nsg66
Nsg67
Nsg68
Nsg69
Nsg70
Nssg49
(dp4412
g64
Nsg65
Nsg66
Nsg67
Nsg68
Nsg69
Nsg70
Nsssg119
(dp4413
g43
(dp4414
g64
Nsg65
Nsg66
Nsg67
Nsg68
Nsg69
Nsg70
Nssg49
(dp4415
g64
Nsg65
Nsg66
Nsg67
Nsg68
Nsg69
Nsg70
Nsssg123
(dp4416
S'tx B-tx A'
p4417
(dp4418
g64
Nsg65
Nsg66
Nsg67
Nsg68
Nsg69
Nsg70
NssS'tx A-tx B'
p4419
(dp4420
g64
F1.6382852561563566
sg65
F-0.69827799766488519
sg66
F0.47000362924573569
sg67
F5.14633729171267
sg68
F1.6000000000000003
sg69
F0.49744116152714274
sg70
Nssssg129
I2
sbsssg130
I00
sg131
I1971
sg132
(lp4421
g54
asg48
I64
sba(ima_dataset
Study
p4422
(dp4423
g29
I00
sg30
g19
sg32
(dp4424
g34
Nssg18
g19
sg35
Nsg36
(dp4425
g7
(dp4426
g12
(ima_dataset
MetaAnalyticUnit
p4427
(dp4428
g22
I00
sg41
(dp4429
g43
(ima_dataset
TreatmentGroup
p4430
(dp4431
g46
(lp4432
g19
ag19
asg48
I0
sg30
g43
sbsg49
(ima_dataset
TreatmentGroup
p4433
(dp4434
g46
(lp4435
g19
ag19
asg48
I1
sg30
g49
sbssg53
g54
sg58
(dp4436
g60
(dp4437
S'tx B-tx A'
p4438
(dp4439
g64
Nsg65
Nsg66
Nsg67
Nsg68
Nsg69
Nsg70
NssS'tx A-tx B'
p4440
(dp4441
g64
Nsg65
Nsg66
Nsg67
Nsg68
Nsg69
Nsg70
Nsssg73
(dp4442
g43
(dp4443
g64
Nsg65
Nsg66
Nsg67
Nsg68
Nsg69
Nsg70
Nssg49
(dp4444
g64
Nsg65
Nsg66
Nsg67
Nsg68
Nsg69
Nsg70
Nsssg77
(dp4445
g43
(dp4446
g64
Nsg65
Nsg66
Nsg67
Nsg68
Nsg69
Nsg70
Nssg49
(dp4447
g64
Nsg65
Nsg66
Nsg67
Nsg68
Nsg69
Nsg70
Nsssg81
(dp4448
S'tx B-tx A'
p4449
(dp4450
g64
Nsg65
Nsg66
Nsg67
Nsg68
Nsg69
Nsg70
NssS'tx A-tx B'
p4451
(dp4452
g64
Nsg65
Nsg66
Nsg67
Nsg68
Nsg69
Nsg70
Nsssg87
(dp4453
S'tx B-tx A'
p4454
(dp4455
g64
Nsg65
Nsg66
Nsg67
Nsg68
Nsg69
Nsg70
NssS'tx A-tx B'
p4456
(dp4457
g64
Nsg65
Nsg66
Nsg67
Nsg68
Nsg69
Nsg70
Nsssg93
(dp4458
S'tx B-tx A'
p4459
(dp4460
g64
Nsg65
Nsg66
Nsg67
Nsg68
Nsg69
Nsg70
NssS'tx A-tx B'
p4461
(dp4462
g64
Nsg65
Nsg66
Nsg67
Nsg68
Nsg69
Nsg70
Nsssg99
(dp4463
S'tx B-tx A'
p4464
(dp4465
g64
Nsg65
Nsg66
Nsg67
Nsg68
Nsg69
Nsg70
NssS'tx A-tx B'
p4466
(dp4467
g64
Nsg65
Nsg66
Nsg67
Nsg68
Nsg69
Nsg70
Nsssg105
(dp4468
S'tx B-tx A'
p4469
(dp4470
g64
Nsg65
Nsg66
Nsg67
Nsg68
Nsg69
Nsg70
NssS'tx A-tx B'
p4471
(dp4472
g64
Nsg65
Nsg66
Nsg67
Nsg68
Nsg69
Nsg70
Nsssg111
(dp4473
g43
(dp4474
g64
Nsg65
Nsg66
Nsg67
Nsg68
Nsg69
Nsg70
Nssg49
(dp4475
g64
Nsg65
Nsg66
Nsg67
Nsg68
Nsg69
Nsg70
Nsssg115
(dp4476
g43
(dp4477
g64
Nsg65
Nsg66
Nsg67
Nsg68
Nsg69
Nsg70
Nssg49
(dp4478
g64
Nsg65
Nsg66
Nsg67
Nsg68
Nsg69
Nsg70
Nsssg119
(dp4479
g43
(dp4480
g64
Nsg65
Nsg66
Nsg67
Nsg68
Nsg69
Nsg70
Nssg49
(dp4481
g64
Nsg65
Nsg66
Nsg67
Nsg68
Nsg69
Nsg70
Nsssg123
(dp4482
S'tx B-tx A'
p4483
(dp4484
g64
Nsg65
Nsg66
Nsg67
Nsg68
Nsg69
Nsg70
NssS'tx A-tx B'
p4485
(dp4486
g64
Nsg65
Nsg66
Nsg67
Nsg68
Nsg69
Nsg70
Nssssg129
I2
sbsssg130
I00
sg131
Nsg132
(lp4487
g54
asg48
I65
sbasS'covariates'
p4488
(lp4489
(ima_dataset
Covariate
p4490
(dp4491
g30
g34
sg57
I1
sbasb.